TN:
SF:/root/Kratos/external_libraries/amgcl/adapter/block_matrix.hpp
FN:81,_ZN5amgcl7adapter20block_matrix_adapterISt5tupleIJRmRN5boost7numeric5ublas15unbounded_arrayImSaImEEESA_RNS7_IdSaIdEEEEENS_13static_matrixIdLi2ELi2EEEE12row_iteratorC2ERKSE_l
FN:81,_ZN5amgcl7adapter20block_matrix_adapterISt5tupleIJRmRN5boost7numeric5ublas15unbounded_arrayImSaImEEESA_RNS7_IdSaIdEEEEENS_13static_matrixIdLi3ELi3EEEE12row_iteratorC2ERKSE_l
FN:81,_ZN5amgcl7adapter20block_matrix_adapterISt5tupleIJRmRN5boost7numeric5ublas15unbounded_arrayImSaImEEESA_RNS7_IdSaIdEEEEENS_13static_matrixIdLi4ELi4EEEE12row_iteratorC2ERKSE_l
FN:119,_ZN5amgcl7adapter20block_matrix_adapterISt5tupleIJRmRN5boost7numeric5ublas15unbounded_arrayImSaImEEESA_RNS7_IdSaIdEEEEENS_13static_matrixIdLi2ELi2EEEE12row_iteratorppEv
FN:119,_ZN5amgcl7adapter20block_matrix_adapterISt5tupleIJRmRN5boost7numeric5ublas15unbounded_arrayImSaImEEESA_RNS7_IdSaIdEEEEENS_13static_matrixIdLi3ELi3EEEE12row_iteratorppEv
FN:119,_ZN5amgcl7adapter20block_matrix_adapterISt5tupleIJRmRN5boost7numeric5ublas15unbounded_arrayImSaImEEESA_RNS7_IdSaIdEEEEENS_13static_matrixIdLi4ELi4EEEE12row_iteratorppEv
FNDA:0,_ZN5amgcl7adapter20block_matrix_adapterISt5tupleIJRmRN5boost7numeric5ublas15unbounded_arrayImSaImEEESA_RNS7_IdSaIdEEEEENS_13static_matrixIdLi2ELi2EEEE12row_iteratorC2ERKSE_l
FNDA:0,_ZN5amgcl7adapter20block_matrix_adapterISt5tupleIJRmRN5boost7numeric5ublas15unbounded_arrayImSaImEEESA_RNS7_IdSaIdEEEEENS_13static_matrixIdLi2ELi2EEEE12row_iteratorppEv
FNDA:0,_ZN5amgcl7adapter20block_matrix_adapterISt5tupleIJRmRN5boost7numeric5ublas15unbounded_arrayImSaImEEESA_RNS7_IdSaIdEEEEENS_13static_matrixIdLi3ELi3EEEE12row_iteratorC2ERKSE_l
FNDA:0,_ZN5amgcl7adapter20block_matrix_adapterISt5tupleIJRmRN5boost7numeric5ublas15unbounded_arrayImSaImEEESA_RNS7_IdSaIdEEEEENS_13static_matrixIdLi3ELi3EEEE12row_iteratorppEv
FNDA:0,_ZN5amgcl7adapter20block_matrix_adapterISt5tupleIJRmRN5boost7numeric5ublas15unbounded_arrayImSaImEEESA_RNS7_IdSaIdEEEEENS_13static_matrixIdLi4ELi4EEEE12row_iteratorC2ERKSE_l
FNDA:0,_ZN5amgcl7adapter20block_matrix_adapterISt5tupleIJRmRN5boost7numeric5ublas15unbounded_arrayImSaImEEESA_RNS7_IdSaIdEEEEENS_13static_matrixIdLi4ELi4EEEE12row_iteratorppEv
FNF:6
FNH:0
DA:49,0
DA:50,0
DA:57,0
DA:61,0
DA:81,0
DA:82,0
DA:84,0
DA:85,0
DA:87,0
DA:88,0
DA:89,0
DA:90,0
DA:91,0
DA:93,0
DA:98,0
DA:102,0
DA:103,0
DA:104,0
DA:105,0
DA:106,0
DA:119,0
DA:122,0
DA:125,0
DA:126,0
DA:127,0
DA:128,0
DA:129,0
DA:130,0
DA:132,0
DA:137,0
DA:139,0
DA:140,0
DA:141,0
DA:142,0
DA:143,0
LF:35
LH:0
end_of_record
TN:
SF:/root/Kratos/external_libraries/amgcl/adapter/crs_tuple.hpp
FNF:0
FNH:0
DA:86,0
DA:94,0
DA:114,0
DA:121,0
DA:122,0
DA:124,0
DA:125,0
DA:126,0
DA:130,0
DA:134,0
DA:135,0
DA:136,0
DA:140,0
DA:144,0
LF:14
LH:0
end_of_record
TN:
SF:/root/Kratos/external_libraries/amgcl/adapter/zero_copy.hpp
FN:45,_ZN5amgcl7adapter9zero_copyImmSt7complexIdEEESt10shared_ptrINS_7backend3crsIT1_llEEEmPKT_PKT0_PKS7_
FN:45,_ZN5amgcl7adapter9zero_copyImmdEESt10shared_ptrINS_7backend3crsIT1_llEEEmPKT_PKT0_PKS5_
FNDA:0,_ZN5amgcl7adapter9zero_copyImmSt7complexIdEEESt10shared_ptrINS_7backend3crsIT1_llEEEmPKT_PKT0_PKS7_
FNDA:0,_ZN5amgcl7adapter9zero_copyImmdEESt10shared_ptrINS_7backend3crsIT1_llEEEmPKT_PKT0_PKS5_
FNF:2
FNH:0
DA:45,0
DA:53,0
DA:54,0
DA:55,0
DA:57,0
DA:58,0
DA:59,0
DA:61,0
DA:63,0
LF:9
LH:0
end_of_record
TN:
SF:/root/Kratos/external_libraries/amgcl/amg.hpp
FN:132,_ZN5amgcl3amgINS_7backend7builtinINS_13static_matrixIdLi2ELi2EEEEENS_7runtime10coarsening7wrapperENS6_10relaxation7wrapperEE6paramsC2Ev
FN:132,_ZN5amgcl3amgINS_7backend7builtinINS_13static_matrixIdLi3ELi3EEEEENS_7runtime10coarsening7wrapperENS6_10relaxation7wrapperEE6paramsC2Ev
FN:132,_ZN5amgcl3amgINS_7backend7builtinINS_13static_matrixIdLi4ELi4EEEEENS_7runtime10coarsening7wrapperENS6_10relaxation7wrapperEE6paramsC2Ev
FN:132,_ZN5amgcl3amgINS_7backend7builtinIdEENS_7runtime10coarsening7wrapperENS4_10relaxation7wrapperEE6paramsC2Ev
FN:140,_ZN5amgcl3amgINS_7backend7builtinINS_13static_matrixIdLi2ELi2EEEEENS_7runtime10coarsening7wrapperENS6_10relaxation7wrapperEE6paramsC2ERKN5boost13property_tree11basic_ptreeINSt7__cxx1112basic_stringIcSt11char_traitsIcESaIcEEESL_St4lessISL_EEE
FN:140,_ZN5amgcl3amgINS_7backend7builtinINS_13static_matrixIdLi3ELi3EEEEENS_7runtime10coarsening7wrapperENS6_10relaxation7wrapperEE6paramsC2ERKN5boost13property_tree11basic_ptreeINSt7__cxx1112basic_stringIcSt11char_traitsIcESaIcEEESL_St4lessISL_EEE
FN:140,_ZN5amgcl3amgINS_7backend7builtinINS_13static_matrixIdLi4ELi4EEEEENS_7runtime10coarsening7wrapperENS6_10relaxation7wrapperEE6paramsC2ERKN5boost13property_tree11basic_ptreeINSt7__cxx1112basic_stringIcSt11char_traitsIcESaIcEEESL_St4lessISL_EEE
FN:140,_ZN5amgcl3amgINS_7backend7builtinIdEENS_7runtime10coarsening7wrapperENS4_10relaxation7wrapperEE6paramsC2ERKN5boost13property_tree11basic_ptreeINSt7__cxx1112basic_stringIcSt11char_traitsIcESaIcEEESJ_St4lessISJ_EEE
FN:187,_ZN5amgcl3amgINS_7backend7builtinINS_13static_matrixIdLi2ELi2EEEEENS_7runtime10coarsening7wrapperENS6_10relaxation7wrapperEEC2INS_7adapter20block_matrix_adapterISt5tupleIJRmRN5boost7numeric5ublas15unbounded_arrayImSaImEEESN_RNSK_IdSaIdEEEEES4_EEEERKT_RKNSB_6paramsERKNS_6detail12empty_paramsE
FN:187,_ZN5amgcl3amgINS_7backend7builtinINS_13static_matrixIdLi3ELi3EEEEENS_7runtime10coarsening7wrapperENS6_10relaxation7wrapperEEC2INS_7adapter20block_matrix_adapterISt5tupleIJRmRN5boost7numeric5ublas15unbounded_arrayImSaImEEESN_RNSK_IdSaIdEEEEES4_EEEERKT_RKNSB_6paramsERKNS_6detail12empty_paramsE
FN:187,_ZN5amgcl3amgINS_7backend7builtinINS_13static_matrixIdLi4ELi4EEEEENS_7runtime10coarsening7wrapperENS6_10relaxation7wrapperEEC2INS_7adapter20block_matrix_adapterISt5tupleIJRmRN5boost7numeric5ublas15unbounded_arrayImSaImEEESN_RNSK_IdSaIdEEEEES4_EEEERKT_RKNSB_6paramsERKNS_6detail12empty_paramsE
FN:187,_ZN5amgcl3amgINS_7backend7builtinIdEENS_7runtime10coarsening7wrapperENS4_10relaxation7wrapperEEC2INS1_3crsIdllEEEERKT_RKNS9_6paramsERKNS_6detail12empty_paramsE
FN:212,_ZN5amgcl3amgINS_7backend7builtinIdEENS_7runtime10coarsening7wrapperENS4_10relaxation7wrapperEEC2ESt10shared_ptrINS1_3crsIdllEEERKNS9_6paramsERKNS_6detail12empty_paramsE
FN:239,_ZNK5amgcl3amgINS_7backend7builtinINS_13static_matrixIdLi2ELi2EEEEENS_7runtime10coarsening7wrapperENS6_10relaxation7wrapperEE5applyINS1_11numa_vectorINS3_IdLi2ELi1EEEEERSF_EEvRKT_OT0_
FN:239,_ZNK5amgcl3amgINS_7backend7builtinINS_13static_matrixIdLi3ELi3EEEEENS_7runtime10coarsening7wrapperENS6_10relaxation7wrapperEE5applyINS1_11numa_vectorINS3_IdLi3ELi1EEEEERSF_EEvRKT_OT0_
FN:239,_ZNK5amgcl3amgINS_7backend7builtinINS_13static_matrixIdLi4ELi4EEEEENS_7runtime10coarsening7wrapperENS6_10relaxation7wrapperEE5applyINS1_11numa_vectorINS3_IdLi4ELi1EEEEERSF_EEvRKT_OT0_
FN:239,_ZNK5amgcl3amgINS_7backend7builtinIdEENS_7runtime10coarsening7wrapperENS4_10relaxation7wrapperEE5applyINS1_11numa_vectorIdEERSC_EEvRKT_OT0_
FN:254,_ZNK5amgcl3amgINS_7backend7builtinIdEENS_7runtime10coarsening7wrapperENS4_10relaxation7wrapperEE13system_matrixEv
FN:279,_ZNK5amgcl3amgINS_7backend7builtinINS_13static_matrixIdLi2ELi2EEEEENS_7runtime10coarsening7wrapperENS6_10relaxation7wrapperEE5level5bytesEv
FN:279,_ZNK5amgcl3amgINS_7backend7builtinINS_13static_matrixIdLi3ELi3EEEEENS_7runtime10coarsening7wrapperENS6_10relaxation7wrapperEE5level5bytesEv
FN:279,_ZNK5amgcl3amgINS_7backend7builtinINS_13static_matrixIdLi4ELi4EEEEENS_7runtime10coarsening7wrapperENS6_10relaxation7wrapperEE5level5bytesEv
FN:279,_ZNK5amgcl3amgINS_7backend7builtinIdEENS_7runtime10coarsening7wrapperENS4_10relaxation7wrapperEE5level5bytesEv
FN:298,_ZN5amgcl3amgINS_7backend7builtinINS_13static_matrixIdLi2ELi2EEEEENS_7runtime10coarsening7wrapperENS6_10relaxation7wrapperEE5levelC2ESt10shared_ptrINS1_3crsIS4_llEEERNSB_6paramsERKNS_6detail12empty_paramsE
FN:298,_ZN5amgcl3amgINS_7backend7builtinINS_13static_matrixIdLi3ELi3EEEEENS_7runtime10coarsening7wrapperENS6_10relaxation7wrapperEE5levelC2ESt10shared_ptrINS1_3crsIS4_llEEERNSB_6paramsERKNS_6detail12empty_paramsE
FN:298,_ZN5amgcl3amgINS_7backend7builtinINS_13static_matrixIdLi4ELi4EEEEENS_7runtime10coarsening7wrapperENS6_10relaxation7wrapperEE5levelC2ESt10shared_ptrINS1_3crsIS4_llEEERNSB_6paramsERKNS_6detail12empty_paramsE
FN:298,_ZN5amgcl3amgINS_7backend7builtinIdEENS_7runtime10coarsening7wrapperENS4_10relaxation7wrapperEE5levelC2ESt10shared_ptrINS1_3crsIdllEEERNS9_6paramsERKNS_6detail12empty_paramsE
FN:314,_ZN5amgcl3amgINS_7backend7builtinINS_13static_matrixIdLi2ELi2EEEEENS_7runtime10coarsening7wrapperENS6_10relaxation7wrapperEE5level9step_downESt10shared_ptrINS1_3crsIS4_llEEERNS8_IS5_EERKNS_6detail12empty_paramsE
FN:314,_ZN5amgcl3amgINS_7backend7builtinINS_13static_matrixIdLi3ELi3EEEEENS_7runtime10coarsening7wrapperENS6_10relaxation7wrapperEE5level9step_downESt10shared_ptrINS1_3crsIS4_llEEERNS8_IS5_EERKNS_6detail12empty_paramsE
FN:314,_ZN5amgcl3amgINS_7backend7builtinINS_13static_matrixIdLi4ELi4EEEEENS_7runtime10coarsening7wrapperENS6_10relaxation7wrapperEE5level9step_downESt10shared_ptrINS1_3crsIS4_llEEERNS8_IS5_EERKNS_6detail12empty_paramsE
FN:314,_ZN5amgcl3amgINS_7backend7builtinIdEENS_7runtime10coarsening7wrapperENS4_10relaxation7wrapperEE5level9step_downESt10shared_ptrINS1_3crsIdllEEERNS6_IS3_EERKNS_6detail12empty_paramsE
FN:345,_ZN5amgcl3amgINS_7backend7builtinINS_13static_matrixIdLi2ELi2EEEEENS_7runtime10coarsening7wrapperENS6_10relaxation7wrapperEE5level13create_coarseESt10shared_ptrINS1_3crsIS4_llEEERKNS_6detail12empty_paramsEb
FN:345,_ZN5amgcl3amgINS_7backend7builtinINS_13static_matrixIdLi3ELi3EEEEENS_7runtime10coarsening7wrapperENS6_10relaxation7wrapperEE5level13create_coarseESt10shared_ptrINS1_3crsIS4_llEEERKNS_6detail12empty_paramsEb
FN:345,_ZN5amgcl3amgINS_7backend7builtinINS_13static_matrixIdLi4ELi4EEEEENS_7runtime10coarsening7wrapperENS6_10relaxation7wrapperEE5level13create_coarseESt10shared_ptrINS1_3crsIS4_llEEERKNS_6detail12empty_paramsEb
FN:345,_ZN5amgcl3amgINS_7backend7builtinIdEENS_7runtime10coarsening7wrapperENS4_10relaxation7wrapperEE5level13create_coarseESt10shared_ptrINS1_3crsIdllEEERKNS_6detail12empty_paramsEb
FN:373,_ZN5amgcl3amgINS_7backend7builtinINS_13static_matrixIdLi2ELi2EEEEENS_7runtime10coarsening7wrapperENS6_10relaxation7wrapperEE7do_initESt10shared_ptrINS1_3crsIS4_llEEERKNS_6detail12empty_paramsE
FN:373,_ZN5amgcl3amgINS_7backend7builtinINS_13static_matrixIdLi3ELi3EEEEENS_7runtime10coarsening7wrapperENS6_10relaxation7wrapperEE7do_initESt10shared_ptrINS1_3crsIS4_llEEERKNS_6detail12empty_paramsE
FN:373,_ZN5amgcl3amgINS_7backend7builtinINS_13static_matrixIdLi4ELi4EEEEENS_7runtime10coarsening7wrapperENS6_10relaxation7wrapperEE7do_initESt10shared_ptrINS1_3crsIS4_llEEERKNS_6detail12empty_paramsE
FN:373,_ZN5amgcl3amgINS_7backend7builtinIdEENS_7runtime10coarsening7wrapperENS4_10relaxation7wrapperEE7do_initESt10shared_ptrINS1_3crsIdllEEERKNS_6detail12empty_paramsE
FN:421,_ZNK5amgcl3amgINS_7backend7builtinINS_13static_matrixIdLi2ELi2EEEEENS_7runtime10coarsening7wrapperENS6_10relaxation7wrapperEE5cycleINS1_11numa_vectorINS3_IdLi2ELi1EEEEESF_EEvSt20_List_const_iteratorINSB_5levelEERKT_RT0_
FN:421,_ZNK5amgcl3amgINS_7backend7builtinINS_13static_matrixIdLi3ELi3EEEEENS_7runtime10coarsening7wrapperENS6_10relaxation7wrapperEE5cycleINS1_11numa_vectorINS3_IdLi3ELi1EEEEESF_EEvSt20_List_const_iteratorINSB_5levelEERKT_RT0_
FN:421,_ZNK5amgcl3amgINS_7backend7builtinINS_13static_matrixIdLi4ELi4EEEEENS_7runtime10coarsening7wrapperENS6_10relaxation7wrapperEE5cycleINS1_11numa_vectorINS3_IdLi4ELi1EEEEESF_EEvSt20_List_const_iteratorINSB_5levelEERKT_RT0_
FN:421,_ZNK5amgcl3amgINS_7backend7builtinIdEENS_7runtime10coarsening7wrapperENS4_10relaxation7wrapperEE5cycleINS1_11numa_vectorIdEESC_EEvSt20_List_const_iteratorINS9_5levelEERKT_RT0_
FNDA:0,_ZN5amgcl3amgINS_7backend7builtinINS_13static_matrixIdLi2ELi2EEEEENS_7runtime10coarsening7wrapperENS6_10relaxation7wrapperEE5level13create_coarseESt10shared_ptrINS1_3crsIS4_llEEERKNS_6detail12empty_paramsEb
FNDA:0,_ZN5amgcl3amgINS_7backend7builtinINS_13static_matrixIdLi2ELi2EEEEENS_7runtime10coarsening7wrapperENS6_10relaxation7wrapperEE5level9step_downESt10shared_ptrINS1_3crsIS4_llEEERNS8_IS5_EERKNS_6detail12empty_paramsE
FNDA:0,_ZN5amgcl3amgINS_7backend7builtinINS_13static_matrixIdLi2ELi2EEEEENS_7runtime10coarsening7wrapperENS6_10relaxation7wrapperEE5levelC2ESt10shared_ptrINS1_3crsIS4_llEEERNSB_6paramsERKNS_6detail12empty_paramsE
FNDA:0,_ZN5amgcl3amgINS_7backend7builtinINS_13static_matrixIdLi2ELi2EEEEENS_7runtime10coarsening7wrapperENS6_10relaxation7wrapperEE6paramsC2ERKN5boost13property_tree11basic_ptreeINSt7__cxx1112basic_stringIcSt11char_traitsIcESaIcEEESL_St4lessISL_EEE
FNDA:0,_ZN5amgcl3amgINS_7backend7builtinINS_13static_matrixIdLi2ELi2EEEEENS_7runtime10coarsening7wrapperENS6_10relaxation7wrapperEE6paramsC2Ev
FNDA:0,_ZN5amgcl3amgINS_7backend7builtinINS_13static_matrixIdLi2ELi2EEEEENS_7runtime10coarsening7wrapperENS6_10relaxation7wrapperEE7do_initESt10shared_ptrINS1_3crsIS4_llEEERKNS_6detail12empty_paramsE
FNDA:0,_ZN5amgcl3amgINS_7backend7builtinINS_13static_matrixIdLi2ELi2EEEEENS_7runtime10coarsening7wrapperENS6_10relaxation7wrapperEEC2INS_7adapter20block_matrix_adapterISt5tupleIJRmRN5boost7numeric5ublas15unbounded_arrayImSaImEEESN_RNSK_IdSaIdEEEEES4_EEEERKT_RKNSB_6paramsERKNS_6detail12empty_paramsE
FNDA:0,_ZN5amgcl3amgINS_7backend7builtinINS_13static_matrixIdLi3ELi3EEEEENS_7runtime10coarsening7wrapperENS6_10relaxation7wrapperEE5level13create_coarseESt10shared_ptrINS1_3crsIS4_llEEERKNS_6detail12empty_paramsEb
FNDA:0,_ZN5amgcl3amgINS_7backend7builtinINS_13static_matrixIdLi3ELi3EEEEENS_7runtime10coarsening7wrapperENS6_10relaxation7wrapperEE5level9step_downESt10shared_ptrINS1_3crsIS4_llEEERNS8_IS5_EERKNS_6detail12empty_paramsE
FNDA:0,_ZN5amgcl3amgINS_7backend7builtinINS_13static_matrixIdLi3ELi3EEEEENS_7runtime10coarsening7wrapperENS6_10relaxation7wrapperEE5levelC2ESt10shared_ptrINS1_3crsIS4_llEEERNSB_6paramsERKNS_6detail12empty_paramsE
FNDA:0,_ZN5amgcl3amgINS_7backend7builtinINS_13static_matrixIdLi3ELi3EEEEENS_7runtime10coarsening7wrapperENS6_10relaxation7wrapperEE6paramsC2ERKN5boost13property_tree11basic_ptreeINSt7__cxx1112basic_stringIcSt11char_traitsIcESaIcEEESL_St4lessISL_EEE
FNDA:0,_ZN5amgcl3amgINS_7backend7builtinINS_13static_matrixIdLi3ELi3EEEEENS_7runtime10coarsening7wrapperENS6_10relaxation7wrapperEE6paramsC2Ev
FNDA:0,_ZN5amgcl3amgINS_7backend7builtinINS_13static_matrixIdLi3ELi3EEEEENS_7runtime10coarsening7wrapperENS6_10relaxation7wrapperEE7do_initESt10shared_ptrINS1_3crsIS4_llEEERKNS_6detail12empty_paramsE
FNDA:0,_ZN5amgcl3amgINS_7backend7builtinINS_13static_matrixIdLi3ELi3EEEEENS_7runtime10coarsening7wrapperENS6_10relaxation7wrapperEEC2INS_7adapter20block_matrix_adapterISt5tupleIJRmRN5boost7numeric5ublas15unbounded_arrayImSaImEEESN_RNSK_IdSaIdEEEEES4_EEEERKT_RKNSB_6paramsERKNS_6detail12empty_paramsE
FNDA:0,_ZN5amgcl3amgINS_7backend7builtinINS_13static_matrixIdLi4ELi4EEEEENS_7runtime10coarsening7wrapperENS6_10relaxation7wrapperEE5level13create_coarseESt10shared_ptrINS1_3crsIS4_llEEERKNS_6detail12empty_paramsEb
FNDA:0,_ZN5amgcl3amgINS_7backend7builtinINS_13static_matrixIdLi4ELi4EEEEENS_7runtime10coarsening7wrapperENS6_10relaxation7wrapperEE5level9step_downESt10shared_ptrINS1_3crsIS4_llEEERNS8_IS5_EERKNS_6detail12empty_paramsE
FNDA:0,_ZN5amgcl3amgINS_7backend7builtinINS_13static_matrixIdLi4ELi4EEEEENS_7runtime10coarsening7wrapperENS6_10relaxation7wrapperEE5levelC2ESt10shared_ptrINS1_3crsIS4_llEEERNSB_6paramsERKNS_6detail12empty_paramsE
FNDA:0,_ZN5amgcl3amgINS_7backend7builtinINS_13static_matrixIdLi4ELi4EEEEENS_7runtime10coarsening7wrapperENS6_10relaxation7wrapperEE6paramsC2ERKN5boost13property_tree11basic_ptreeINSt7__cxx1112basic_stringIcSt11char_traitsIcESaIcEEESL_St4lessISL_EEE
FNDA:0,_ZN5amgcl3amgINS_7backend7builtinINS_13static_matrixIdLi4ELi4EEEEENS_7runtime10coarsening7wrapperENS6_10relaxation7wrapperEE6paramsC2Ev
FNDA:0,_ZN5amgcl3amgINS_7backend7builtinINS_13static_matrixIdLi4ELi4EEEEENS_7runtime10coarsening7wrapperENS6_10relaxation7wrapperEE7do_initESt10shared_ptrINS1_3crsIS4_llEEERKNS_6detail12empty_paramsE
FNDA:0,_ZN5amgcl3amgINS_7backend7builtinINS_13static_matrixIdLi4ELi4EEEEENS_7runtime10coarsening7wrapperENS6_10relaxation7wrapperEEC2INS_7adapter20block_matrix_adapterISt5tupleIJRmRN5boost7numeric5ublas15unbounded_arrayImSaImEEESN_RNSK_IdSaIdEEEEES4_EEEERKT_RKNSB_6paramsERKNS_6detail12empty_paramsE
FNDA:0,_ZN5amgcl3amgINS_7backend7builtinIdEENS_7runtime10coarsening7wrapperENS4_10relaxation7wrapperEE5level13create_coarseESt10shared_ptrINS1_3crsIdllEEERKNS_6detail12empty_paramsEb
FNDA:0,_ZN5amgcl3amgINS_7backend7builtinIdEENS_7runtime10coarsening7wrapperENS4_10relaxation7wrapperEE5level9step_downESt10shared_ptrINS1_3crsIdllEEERNS6_IS3_EERKNS_6detail12empty_paramsE
FNDA:0,_ZN5amgcl3amgINS_7backend7builtinIdEENS_7runtime10coarsening7wrapperENS4_10relaxation7wrapperEE5levelC2ESt10shared_ptrINS1_3crsIdllEEERNS9_6paramsERKNS_6detail12empty_paramsE
FNDA:0,_ZN5amgcl3amgINS_7backend7builtinIdEENS_7runtime10coarsening7wrapperENS4_10relaxation7wrapperEE6paramsC2ERKN5boost13property_tree11basic_ptreeINSt7__cxx1112basic_stringIcSt11char_traitsIcESaIcEEESJ_St4lessISJ_EEE
FNDA:0,_ZN5amgcl3amgINS_7backend7builtinIdEENS_7runtime10coarsening7wrapperENS4_10relaxation7wrapperEE6paramsC2Ev
FNDA:0,_ZN5amgcl3amgINS_7backend7builtinIdEENS_7runtime10coarsening7wrapperENS4_10relaxation7wrapperEE7do_initESt10shared_ptrINS1_3crsIdllEEERKNS_6detail12empty_paramsE
FNDA:0,_ZN5amgcl3amgINS_7backend7builtinIdEENS_7runtime10coarsening7wrapperENS4_10relaxation7wrapperEEC2ESt10shared_ptrINS1_3crsIdllEEERKNS9_6paramsERKNS_6detail12empty_paramsE
FNDA:0,_ZN5amgcl3amgINS_7backend7builtinIdEENS_7runtime10coarsening7wrapperENS4_10relaxation7wrapperEEC2INS1_3crsIdllEEEERKT_RKNS9_6paramsERKNS_6detail12empty_paramsE
FNDA:0,_ZNK5amgcl3amgINS_7backend7builtinINS_13static_matrixIdLi2ELi2EEEEENS_7runtime10coarsening7wrapperENS6_10relaxation7wrapperEE5applyINS1_11numa_vectorINS3_IdLi2ELi1EEEEERSF_EEvRKT_OT0_
FNDA:0,_ZNK5amgcl3amgINS_7backend7builtinINS_13static_matrixIdLi2ELi2EEEEENS_7runtime10coarsening7wrapperENS6_10relaxation7wrapperEE5cycleINS1_11numa_vectorINS3_IdLi2ELi1EEEEESF_EEvSt20_List_const_iteratorINSB_5levelEERKT_RT0_
FNDA:0,_ZNK5amgcl3amgINS_7backend7builtinINS_13static_matrixIdLi2ELi2EEEEENS_7runtime10coarsening7wrapperENS6_10relaxation7wrapperEE5level5bytesEv
FNDA:0,_ZNK5amgcl3amgINS_7backend7builtinINS_13static_matrixIdLi3ELi3EEEEENS_7runtime10coarsening7wrapperENS6_10relaxation7wrapperEE5applyINS1_11numa_vectorINS3_IdLi3ELi1EEEEERSF_EEvRKT_OT0_
FNDA:0,_ZNK5amgcl3amgINS_7backend7builtinINS_13static_matrixIdLi3ELi3EEEEENS_7runtime10coarsening7wrapperENS6_10relaxation7wrapperEE5cycleINS1_11numa_vectorINS3_IdLi3ELi1EEEEESF_EEvSt20_List_const_iteratorINSB_5levelEERKT_RT0_
FNDA:0,_ZNK5amgcl3amgINS_7backend7builtinINS_13static_matrixIdLi3ELi3EEEEENS_7runtime10coarsening7wrapperENS6_10relaxation7wrapperEE5level5bytesEv
FNDA:0,_ZNK5amgcl3amgINS_7backend7builtinINS_13static_matrixIdLi4ELi4EEEEENS_7runtime10coarsening7wrapperENS6_10relaxation7wrapperEE5applyINS1_11numa_vectorINS3_IdLi4ELi1EEEEERSF_EEvRKT_OT0_
FNDA:0,_ZNK5amgcl3amgINS_7backend7builtinINS_13static_matrixIdLi4ELi4EEEEENS_7runtime10coarsening7wrapperENS6_10relaxation7wrapperEE5cycleINS1_11numa_vectorINS3_IdLi4ELi1EEEEESF_EEvSt20_List_const_iteratorINSB_5levelEERKT_RT0_
FNDA:0,_ZNK5amgcl3amgINS_7backend7builtinINS_13static_matrixIdLi4ELi4EEEEENS_7runtime10coarsening7wrapperENS6_10relaxation7wrapperEE5level5bytesEv
FNDA:0,_ZNK5amgcl3amgINS_7backend7builtinIdEENS_7runtime10coarsening7wrapperENS4_10relaxation7wrapperEE13system_matrixEv
FNDA:0,_ZNK5amgcl3amgINS_7backend7builtinIdEENS_7runtime10coarsening7wrapperENS4_10relaxation7wrapperEE5applyINS1_11numa_vectorIdEERSC_EEvRKT_OT0_
FNDA:0,_ZNK5amgcl3amgINS_7backend7builtinIdEENS_7runtime10coarsening7wrapperENS4_10relaxation7wrapperEE5cycleINS1_11numa_vectorIdEESC_EEvSt20_List_const_iteratorINS9_5levelEERKT_RT0_
FNDA:0,_ZNK5amgcl3amgINS_7backend7builtinIdEENS_7runtime10coarsening7wrapperENS4_10relaxation7wrapperEE5level5bytesEv
FNF:42
FNH:0
DA:91,0
DA:132,0
DA:133,0
DA:134,0
DA:135,0
DA:136,0
DA:137,0
DA:140,0
DA:141,0
DA:142,0
DA:143,0
DA:144,0
DA:145,0
DA:146,0
DA:147,0
DA:148,0
DA:149,0
DA:151,0
DA:155,0
DA:156,0
DA:187,0
DA:191,0
DA:196,0
DA:197,0
DA:212,0
DA:216,0
DA:218,0
DA:219,0
DA:228,0
DA:239,0
DA:240,0
DA:242,0
DA:247,0
DA:251,0
DA:254,0
DA:255,0
DA:260,0
DA:279,0
DA:282,0
DA:283,0
DA:284,0
DA:286,0
DA:287,0
DA:288,0
DA:290,0
DA:291,0
DA:293,0
DA:296,0
DA:298,0
DA:300,0
DA:303,0
DA:304,0
DA:305,0
DA:306,0
DA:310,0
DA:312,0
DA:314,0
DA:319,0
DA:322,0
DA:323,0
DA:333,0
DA:334,0
DA:338,0
DA:345,0
DA:349,0
DA:350,0
DA:352,0
DA:353,0
DA:355,0
DA:356,0
DA:357,0
DA:358,0
DA:373,0
DA:378,0
DA:379,0
DA:385,0
DA:387,0
DA:388,0
DA:390,0
DA:392,0
DA:393,0
DA:402,0
DA:407,0
DA:409,0
DA:411,0
DA:412,0
DA:413,0
DA:414,0
DA:418,0
DA:421,0
DA:426,0
DA:427,0
DA:429,0
DA:433,0
DA:434,0
DA:438,0
DA:440,0
DA:441,0
DA:449,0
DA:454,0
DA:455,0
DA:459,0
LF:102
LH:0
end_of_record
TN:
SF:/root/Kratos/external_libraries/amgcl/backend/builtin.hpp
FN:81,_ZN5amgcl7backend3crsINS_13static_matrixIdLi2ELi2EEEllEC2ISt6vectorIlSaIlEES8_S6_IS3_SaIS3_EEEEmmRKT_RKT0_RKT1_
FN:81,_ZN5amgcl7backend3crsINS_13static_matrixIdLi3ELi3EEEllEC2ISt6vectorIlSaIlEES8_S6_IS3_SaIS3_EEEEmmRKT_RKT0_RKT1_
FN:81,_ZN5amgcl7backend3crsINS_13static_matrixIdLi4ELi4EEEllEC2ISt6vectorIlSaIlEES8_S6_IS3_SaIS3_EEEEmmRKT_RKT0_RKT1_
FN:81,_ZN5amgcl7backend3crsIdllEC2ISt6vectorIlSaIlEES6_S4_IdSaIdEEEEmmRKT_RKT0_RKT1_
FN:119,_ZN5amgcl7backend3crsINS_13static_matrixIdLi2ELi2EEEllEC2INS_7adapter20block_matrix_adapterISt5tupleIJRmRN5boost7numeric5ublas15unbounded_arrayImSaImEEESG_RNSD_IdSaIdEEEEES3_EEEERKT_
FN:119,_ZN5amgcl7backend3crsINS_13static_matrixIdLi3ELi3EEEllEC2INS_7adapter20block_matrix_adapterISt5tupleIJRmRN5boost7numeric5ublas15unbounded_arrayImSaImEEESG_RNSD_IdSaIdEEEEES3_EEEERKT_
FN:119,_ZN5amgcl7backend3crsINS_13static_matrixIdLi4ELi4EEEllEC2INS_7adapter20block_matrix_adapterISt5tupleIJRmRN5boost7numeric5ublas15unbounded_arrayImSaImEEESG_RNSD_IdSaIdEEEEES3_EEEERKT_
FN:149,_ZN5amgcl7backend3crsIdllEC2ERKS2_
FN:221,_ZN5amgcl7backend3crsINS_13static_matrixIdLi2ELi2EEEllE9free_dataEv
FN:221,_ZN5amgcl7backend3crsINS_13static_matrixIdLi3ELi3EEEllE9free_dataEv
FN:221,_ZN5amgcl7backend3crsINS_13static_matrixIdLi4ELi4EEEllE9free_dataEv
FN:221,_ZN5amgcl7backend3crsISt7complexIdEllE9free_dataEv
FN:221,_ZN5amgcl7backend3crsIcllE9free_dataEv
FN:221,_ZN5amgcl7backend3crsIdllE9free_dataEv
FN:229,_ZN5amgcl7backend3crsINS_13static_matrixIdLi2ELi2EEEllE8set_sizeEmmb
FN:229,_ZN5amgcl7backend3crsINS_13static_matrixIdLi3ELi3EEEllE8set_sizeEmmb
FN:229,_ZN5amgcl7backend3crsINS_13static_matrixIdLi4ELi4EEEllE8set_sizeEmmb
FN:229,_ZN5amgcl7backend3crsIdllE8set_sizeEmmb
FN:245,_ZN5amgcl7backend3crsINS_13static_matrixIdLi2ELi2EEEllE14scan_row_sizesEv
FN:245,_ZN5amgcl7backend3crsINS_13static_matrixIdLi3ELi3EEEllE14scan_row_sizesEv
FN:245,_ZN5amgcl7backend3crsINS_13static_matrixIdLi4ELi4EEEllE14scan_row_sizesEv
FN:245,_ZN5amgcl7backend3crsIcllE14scan_row_sizesEv
FN:245,_ZN5amgcl7backend3crsIdllE14scan_row_sizesEv
FN:250,_ZN5amgcl7backend3crsINS_13static_matrixIdLi2ELi2EEEllE12set_nonzerosEv
FN:250,_ZN5amgcl7backend3crsINS_13static_matrixIdLi3ELi3EEEllE12set_nonzerosEv
FN:250,_ZN5amgcl7backend3crsINS_13static_matrixIdLi4ELi4EEEllE12set_nonzerosEv
FN:250,_ZN5amgcl7backend3crsIdllE12set_nonzerosEv
FN:264,_ZN5amgcl7backend3crsINS_13static_matrixIdLi2ELi2EEEllE12set_nonzerosEmb
FN:264,_ZN5amgcl7backend3crsINS_13static_matrixIdLi3ELi3EEEllE12set_nonzerosEmb
FN:264,_ZN5amgcl7backend3crsINS_13static_matrixIdLi4ELi4EEEllE12set_nonzerosEmb
FN:264,_ZN5amgcl7backend3crsIdllE12set_nonzerosEmb
FN:344,_ZN5amgcl7backend9transposeINS_13static_matrixIdLi2ELi2EEEllEESt10shared_ptrINS0_3crsIT_T0_T1_EEERKS9_
FN:344,_ZN5amgcl7backend9transposeINS_13static_matrixIdLi3ELi3EEEllEESt10shared_ptrINS0_3crsIT_T0_T1_EEERKS9_
FN:344,_ZN5amgcl7backend9transposeINS_13static_matrixIdLi4ELi4EEEllEESt10shared_ptrINS0_3crsIT_T0_T1_EEERKS9_
FN:344,_ZN5amgcl7backend9transposeIdllEESt10shared_ptrINS0_3crsIT_T0_T1_EEERKS7_
FN:377,_ZN5amgcl7backend7productINS_13static_matrixIdLi2ELi2EEEllEESt10shared_ptrINS0_3crsIT_T0_T1_EEERKS9_SC_b
FN:377,_ZN5amgcl7backend7productINS_13static_matrixIdLi3ELi3EEEllEESt10shared_ptrINS0_3crsIT_T0_T1_EEERKS9_SC_b
FN:377,_ZN5amgcl7backend7productINS_13static_matrixIdLi4ELi4EEEllEESt10shared_ptrINS0_3crsIT_T0_T1_EEERKS9_SC_b
FN:377,_ZN5amgcl7backend7productIdllEESt10shared_ptrINS0_3crsIT_T0_T1_EEERKS7_SA_b
FN:411,_ZN5amgcl7backend16pointwise_matrixINS_13static_matrixIdLi2ELi2EEEEESt10shared_ptrINS0_3crsINS_4math9scalar_ofIT_vE4typeEllEEERKNS5_IS8_llEEj
FN:411,_ZN5amgcl7backend16pointwise_matrixINS_13static_matrixIdLi3ELi3EEEEESt10shared_ptrINS0_3crsINS_4math9scalar_ofIT_vE4typeEllEEERKNS5_IS8_llEEj
FN:411,_ZN5amgcl7backend16pointwise_matrixINS_13static_matrixIdLi4ELi4EEEEESt10shared_ptrINS0_3crsINS_4math9scalar_ofIT_vE4typeEllEEERKNS5_IS8_llEEj
FN:411,_ZN5amgcl7backend16pointwise_matrixIdEESt10shared_ptrINS0_3crsINS_4math9scalar_ofIT_vE4typeEllEEERKNS3_IS6_llEEj
FN:577,_ZN5amgcl7backend11numa_vectorINS_13static_matrixIdLi2ELi1EEEEC2Emb
FN:577,_ZN5amgcl7backend11numa_vectorINS_13static_matrixIdLi2ELi2EEEEC2Emb
FN:577,_ZN5amgcl7backend11numa_vectorINS_13static_matrixIdLi3ELi1EEEEC2Emb
FN:577,_ZN5amgcl7backend11numa_vectorINS_13static_matrixIdLi3ELi3EEEEC2Emb
FN:577,_ZN5amgcl7backend11numa_vectorINS_13static_matrixIdLi4ELi1EEEEC2Emb
FN:577,_ZN5amgcl7backend11numa_vectorINS_13static_matrixIdLi4ELi4EEEEC2Emb
FN:577,_ZN5amgcl7backend11numa_vectorIdEC2Emb
FN:599,_ZN5amgcl7backend11numa_vectorINS_13static_matrixIdLi2ELi1EEEEC2ISt6vectorIS3_SaIS3_EEEERKT_NSt9enable_ifIXntsrSt11is_integralIS9_E5valueEiE4typeE
FN:599,_ZN5amgcl7backend11numa_vectorINS_13static_matrixIdLi3ELi1EEEEC2ISt6vectorIS3_SaIS3_EEEERKT_NSt9enable_ifIXntsrSt11is_integralIS9_E5valueEiE4typeE
FN:599,_ZN5amgcl7backend11numa_vectorINS_13static_matrixIdLi4ELi1EEEEC2ISt6vectorIS3_SaIS3_EEEERKT_NSt9enable_ifIXntsrSt11is_integralIS9_E5valueEiE4typeE
FN:599,_ZN5amgcl7backend11numa_vectorIdEC2ISt6vectorIdSaIdEEEERKT_NSt9enable_ifIXntsrSt11is_integralIS7_E5valueEiE4typeE
FN:659,_ZN5amgcl7backend8diagonalINS_13static_matrixIdLi2ELi2EEEllEESt10shared_ptrINS0_11numa_vectorIT_EEERKNS0_3crsIS6_T0_T1_EEb
FN:659,_ZN5amgcl7backend8diagonalINS_13static_matrixIdLi3ELi3EEEllEESt10shared_ptrINS0_11numa_vectorIT_EEERKNS0_3crsIS6_T0_T1_EEb
FN:659,_ZN5amgcl7backend8diagonalINS_13static_matrixIdLi4ELi4EEEllEESt10shared_ptrINS0_11numa_vectorIT_EEERKNS0_3crsIS6_T0_T1_EEb
FN:659,_ZN5amgcl7backend8diagonalIdllEESt10shared_ptrINS0_11numa_vectorIT_EEERKNS0_3crsIS4_T0_T1_EEb
FN:687,_ZN5amgcl7backendL15spectral_radiusILb0ENS0_3crsINS_13static_matrixIdLi2ELi2EEEllEEEENS_4math9scalar_ofINS0_10value_typeIT0_vE4typeEvE4typeERKS9_i
FN:687,_ZN5amgcl7backendL15spectral_radiusILb0ENS0_3crsINS_13static_matrixIdLi3ELi3EEEllEEEENS_4math9scalar_ofINS0_10value_typeIT0_vE4typeEvE4typeERKS9_i
FN:687,_ZN5amgcl7backendL15spectral_radiusILb0ENS0_3crsINS_13static_matrixIdLi4ELi4EEEllEEEENS_4math9scalar_ofINS0_10value_typeIT0_vE4typeEvE4typeERKS9_i
FN:687,_ZN5amgcl7backendL15spectral_radiusILb0ENS0_3crsIdllEEEENS_4math9scalar_ofINS0_10value_typeIT0_vE4typeEvE4typeERKS7_i
FN:687,_ZN5amgcl7backendL15spectral_radiusILb1ENS0_3crsINS_13static_matrixIdLi2ELi2EEEllEEEENS_4math9scalar_ofINS0_10value_typeIT0_vE4typeEvE4typeERKS9_i
FN:687,_ZN5amgcl7backendL15spectral_radiusILb1ENS0_3crsINS_13static_matrixIdLi3ELi3EEEllEEEENS_4math9scalar_ofINS0_10value_typeIT0_vE4typeEvE4typeERKS9_i
FN:687,_ZN5amgcl7backendL15spectral_radiusILb1ENS0_3crsINS_13static_matrixIdLi4ELi4EEEllEEEENS_4math9scalar_ofINS0_10value_typeIT0_vE4typeEvE4typeERKS9_i
FN:687,_ZN5amgcl7backendL15spectral_radiusILb1ENS0_3crsIdllEEEENS_4math9scalar_ofINS0_10value_typeIT0_vE4typeEvE4typeERKS7_i
FN:991,_ZN5amgcl7backend10clear_implIN5boost14iterator_rangeIPNS_13static_matrixIdLi2ELi1EEEEEvE5applyERS7_
FN:991,_ZN5amgcl7backend10clear_implIN5boost14iterator_rangeIPNS_13static_matrixIdLi3ELi1EEEEEvE5applyERS7_
FN:991,_ZN5amgcl7backend10clear_implIN5boost14iterator_rangeIPNS_13static_matrixIdLi4ELi1EEEEEvE5applyERS7_
FN:1016,_ZN5amgcl7backend18inner_product_implIN5boost14iterator_rangeIPKNS_13static_matrixIdLi2ELi1EEEEES8_vE3getERKS8_SB_
FN:1016,_ZN5amgcl7backend18inner_product_implIN5boost14iterator_rangeIPKNS_13static_matrixIdLi3ELi1EEEEES8_vE3getERKS8_SB_
FN:1016,_ZN5amgcl7backend18inner_product_implIN5boost14iterator_rangeIPKNS_13static_matrixIdLi4ELi1EEEEES8_vE3getERKS8_SB_
FN:1016,_ZN5amgcl7backend18inner_product_implIN5boost7numeric5ublas6vectorIdNS4_15unbounded_arrayIdSaIdEEEEES9_vE3getERKS9_SC_
FN:1016,_ZN5amgcl7backend18inner_product_implINS0_11numa_vectorINS_13static_matrixIdLi2ELi1EEEEES5_vE3getERKS5_S8_
FN:1016,_ZN5amgcl7backend18inner_product_implINS0_11numa_vectorINS_13static_matrixIdLi3ELi1EEEEES5_vE3getERKS5_S8_
FN:1016,_ZN5amgcl7backend18inner_product_implINS0_11numa_vectorINS_13static_matrixIdLi4ELi1EEEEES5_vE3getERKS5_S8_
FN:1016,_ZN5amgcl7backend18inner_product_implINS0_11numa_vectorIdEES3_vE3getERKS3_S6_
FN:1027,_ZN5amgcl7backend18inner_product_implIN5boost14iterator_rangeIPKNS_13static_matrixIdLi2ELi1EEEEES8_vE6serialERKS8_SB_
FN:1027,_ZN5amgcl7backend18inner_product_implIN5boost14iterator_rangeIPKNS_13static_matrixIdLi3ELi1EEEEES8_vE6serialERKS8_SB_
FN:1027,_ZN5amgcl7backend18inner_product_implIN5boost14iterator_rangeIPKNS_13static_matrixIdLi4ELi1EEEEES8_vE6serialERKS8_SB_
FN:1027,_ZN5amgcl7backend18inner_product_implINS0_11numa_vectorINS_13static_matrixIdLi2ELi1EEEEES5_vE6serialERKS5_S8_
FN:1027,_ZN5amgcl7backend18inner_product_implINS0_11numa_vectorINS_13static_matrixIdLi3ELi1EEEEES5_vE6serialERKS5_S8_
FN:1027,_ZN5amgcl7backend18inner_product_implINS0_11numa_vectorINS_13static_matrixIdLi4ELi1EEEEES5_vE6serialERKS5_S8_
FN:1047,_ZN5amgcl7backend18inner_product_implIN5boost14iterator_rangeIPKNS_13static_matrixIdLi2ELi1EEEEES8_vE8parallelERKS8_SB_
FN:1047,_ZN5amgcl7backend18inner_product_implIN5boost14iterator_rangeIPKNS_13static_matrixIdLi3ELi1EEEEES8_vE8parallelERKS8_SB_
FN:1047,_ZN5amgcl7backend18inner_product_implIN5boost14iterator_rangeIPKNS_13static_matrixIdLi4ELi1EEEEES8_vE8parallelERKS8_SB_
FN:1047,_ZN5amgcl7backend18inner_product_implIN5boost7numeric5ublas6vectorIdNS4_15unbounded_arrayIdSaIdEEEEES9_vE8parallelERKS9_SC_
FN:1047,_ZN5amgcl7backend18inner_product_implINS0_11numa_vectorINS_13static_matrixIdLi2ELi1EEEEES5_vE8parallelERKS5_S8_
FN:1047,_ZN5amgcl7backend18inner_product_implINS0_11numa_vectorINS_13static_matrixIdLi3ELi1EEEEES5_vE8parallelERKS5_S8_
FN:1047,_ZN5amgcl7backend18inner_product_implINS0_11numa_vectorINS_13static_matrixIdLi4ELi1EEEEES5_vE8parallelERKS5_S8_
FN:1047,_ZN5amgcl7backend18inner_product_implINS0_11numa_vectorIdEES3_vE8parallelERKS3_S6_
FN:1095,_ZN5amgcl7backend10axpby_implIdNS0_11numa_vectorINS_13static_matrixIdLi2ELi1EEEEEdN5boost14iterator_rangeIPS4_EEvE5applyEdRKS5_dRS9_
FN:1095,_ZN5amgcl7backend10axpby_implIdNS0_11numa_vectorINS_13static_matrixIdLi2ELi1EEEEEdS5_vE5applyEdRKS5_dRS5_
FN:1095,_ZN5amgcl7backend10axpby_implIdNS0_11numa_vectorINS_13static_matrixIdLi3ELi1EEEEEdN5boost14iterator_rangeIPS4_EEvE5applyEdRKS5_dRS9_
FN:1095,_ZN5amgcl7backend10axpby_implIdNS0_11numa_vectorINS_13static_matrixIdLi3ELi1EEEEEdS5_vE5applyEdRKS5_dRS5_
FN:1095,_ZN5amgcl7backend10axpby_implIdNS0_11numa_vectorINS_13static_matrixIdLi4ELi1EEEEEdN5boost14iterator_rangeIPS4_EEvE5applyEdRKS5_dRS9_
FN:1095,_ZN5amgcl7backend10axpby_implIdNS0_11numa_vectorINS_13static_matrixIdLi4ELi1EEEEEdS5_vE5applyEdRKS5_dRS5_
FN:1095,_ZN5amgcl7backend10axpby_implIdNS0_11numa_vectorIdEEdN5boost7numeric5ublas6vectorIdNS6_15unbounded_arrayIdSaIdEEEEEvE5applyEdRKS3_dRSB_
FN:1095,_ZN5amgcl7backend10axpby_implIdNS0_11numa_vectorIdEEdS3_vE5applyEdRKS3_dRS3_
FN:1122,_ZN5amgcl7backend13axpbypcz_implIdNS0_11numa_vectorINS_13static_matrixIdLi2ELi1EEEEEdN5boost14iterator_rangeIPS4_EEdS5_vE5applyEdRKS5_dRKS9_dRS5_
FN:1122,_ZN5amgcl7backend13axpbypcz_implIdNS0_11numa_vectorINS_13static_matrixIdLi2ELi1EEEEEdS5_dN5boost14iterator_rangeIPS4_EEvE5applyEdRKS5_dSC_dRS9_
FN:1122,_ZN5amgcl7backend13axpbypcz_implIdNS0_11numa_vectorINS_13static_matrixIdLi2ELi1EEEEEdS5_dS5_vE5applyEdRKS5_dS8_dRS5_
FN:1122,_ZN5amgcl7backend13axpbypcz_implIdNS0_11numa_vectorINS_13static_matrixIdLi3ELi1EEEEEdN5boost14iterator_rangeIPS4_EEdS5_vE5applyEdRKS5_dRKS9_dRS5_
FN:1122,_ZN5amgcl7backend13axpbypcz_implIdNS0_11numa_vectorINS_13static_matrixIdLi3ELi1EEEEEdS5_dN5boost14iterator_rangeIPS4_EEvE5applyEdRKS5_dSC_dRS9_
FN:1122,_ZN5amgcl7backend13axpbypcz_implIdNS0_11numa_vectorINS_13static_matrixIdLi3ELi1EEEEEdS5_dS5_vE5applyEdRKS5_dS8_dRS5_
FN:1122,_ZN5amgcl7backend13axpbypcz_implIdNS0_11numa_vectorINS_13static_matrixIdLi4ELi1EEEEEdN5boost14iterator_rangeIPS4_EEdS5_vE5applyEdRKS5_dRKS9_dRS5_
FN:1122,_ZN5amgcl7backend13axpbypcz_implIdNS0_11numa_vectorINS_13static_matrixIdLi4ELi1EEEEEdS5_dN5boost14iterator_rangeIPS4_EEvE5applyEdRKS5_dSC_dRS9_
FN:1122,_ZN5amgcl7backend13axpbypcz_implIdNS0_11numa_vectorINS_13static_matrixIdLi4ELi1EEEEEdS5_dS5_vE5applyEdRKS5_dS8_dRS5_
FN:1122,_ZN5amgcl7backend13axpbypcz_implIdNS0_11numa_vectorIdEEdN5boost7numeric5ublas6vectorIdNS6_15unbounded_arrayIdSaIdEEEEEdS3_vE5applyEdRKS3_dRKSB_dRS3_
FN:1122,_ZN5amgcl7backend13axpbypcz_implIdNS0_11numa_vectorIdEEdS3_dN5boost7numeric5ublas6vectorIdNS6_15unbounded_arrayIdSaIdEEEEEvE5applyEdRKS3_dSE_dRSB_
FN:1122,_ZN5amgcl7backend13axpbypcz_implIdNS0_11numa_vectorIdEEdS3_dS3_vE5applyEdRKS3_dS6_dRS3_
FN:1149,_ZN5amgcl7backend9vmul_implIdNS0_11numa_vectorINS_13static_matrixIdLi2ELi2EEEEENS2_INS3_IdLi2ELi1EEEEEdS7_vE5applyEdRKS5_RKS7_dRS7_
FN:1149,_ZN5amgcl7backend9vmul_implIdNS0_11numa_vectorINS_13static_matrixIdLi3ELi3EEEEENS2_INS3_IdLi3ELi1EEEEEdS7_vE5applyEdRKS5_RKS7_dRS7_
FN:1149,_ZN5amgcl7backend9vmul_implIdNS0_11numa_vectorINS_13static_matrixIdLi4ELi4EEEEENS2_INS3_IdLi4ELi1EEEEEdS7_vE5applyEdRKS5_RKS7_dRS7_
FN:1149,_ZN5amgcl7backend9vmul_implIdNS0_11numa_vectorIdEES3_dS3_vE5applyEdRKS3_S6_dRS3_
FN:1149,_ZN5amgcl7backend9vmul_implIiNS0_11numa_vectorIdEES3_iS3_vE5applyEiRKS3_S6_iRS3_
FN:1175,_ZN5amgcl7backend9copy_implIN5boost14iterator_rangeIPNS_13static_matrixIdLi2ELi1EEEEENS0_11numa_vectorIS5_EEvE5applyERKS7_RS9_
FN:1175,_ZN5amgcl7backend9copy_implIN5boost14iterator_rangeIPNS_13static_matrixIdLi3ELi1EEEEENS0_11numa_vectorIS5_EEvE5applyERKS7_RS9_
FN:1175,_ZN5amgcl7backend9copy_implIN5boost14iterator_rangeIPNS_13static_matrixIdLi4ELi1EEEEENS0_11numa_vectorIS5_EEvE5applyERKS7_RS9_
FNDA:0,_ZN5amgcl7backend10axpby_implIdNS0_11numa_vectorINS_13static_matrixIdLi2ELi1EEEEEdN5boost14iterator_rangeIPS4_EEvE5applyEdRKS5_dRS9_
FNDA:0,_ZN5amgcl7backend10axpby_implIdNS0_11numa_vectorINS_13static_matrixIdLi2ELi1EEEEEdS5_vE5applyEdRKS5_dRS5_
FNDA:0,_ZN5amgcl7backend10axpby_implIdNS0_11numa_vectorINS_13static_matrixIdLi3ELi1EEEEEdN5boost14iterator_rangeIPS4_EEvE5applyEdRKS5_dRS9_
FNDA:0,_ZN5amgcl7backend10axpby_implIdNS0_11numa_vectorINS_13static_matrixIdLi3ELi1EEEEEdS5_vE5applyEdRKS5_dRS5_
FNDA:0,_ZN5amgcl7backend10axpby_implIdNS0_11numa_vectorINS_13static_matrixIdLi4ELi1EEEEEdN5boost14iterator_rangeIPS4_EEvE5applyEdRKS5_dRS9_
FNDA:0,_ZN5amgcl7backend10axpby_implIdNS0_11numa_vectorINS_13static_matrixIdLi4ELi1EEEEEdS5_vE5applyEdRKS5_dRS5_
FNDA:0,_ZN5amgcl7backend10axpby_implIdNS0_11numa_vectorIdEEdN5boost7numeric5ublas6vectorIdNS6_15unbounded_arrayIdSaIdEEEEEvE5applyEdRKS3_dRSB_
FNDA:0,_ZN5amgcl7backend10axpby_implIdNS0_11numa_vectorIdEEdS3_vE5applyEdRKS3_dRS3_
FNDA:0,_ZN5amgcl7backend10clear_implIN5boost14iterator_rangeIPNS_13static_matrixIdLi2ELi1EEEEEvE5applyERS7_
FNDA:0,_ZN5amgcl7backend10clear_implIN5boost14iterator_rangeIPNS_13static_matrixIdLi3ELi1EEEEEvE5applyERS7_
FNDA:0,_ZN5amgcl7backend10clear_implIN5boost14iterator_rangeIPNS_13static_matrixIdLi4ELi1EEEEEvE5applyERS7_
FNDA:0,_ZN5amgcl7backend11numa_vectorINS_13static_matrixIdLi2ELi1EEEEC2Emb
FNDA:0,_ZN5amgcl7backend11numa_vectorINS_13static_matrixIdLi2ELi1EEEEC2ISt6vectorIS3_SaIS3_EEEERKT_NSt9enable_ifIXntsrSt11is_integralIS9_E5valueEiE4typeE
FNDA:0,_ZN5amgcl7backend11numa_vectorINS_13static_matrixIdLi2ELi2EEEEC2Emb
FNDA:0,_ZN5amgcl7backend11numa_vectorINS_13static_matrixIdLi3ELi1EEEEC2Emb
FNDA:0,_ZN5amgcl7backend11numa_vectorINS_13static_matrixIdLi3ELi1EEEEC2ISt6vectorIS3_SaIS3_EEEERKT_NSt9enable_ifIXntsrSt11is_integralIS9_E5valueEiE4typeE
FNDA:0,_ZN5amgcl7backend11numa_vectorINS_13static_matrixIdLi3ELi3EEEEC2Emb
FNDA:0,_ZN5amgcl7backend11numa_vectorINS_13static_matrixIdLi4ELi1EEEEC2Emb
FNDA:0,_ZN5amgcl7backend11numa_vectorINS_13static_matrixIdLi4ELi1EEEEC2ISt6vectorIS3_SaIS3_EEEERKT_NSt9enable_ifIXntsrSt11is_integralIS9_E5valueEiE4typeE
FNDA:0,_ZN5amgcl7backend11numa_vectorINS_13static_matrixIdLi4ELi4EEEEC2Emb
FNDA:0,_ZN5amgcl7backend11numa_vectorIdEC2Emb
FNDA:0,_ZN5amgcl7backend11numa_vectorIdEC2ISt6vectorIdSaIdEEEERKT_NSt9enable_ifIXntsrSt11is_integralIS7_E5valueEiE4typeE
FNDA:0,_ZN5amgcl7backend13axpbypcz_implIdNS0_11numa_vectorINS_13static_matrixIdLi2ELi1EEEEEdN5boost14iterator_rangeIPS4_EEdS5_vE5applyEdRKS5_dRKS9_dRS5_
FNDA:0,_ZN5amgcl7backend13axpbypcz_implIdNS0_11numa_vectorINS_13static_matrixIdLi2ELi1EEEEEdS5_dN5boost14iterator_rangeIPS4_EEvE5applyEdRKS5_dSC_dRS9_
FNDA:0,_ZN5amgcl7backend13axpbypcz_implIdNS0_11numa_vectorINS_13static_matrixIdLi2ELi1EEEEEdS5_dS5_vE5applyEdRKS5_dS8_dRS5_
FNDA:0,_ZN5amgcl7backend13axpbypcz_implIdNS0_11numa_vectorINS_13static_matrixIdLi3ELi1EEEEEdN5boost14iterator_rangeIPS4_EEdS5_vE5applyEdRKS5_dRKS9_dRS5_
FNDA:0,_ZN5amgcl7backend13axpbypcz_implIdNS0_11numa_vectorINS_13static_matrixIdLi3ELi1EEEEEdS5_dN5boost14iterator_rangeIPS4_EEvE5applyEdRKS5_dSC_dRS9_
FNDA:0,_ZN5amgcl7backend13axpbypcz_implIdNS0_11numa_vectorINS_13static_matrixIdLi3ELi1EEEEEdS5_dS5_vE5applyEdRKS5_dS8_dRS5_
FNDA:0,_ZN5amgcl7backend13axpbypcz_implIdNS0_11numa_vectorINS_13static_matrixIdLi4ELi1EEEEEdN5boost14iterator_rangeIPS4_EEdS5_vE5applyEdRKS5_dRKS9_dRS5_
FNDA:0,_ZN5amgcl7backend13axpbypcz_implIdNS0_11numa_vectorINS_13static_matrixIdLi4ELi1EEEEEdS5_dN5boost14iterator_rangeIPS4_EEvE5applyEdRKS5_dSC_dRS9_
FNDA:0,_ZN5amgcl7backend13axpbypcz_implIdNS0_11numa_vectorINS_13static_matrixIdLi4ELi1EEEEEdS5_dS5_vE5applyEdRKS5_dS8_dRS5_
FNDA:0,_ZN5amgcl7backend13axpbypcz_implIdNS0_11numa_vectorIdEEdN5boost7numeric5ublas6vectorIdNS6_15unbounded_arrayIdSaIdEEEEEdS3_vE5applyEdRKS3_dRKSB_dRS3_
FNDA:0,_ZN5amgcl7backend13axpbypcz_implIdNS0_11numa_vectorIdEEdS3_dN5boost7numeric5ublas6vectorIdNS6_15unbounded_arrayIdSaIdEEEEEvE5applyEdRKS3_dSE_dRSB_
FNDA:0,_ZN5amgcl7backend13axpbypcz_implIdNS0_11numa_vectorIdEEdS3_dS3_vE5applyEdRKS3_dS6_dRS3_
FNDA:0,_ZN5amgcl7backend16pointwise_matrixINS_13static_matrixIdLi2ELi2EEEEESt10shared_ptrINS0_3crsINS_4math9scalar_ofIT_vE4typeEllEEERKNS5_IS8_llEEj
FNDA:0,_ZN5amgcl7backend16pointwise_matrixINS_13static_matrixIdLi3ELi3EEEEESt10shared_ptrINS0_3crsINS_4math9scalar_ofIT_vE4typeEllEEERKNS5_IS8_llEEj
FNDA:0,_ZN5amgcl7backend16pointwise_matrixINS_13static_matrixIdLi4ELi4EEEEESt10shared_ptrINS0_3crsINS_4math9scalar_ofIT_vE4typeEllEEERKNS5_IS8_llEEj
FNDA:0,_ZN5amgcl7backend16pointwise_matrixIdEESt10shared_ptrINS0_3crsINS_4math9scalar_ofIT_vE4typeEllEEERKNS3_IS6_llEEj
FNDA:0,_ZN5amgcl7backend18inner_product_implIN5boost14iterator_rangeIPKNS_13static_matrixIdLi2ELi1EEEEES8_vE3getERKS8_SB_
FNDA:0,_ZN5amgcl7backend18inner_product_implIN5boost14iterator_rangeIPKNS_13static_matrixIdLi2ELi1EEEEES8_vE6serialERKS8_SB_
FNDA:0,_ZN5amgcl7backend18inner_product_implIN5boost14iterator_rangeIPKNS_13static_matrixIdLi2ELi1EEEEES8_vE8parallelERKS8_SB_
FNDA:0,_ZN5amgcl7backend18inner_product_implIN5boost14iterator_rangeIPKNS_13static_matrixIdLi3ELi1EEEEES8_vE3getERKS8_SB_
FNDA:0,_ZN5amgcl7backend18inner_product_implIN5boost14iterator_rangeIPKNS_13static_matrixIdLi3ELi1EEEEES8_vE6serialERKS8_SB_
FNDA:0,_ZN5amgcl7backend18inner_product_implIN5boost14iterator_rangeIPKNS_13static_matrixIdLi3ELi1EEEEES8_vE8parallelERKS8_SB_
FNDA:0,_ZN5amgcl7backend18inner_product_implIN5boost14iterator_rangeIPKNS_13static_matrixIdLi4ELi1EEEEES8_vE3getERKS8_SB_
FNDA:0,_ZN5amgcl7backend18inner_product_implIN5boost14iterator_rangeIPKNS_13static_matrixIdLi4ELi1EEEEES8_vE6serialERKS8_SB_
FNDA:0,_ZN5amgcl7backend18inner_product_implIN5boost14iterator_rangeIPKNS_13static_matrixIdLi4ELi1EEEEES8_vE8parallelERKS8_SB_
FNDA:0,_ZN5amgcl7backend18inner_product_implIN5boost7numeric5ublas6vectorIdNS4_15unbounded_arrayIdSaIdEEEEES9_vE3getERKS9_SC_
FNDA:0,_ZN5amgcl7backend18inner_product_implIN5boost7numeric5ublas6vectorIdNS4_15unbounded_arrayIdSaIdEEEEES9_vE8parallelERKS9_SC_
FNDA:0,_ZN5amgcl7backend18inner_product_implINS0_11numa_vectorINS_13static_matrixIdLi2ELi1EEEEES5_vE3getERKS5_S8_
FNDA:0,_ZN5amgcl7backend18inner_product_implINS0_11numa_vectorINS_13static_matrixIdLi2ELi1EEEEES5_vE6serialERKS5_S8_
FNDA:0,_ZN5amgcl7backend18inner_product_implINS0_11numa_vectorINS_13static_matrixIdLi2ELi1EEEEES5_vE8parallelERKS5_S8_
FNDA:0,_ZN5amgcl7backend18inner_product_implINS0_11numa_vectorINS_13static_matrixIdLi3ELi1EEEEES5_vE3getERKS5_S8_
FNDA:0,_ZN5amgcl7backend18inner_product_implINS0_11numa_vectorINS_13static_matrixIdLi3ELi1EEEEES5_vE6serialERKS5_S8_
FNDA:0,_ZN5amgcl7backend18inner_product_implINS0_11numa_vectorINS_13static_matrixIdLi3ELi1EEEEES5_vE8parallelERKS5_S8_
FNDA:0,_ZN5amgcl7backend18inner_product_implINS0_11numa_vectorINS_13static_matrixIdLi4ELi1EEEEES5_vE3getERKS5_S8_
FNDA:0,_ZN5amgcl7backend18inner_product_implINS0_11numa_vectorINS_13static_matrixIdLi4ELi1EEEEES5_vE6serialERKS5_S8_
FNDA:0,_ZN5amgcl7backend18inner_product_implINS0_11numa_vectorINS_13static_matrixIdLi4ELi1EEEEES5_vE8parallelERKS5_S8_
FNDA:0,_ZN5amgcl7backend18inner_product_implINS0_11numa_vectorIdEES3_vE3getERKS3_S6_
FNDA:0,_ZN5amgcl7backend18inner_product_implINS0_11numa_vectorIdEES3_vE8parallelERKS3_S6_
FNDA:0,_ZN5amgcl7backend3crsINS_13static_matrixIdLi2ELi2EEEllE12set_nonzerosEmb
FNDA:0,_ZN5amgcl7backend3crsINS_13static_matrixIdLi2ELi2EEEllE12set_nonzerosEv
FNDA:0,_ZN5amgcl7backend3crsINS_13static_matrixIdLi2ELi2EEEllE14scan_row_sizesEv
FNDA:0,_ZN5amgcl7backend3crsINS_13static_matrixIdLi2ELi2EEEllE8set_sizeEmmb
FNDA:0,_ZN5amgcl7backend3crsINS_13static_matrixIdLi2ELi2EEEllE9free_dataEv
FNDA:0,_ZN5amgcl7backend3crsINS_13static_matrixIdLi2ELi2EEEllEC2INS_7adapter20block_matrix_adapterISt5tupleIJRmRN5boost7numeric5ublas15unbounded_arrayImSaImEEESG_RNSD_IdSaIdEEEEES3_EEEERKT_
FNDA:0,_ZN5amgcl7backend3crsINS_13static_matrixIdLi2ELi2EEEllEC2ISt6vectorIlSaIlEES8_S6_IS3_SaIS3_EEEEmmRKT_RKT0_RKT1_
FNDA:0,_ZN5amgcl7backend3crsINS_13static_matrixIdLi3ELi3EEEllE12set_nonzerosEmb
FNDA:0,_ZN5amgcl7backend3crsINS_13static_matrixIdLi3ELi3EEEllE12set_nonzerosEv
FNDA:0,_ZN5amgcl7backend3crsINS_13static_matrixIdLi3ELi3EEEllE14scan_row_sizesEv
FNDA:0,_ZN5amgcl7backend3crsINS_13static_matrixIdLi3ELi3EEEllE8set_sizeEmmb
FNDA:0,_ZN5amgcl7backend3crsINS_13static_matrixIdLi3ELi3EEEllE9free_dataEv
FNDA:0,_ZN5amgcl7backend3crsINS_13static_matrixIdLi3ELi3EEEllEC2INS_7adapter20block_matrix_adapterISt5tupleIJRmRN5boost7numeric5ublas15unbounded_arrayImSaImEEESG_RNSD_IdSaIdEEEEES3_EEEERKT_
FNDA:0,_ZN5amgcl7backend3crsINS_13static_matrixIdLi3ELi3EEEllEC2ISt6vectorIlSaIlEES8_S6_IS3_SaIS3_EEEEmmRKT_RKT0_RKT1_
FNDA:0,_ZN5amgcl7backend3crsINS_13static_matrixIdLi4ELi4EEEllE12set_nonzerosEmb
FNDA:0,_ZN5amgcl7backend3crsINS_13static_matrixIdLi4ELi4EEEllE12set_nonzerosEv
FNDA:0,_ZN5amgcl7backend3crsINS_13static_matrixIdLi4ELi4EEEllE14scan_row_sizesEv
FNDA:0,_ZN5amgcl7backend3crsINS_13static_matrixIdLi4ELi4EEEllE8set_sizeEmmb
FNDA:0,_ZN5amgcl7backend3crsINS_13static_matrixIdLi4ELi4EEEllE9free_dataEv
FNDA:0,_ZN5amgcl7backend3crsINS_13static_matrixIdLi4ELi4EEEllEC2INS_7adapter20block_matrix_adapterISt5tupleIJRmRN5boost7numeric5ublas15unbounded_arrayImSaImEEESG_RNSD_IdSaIdEEEEES3_EEEERKT_
FNDA:0,_ZN5amgcl7backend3crsINS_13static_matrixIdLi4ELi4EEEllEC2ISt6vectorIlSaIlEES8_S6_IS3_SaIS3_EEEEmmRKT_RKT0_RKT1_
FNDA:0,_ZN5amgcl7backend3crsISt7complexIdEllE9free_dataEv
FNDA:0,_ZN5amgcl7backend3crsIcllE14scan_row_sizesEv
FNDA:0,_ZN5amgcl7backend3crsIcllE9free_dataEv
FNDA:0,_ZN5amgcl7backend3crsIdllE12set_nonzerosEmb
FNDA:0,_ZN5amgcl7backend3crsIdllE12set_nonzerosEv
FNDA:0,_ZN5amgcl7backend3crsIdllE14scan_row_sizesEv
FNDA:0,_ZN5amgcl7backend3crsIdllE8set_sizeEmmb
FNDA:0,_ZN5amgcl7backend3crsIdllE9free_dataEv
FNDA:0,_ZN5amgcl7backend3crsIdllEC2ERKS2_
FNDA:0,_ZN5amgcl7backend3crsIdllEC2ISt6vectorIlSaIlEES6_S4_IdSaIdEEEEmmRKT_RKT0_RKT1_
FNDA:0,_ZN5amgcl7backend7productINS_13static_matrixIdLi2ELi2EEEllEESt10shared_ptrINS0_3crsIT_T0_T1_EEERKS9_SC_b
FNDA:0,_ZN5amgcl7backend7productINS_13static_matrixIdLi3ELi3EEEllEESt10shared_ptrINS0_3crsIT_T0_T1_EEERKS9_SC_b
FNDA:0,_ZN5amgcl7backend7productINS_13static_matrixIdLi4ELi4EEEllEESt10shared_ptrINS0_3crsIT_T0_T1_EEERKS9_SC_b
FNDA:0,_ZN5amgcl7backend7productIdllEESt10shared_ptrINS0_3crsIT_T0_T1_EEERKS7_SA_b
FNDA:0,_ZN5amgcl7backend8diagonalINS_13static_matrixIdLi2ELi2EEEllEESt10shared_ptrINS0_11numa_vectorIT_EEERKNS0_3crsIS6_T0_T1_EEb
FNDA:0,_ZN5amgcl7backend8diagonalINS_13static_matrixIdLi3ELi3EEEllEESt10shared_ptrINS0_11numa_vectorIT_EEERKNS0_3crsIS6_T0_T1_EEb
FNDA:0,_ZN5amgcl7backend8diagonalINS_13static_matrixIdLi4ELi4EEEllEESt10shared_ptrINS0_11numa_vectorIT_EEERKNS0_3crsIS6_T0_T1_EEb
FNDA:0,_ZN5amgcl7backend8diagonalIdllEESt10shared_ptrINS0_11numa_vectorIT_EEERKNS0_3crsIS4_T0_T1_EEb
FNDA:0,_ZN5amgcl7backend9copy_implIN5boost14iterator_rangeIPNS_13static_matrixIdLi2ELi1EEEEENS0_11numa_vectorIS5_EEvE5applyERKS7_RS9_
FNDA:0,_ZN5amgcl7backend9copy_implIN5boost14iterator_rangeIPNS_13static_matrixIdLi3ELi1EEEEENS0_11numa_vectorIS5_EEvE5applyERKS7_RS9_
FNDA:0,_ZN5amgcl7backend9copy_implIN5boost14iterator_rangeIPNS_13static_matrixIdLi4ELi1EEEEENS0_11numa_vectorIS5_EEvE5applyERKS7_RS9_
FNDA:0,_ZN5amgcl7backend9transposeINS_13static_matrixIdLi2ELi2EEEllEESt10shared_ptrINS0_3crsIT_T0_T1_EEERKS9_
FNDA:0,_ZN5amgcl7backend9transposeINS_13static_matrixIdLi3ELi3EEEllEESt10shared_ptrINS0_3crsIT_T0_T1_EEERKS9_
FNDA:0,_ZN5amgcl7backend9transposeINS_13static_matrixIdLi4ELi4EEEllEESt10shared_ptrINS0_3crsIT_T0_T1_EEERKS9_
FNDA:0,_ZN5amgcl7backend9transposeIdllEESt10shared_ptrINS0_3crsIT_T0_T1_EEERKS7_
FNDA:0,_ZN5amgcl7backend9vmul_implIdNS0_11numa_vectorINS_13static_matrixIdLi2ELi2EEEEENS2_INS3_IdLi2ELi1EEEEEdS7_vE5applyEdRKS5_RKS7_dRS7_
FNDA:0,_ZN5amgcl7backend9vmul_implIdNS0_11numa_vectorINS_13static_matrixIdLi3ELi3EEEEENS2_INS3_IdLi3ELi1EEEEEdS7_vE5applyEdRKS5_RKS7_dRS7_
FNDA:0,_ZN5amgcl7backend9vmul_implIdNS0_11numa_vectorINS_13static_matrixIdLi4ELi4EEEEENS2_INS3_IdLi4ELi1EEEEEdS7_vE5applyEdRKS5_RKS7_dRS7_
FNDA:0,_ZN5amgcl7backend9vmul_implIdNS0_11numa_vectorIdEES3_dS3_vE5applyEdRKS3_S6_dRS3_
FNDA:0,_ZN5amgcl7backend9vmul_implIiNS0_11numa_vectorIdEES3_iS3_vE5applyEiRKS3_S6_iRS3_
FNDA:0,_ZN5amgcl7backendL15spectral_radiusILb0ENS0_3crsINS_13static_matrixIdLi2ELi2EEEllEEEENS_4math9scalar_ofINS0_10value_typeIT0_vE4typeEvE4typeERKS9_i
FNDA:0,_ZN5amgcl7backendL15spectral_radiusILb0ENS0_3crsINS_13static_matrixIdLi3ELi3EEEllEEEENS_4math9scalar_ofINS0_10value_typeIT0_vE4typeEvE4typeERKS9_i
FNDA:0,_ZN5amgcl7backendL15spectral_radiusILb0ENS0_3crsINS_13static_matrixIdLi4ELi4EEEllEEEENS_4math9scalar_ofINS0_10value_typeIT0_vE4typeEvE4typeERKS9_i
FNDA:0,_ZN5amgcl7backendL15spectral_radiusILb0ENS0_3crsIdllEEEENS_4math9scalar_ofINS0_10value_typeIT0_vE4typeEvE4typeERKS7_i
FNDA:0,_ZN5amgcl7backendL15spectral_radiusILb1ENS0_3crsINS_13static_matrixIdLi2ELi2EEEllEEEENS_4math9scalar_ofINS0_10value_typeIT0_vE4typeEvE4typeERKS9_i
FNDA:0,_ZN5amgcl7backendL15spectral_radiusILb1ENS0_3crsINS_13static_matrixIdLi3ELi3EEEllEEEENS_4math9scalar_ofINS0_10value_typeIT0_vE4typeEvE4typeERKS9_i
FNDA:0,_ZN5amgcl7backendL15spectral_radiusILb1ENS0_3crsINS_13static_matrixIdLi4ELi4EEEllEEEENS_4math9scalar_ofINS0_10value_typeIT0_vE4typeEvE4typeERKS9_i
FNDA:0,_ZN5amgcl7backendL15spectral_radiusILb1ENS0_3crsIdllEEEENS_4math9scalar_ofINS0_10value_typeIT0_vE4typeEvE4typeERKS7_i
FNF:119
FNH:0
DA:73,0
DA:81,0
DA:86,0
DA:87,0
DA:89,0
DA:93,0
DA:95,0
DA:99,0
DA:103,0
DA:104,0
DA:105,0
DA:107,0
DA:108,0
DA:116,0
DA:119,0
DA:120,0
DA:121,0
DA:123,0
DA:124,0
DA:126,0
DA:133,0
DA:134,0
DA:135,0
DA:137,0
DA:147,0
DA:149,0
DA:150,0
DA:151,0
DA:153,0
DA:154,0
DA:155,0
DA:156,0
DA:158,0
DA:159,0
DA:168,0
DA:221,0
DA:222,0
DA:223,0
DA:224,0
DA:225,0
DA:227,0
DA:229,0
DA:230,0
DA:232,0
DA:233,0
DA:235,0
DA:237,0
DA:238,0
DA:239,0
DA:243,0
DA:245,0
DA:246,0
DA:247,0
DA:250,0
DA:251,0
DA:253,0
DA:262,0
DA:264,0
DA:265,0
DA:267,0
DA:269,0
DA:271,0
DA:272,0
DA:273,0
DA:276,0
DA:277,0
DA:293,0
DA:294,0
DA:295,0
DA:299,0
DA:303,0
DA:313,0
DA:314,0
DA:315,0
DA:319,0
DA:320,0
DA:321,0
DA:322,0
DA:334,0
DA:344,0
DA:351,0
DA:353,0
DA:354,0
DA:356,0
DA:357,0
DA:359,0
DA:360,0
DA:361,0
DA:363,0
DA:364,0
DA:368,0
DA:369,0
DA:371,0
DA:377,0
DA:381,0
DA:386,0
DA:387,0
DA:389,0
DA:392,0
DA:399,0
DA:401,0
DA:411,0
DA:416,0
DA:417,0
DA:418,0
DA:419,0
DA:421,0
DA:427,0
DA:429,0
DA:488,0
DA:490,0
DA:566,0
DA:577,0
DA:578,0
DA:579,0
DA:583,0
DA:599,0
DA:601,0
DA:603,0
DA:606,0
DA:624,0
DA:625,0
DA:628,0
DA:632,0
DA:636,0
DA:644,0
DA:659,0
DA:661,0
DA:662,0
DA:664,0
DA:678,0
DA:687,0
DA:693,0
DA:696,0
DA:698,0
DA:700,0
DA:728,0
DA:733,0
DA:758,0
DA:759,0
DA:764,0
DA:769,0
DA:770,0
DA:802,0
DA:804,0
DA:805,0
DA:814,0
DA:924,0
DA:931,0
DA:943,0
DA:974,0
DA:991,0
DA:996,0
DA:1000,0
DA:1016,0
DA:1018,0
DA:1019,0
DA:1023,0
DA:1027,0
DA:1033,0
DA:1034,0
DA:1035,0
DA:1036,0
DA:1040,0
DA:1047,0
DA:1054,0
DA:1056,0
DA:1059,0
DA:1063,0
DA:1081,0
DA:1095,0
DA:1098,0
DA:1099,0
DA:1104,0
DA:1109,0
DA:1122,0
DA:1125,0
DA:1126,0
DA:1131,0
DA:1136,0
DA:1149,0
DA:1152,0
DA:1153,0
DA:1158,0
DA:1163,0
DA:1175,0
DA:1178,0
DA:1182,0
LF:188
LH:0
end_of_record
TN:
SF:/root/Kratos/external_libraries/amgcl/backend/detail/matrix_ops.hpp
FN:57,_ZN5amgcl7backend9spmv_implIdNS0_3crsINS_13static_matrixIdLi2ELi2EEEllEENS0_11numa_vectorINS3_IdLi2ELi1EEEEEdS8_vE5applyEdRKS5_RKS8_dRS8_
FN:57,_ZN5amgcl7backend9spmv_implIdNS0_3crsINS_13static_matrixIdLi3ELi3EEEllEENS0_11numa_vectorINS3_IdLi3ELi1EEEEEdS8_vE5applyEdRKS5_RKS8_dRS8_
FN:57,_ZN5amgcl7backend9spmv_implIdNS0_3crsINS_13static_matrixIdLi4ELi4EEEllEENS0_11numa_vectorINS3_IdLi4ELi1EEEEEdS8_vE5applyEdRKS5_RKS8_dRS8_
FN:57,_ZN5amgcl7backend9spmv_implIdNS0_3crsIdllEENS0_11numa_vectorIdEEdS5_vE5applyEdRKS3_RKS5_dRS5_
FN:57,_ZN5amgcl7backend9spmv_implIdNS0_3crsIdllEENS0_11numa_vectorIdEEiS5_vE5applyEdRKS3_RKS5_iRS5_
FN:57,_ZN5amgcl7backend9spmv_implIiNS0_3crsIdllEENS0_11numa_vectorIdEEiS5_vE5applyEiRKS3_RKS5_iRS5_
FNDA:0,_ZN5amgcl7backend9spmv_implIdNS0_3crsINS_13static_matrixIdLi2ELi2EEEllEENS0_11numa_vectorINS3_IdLi2ELi1EEEEEdS8_vE5applyEdRKS5_RKS8_dRS8_
FNDA:0,_ZN5amgcl7backend9spmv_implIdNS0_3crsINS_13static_matrixIdLi3ELi3EEEllEENS0_11numa_vectorINS3_IdLi3ELi1EEEEEdS8_vE5applyEdRKS5_RKS8_dRS8_
FNDA:0,_ZN5amgcl7backend9spmv_implIdNS0_3crsINS_13static_matrixIdLi4ELi4EEEllEENS0_11numa_vectorINS3_IdLi4ELi1EEEEEdS8_vE5applyEdRKS5_RKS8_dRS8_
FNDA:0,_ZN5amgcl7backend9spmv_implIdNS0_3crsIdllEENS0_11numa_vectorIdEEdS5_vE5applyEdRKS3_RKS5_dRS5_
FNDA:0,_ZN5amgcl7backend9spmv_implIdNS0_3crsIdllEENS0_11numa_vectorIdEEiS5_vE5applyEdRKS3_RKS5_iRS5_
FNDA:0,_ZN5amgcl7backend9spmv_implIiNS0_3crsIdllEENS0_11numa_vectorIdEEiS5_vE5applyEiRKS3_RKS5_iRS5_
FNF:6
FNH:0
DA:57,0
DA:63,0
DA:65,0
DA:66,0
DA:74,0
DA:82,0
DA:105,0
DA:107,0
LF:8
LH:0
end_of_record
TN:
SF:/root/Kratos/external_libraries/amgcl/backend/interface.hpp
FN:249,_ZN5amgcl7backend5bytesINS_11make_solverINS_7runtime14preconditionerINS0_7builtinINS_13static_matrixIdLi2ELi2EEEEEEENS3_6solver7wrapperIS8_NS_6solver6detail21default_inner_productEEEEEEEmRKT_
FN:249,_ZN5amgcl7backend5bytesINS_11make_solverINS_7runtime14preconditionerINS0_7builtinINS_13static_matrixIdLi3ELi3EEEEEEENS3_6solver7wrapperIS8_NS_6solver6detail21default_inner_productEEEEEEEmRKT_
FN:249,_ZN5amgcl7backend5bytesINS_11make_solverINS_7runtime14preconditionerINS0_7builtinINS_13static_matrixIdLi4ELi4EEEEEEENS3_6solver7wrapperIS8_NS_6solver6detail21default_inner_productEEEEEEEmRKT_
FN:249,_ZN5amgcl7backend5bytesINS_11make_solverINS_7runtime14preconditionerINS0_7builtinIdEEEENS3_6solver7wrapperIS6_NS_6solver6detail21default_inner_productEEEEEEEmRKT_
FN:402,_ZN5amgcl7backend8lin_combIPdPSt10shared_ptrINS0_11numa_vectorINS_13static_matrixIdLi2ELi1EEEEEEdS7_EEvmRKT_RKT0_RKT1_RT2_
FN:402,_ZN5amgcl7backend8lin_combIPdPSt10shared_ptrINS0_11numa_vectorINS_13static_matrixIdLi3ELi1EEEEEEdS7_EEvmRKT_RKT0_RKT1_RT2_
FN:402,_ZN5amgcl7backend8lin_combIPdPSt10shared_ptrINS0_11numa_vectorINS_13static_matrixIdLi4ELi1EEEEEEdS7_EEvmRKT_RKT0_RKT1_RT2_
FN:402,_ZN5amgcl7backend8lin_combIPdPSt10shared_ptrINS0_11numa_vectorIdEEEdS5_EEvmRKT_RKT0_RKT1_RT2_
FN:402,_ZN5amgcl7backend8lin_combISt6vectorIdSaIdEES2_ISt10shared_ptrINS0_11numa_vectorINS_13static_matrixIdLi2ELi1EEEEEESaISA_EEdN5boost14iterator_rangeIPS8_EEEEvmRKT_RKT0_RKT1_RT2_
FN:402,_ZN5amgcl7backend8lin_combISt6vectorIdSaIdEES2_ISt10shared_ptrINS0_11numa_vectorINS_13static_matrixIdLi2ELi1EEEEEESaISA_EEdS9_EEvmRKT_RKT0_RKT1_RT2_
FN:402,_ZN5amgcl7backend8lin_combISt6vectorIdSaIdEES2_ISt10shared_ptrINS0_11numa_vectorINS_13static_matrixIdLi3ELi1EEEEEESaISA_EEdN5boost14iterator_rangeIPS8_EEEEvmRKT_RKT0_RKT1_RT2_
FN:402,_ZN5amgcl7backend8lin_combISt6vectorIdSaIdEES2_ISt10shared_ptrINS0_11numa_vectorINS_13static_matrixIdLi3ELi1EEEEEESaISA_EEdS9_EEvmRKT_RKT0_RKT1_RT2_
FN:402,_ZN5amgcl7backend8lin_combISt6vectorIdSaIdEES2_ISt10shared_ptrINS0_11numa_vectorINS_13static_matrixIdLi4ELi1EEEEEESaISA_EEdN5boost14iterator_rangeIPS8_EEEEvmRKT_RKT0_RKT1_RT2_
FN:402,_ZN5amgcl7backend8lin_combISt6vectorIdSaIdEES2_ISt10shared_ptrINS0_11numa_vectorINS_13static_matrixIdLi4ELi1EEEEEESaISA_EEdS9_EEvmRKT_RKT0_RKT1_RT2_
FN:402,_ZN5amgcl7backend8lin_combISt6vectorIdSaIdEES2_ISt10shared_ptrINS0_11numa_vectorIdEEESaIS8_EEdN5boost7numeric5ublas6vectorIdNSD_15unbounded_arrayIdS3_EEEEEEvmRKT_RKT0_RKT1_RT2_
FN:402,_ZN5amgcl7backend8lin_combISt6vectorIdSaIdEES2_ISt10shared_ptrINS0_11numa_vectorIdEEESaIS8_EEdS7_EEvmRKT_RKT0_RKT1_RT2_
FNDA:0,_ZN5amgcl7backend5bytesINS_11make_solverINS_7runtime14preconditionerINS0_7builtinINS_13static_matrixIdLi2ELi2EEEEEEENS3_6solver7wrapperIS8_NS_6solver6detail21default_inner_productEEEEEEEmRKT_
FNDA:0,_ZN5amgcl7backend5bytesINS_11make_solverINS_7runtime14preconditionerINS0_7builtinINS_13static_matrixIdLi3ELi3EEEEEEENS3_6solver7wrapperIS8_NS_6solver6detail21default_inner_productEEEEEEEmRKT_
FNDA:0,_ZN5amgcl7backend5bytesINS_11make_solverINS_7runtime14preconditionerINS0_7builtinINS_13static_matrixIdLi4ELi4EEEEEEENS3_6solver7wrapperIS8_NS_6solver6detail21default_inner_productEEEEEEEmRKT_
FNDA:0,_ZN5amgcl7backend5bytesINS_11make_solverINS_7runtime14preconditionerINS0_7builtinIdEEEENS3_6solver7wrapperIS6_NS_6solver6detail21default_inner_productEEEEEEEmRKT_
FNDA:0,_ZN5amgcl7backend8lin_combIPdPSt10shared_ptrINS0_11numa_vectorINS_13static_matrixIdLi2ELi1EEEEEEdS7_EEvmRKT_RKT0_RKT1_RT2_
FNDA:0,_ZN5amgcl7backend8lin_combIPdPSt10shared_ptrINS0_11numa_vectorINS_13static_matrixIdLi3ELi1EEEEEEdS7_EEvmRKT_RKT0_RKT1_RT2_
FNDA:0,_ZN5amgcl7backend8lin_combIPdPSt10shared_ptrINS0_11numa_vectorINS_13static_matrixIdLi4ELi1EEEEEEdS7_EEvmRKT_RKT0_RKT1_RT2_
FNDA:0,_ZN5amgcl7backend8lin_combIPdPSt10shared_ptrINS0_11numa_vectorIdEEEdS5_EEvmRKT_RKT0_RKT1_RT2_
FNDA:0,_ZN5amgcl7backend8lin_combISt6vectorIdSaIdEES2_ISt10shared_ptrINS0_11numa_vectorINS_13static_matrixIdLi2ELi1EEEEEESaISA_EEdN5boost14iterator_rangeIPS8_EEEEvmRKT_RKT0_RKT1_RT2_
FNDA:0,_ZN5amgcl7backend8lin_combISt6vectorIdSaIdEES2_ISt10shared_ptrINS0_11numa_vectorINS_13static_matrixIdLi2ELi1EEEEEESaISA_EEdS9_EEvmRKT_RKT0_RKT1_RT2_
FNDA:0,_ZN5amgcl7backend8lin_combISt6vectorIdSaIdEES2_ISt10shared_ptrINS0_11numa_vectorINS_13static_matrixIdLi3ELi1EEEEEESaISA_EEdN5boost14iterator_rangeIPS8_EEEEvmRKT_RKT0_RKT1_RT2_
FNDA:0,_ZN5amgcl7backend8lin_combISt6vectorIdSaIdEES2_ISt10shared_ptrINS0_11numa_vectorINS_13static_matrixIdLi3ELi1EEEEEESaISA_EEdS9_EEvmRKT_RKT0_RKT1_RT2_
FNDA:0,_ZN5amgcl7backend8lin_combISt6vectorIdSaIdEES2_ISt10shared_ptrINS0_11numa_vectorINS_13static_matrixIdLi4ELi1EEEEEESaISA_EEdN5boost14iterator_rangeIPS8_EEEEvmRKT_RKT0_RKT1_RT2_
FNDA:0,_ZN5amgcl7backend8lin_combISt6vectorIdSaIdEES2_ISt10shared_ptrINS0_11numa_vectorINS_13static_matrixIdLi4ELi1EEEEEESaISA_EEdS9_EEvmRKT_RKT0_RKT1_RT2_
FNDA:0,_ZN5amgcl7backend8lin_combISt6vectorIdSaIdEES2_ISt10shared_ptrINS0_11numa_vectorIdEEESaIS8_EEdN5boost7numeric5ublas6vectorIdNSD_15unbounded_arrayIdS3_EEEEEEvmRKT_RKT0_RKT1_RT2_
FNDA:0,_ZN5amgcl7backend8lin_combISt6vectorIdSaIdEES2_ISt10shared_ptrINS0_11numa_vectorIdEEESaIS8_EEdS7_EEvmRKT_RKT0_RKT1_RT2_
FNF:16
FNH:0
DA:108,0
DA:249,0
DA:250,0
DA:281,0
DA:303,0
DA:305,0
DA:315,0
DA:317,0
DA:324,0
DA:333,0
DA:335,0
DA:349,0
DA:362,0
DA:364,0
DA:373,0
DA:375,0
DA:385,0
DA:387,0
DA:402,0
DA:403,0
DA:405,0
DA:406,0
DA:408,0
DA:409,0
DA:410,0
LF:25
LH:0
end_of_record
TN:
SF:/root/Kratos/external_libraries/amgcl/coarsening/aggregation.hpp
FN:100,_ZN5amgcl10coarsening11aggregationINS_7backend7builtinINS_13static_matrixIdLi2ELi2EEEEEE6paramsC2ERKN5boost13property_tree11basic_ptreeINSt7__cxx1112basic_stringIcSt11char_traitsIcESaIcEEESH_St4lessISH_EEE
FN:100,_ZN5amgcl10coarsening11aggregationINS_7backend7builtinINS_13static_matrixIdLi3ELi3EEEEEE6paramsC2ERKN5boost13property_tree11basic_ptreeINSt7__cxx1112basic_stringIcSt11char_traitsIcESaIcEEESH_St4lessISH_EEE
FN:100,_ZN5amgcl10coarsening11aggregationINS_7backend7builtinINS_13static_matrixIdLi4ELi4EEEEEE6paramsC2ERKN5boost13property_tree11basic_ptreeINSt7__cxx1112basic_stringIcSt11char_traitsIcESaIcEEESH_St4lessISH_EEE
FN:100,_ZN5amgcl10coarsening11aggregationINS_7backend7builtinIdEEE6paramsC2ERKN5boost13property_tree11basic_ptreeINSt7__cxx1112basic_stringIcSt11char_traitsIcESaIcEEESF_St4lessISF_EEE
FN:129,_ZN5amgcl10coarsening11aggregationINS_7backend7builtinINS_13static_matrixIdLi2ELi2EEEEEE18transfer_operatorsINS2_3crsIS5_llEEEESt5tupleIJSt10shared_ptrIT_ESE_EERKSD_
FN:129,_ZN5amgcl10coarsening11aggregationINS_7backend7builtinINS_13static_matrixIdLi3ELi3EEEEEE18transfer_operatorsINS2_3crsIS5_llEEEESt5tupleIJSt10shared_ptrIT_ESE_EERKSD_
FN:129,_ZN5amgcl10coarsening11aggregationINS_7backend7builtinINS_13static_matrixIdLi4ELi4EEEEEE18transfer_operatorsINS2_3crsIS5_llEEEESt5tupleIJSt10shared_ptrIT_ESE_EERKSD_
FN:129,_ZN5amgcl10coarsening11aggregationINS_7backend7builtinIdEEE18transfer_operatorsINS2_3crsIdllEEEESt5tupleIJSt10shared_ptrIT_ESC_EERKSB_
FNDA:0,_ZN5amgcl10coarsening11aggregationINS_7backend7builtinINS_13static_matrixIdLi2ELi2EEEEEE18transfer_operatorsINS2_3crsIS5_llEEEESt5tupleIJSt10shared_ptrIT_ESE_EERKSD_
FNDA:0,_ZN5amgcl10coarsening11aggregationINS_7backend7builtinINS_13static_matrixIdLi2ELi2EEEEEE6paramsC2ERKN5boost13property_tree11basic_ptreeINSt7__cxx1112basic_stringIcSt11char_traitsIcESaIcEEESH_St4lessISH_EEE
FNDA:0,_ZN5amgcl10coarsening11aggregationINS_7backend7builtinINS_13static_matrixIdLi3ELi3EEEEEE18transfer_operatorsINS2_3crsIS5_llEEEESt5tupleIJSt10shared_ptrIT_ESE_EERKSD_
FNDA:0,_ZN5amgcl10coarsening11aggregationINS_7backend7builtinINS_13static_matrixIdLi3ELi3EEEEEE6paramsC2ERKN5boost13property_tree11basic_ptreeINSt7__cxx1112basic_stringIcSt11char_traitsIcESaIcEEESH_St4lessISH_EEE
FNDA:0,_ZN5amgcl10coarsening11aggregationINS_7backend7builtinINS_13static_matrixIdLi4ELi4EEEEEE18transfer_operatorsINS2_3crsIS5_llEEEESt5tupleIJSt10shared_ptrIT_ESE_EERKSD_
FNDA:0,_ZN5amgcl10coarsening11aggregationINS_7backend7builtinINS_13static_matrixIdLi4ELi4EEEEEE6paramsC2ERKN5boost13property_tree11basic_ptreeINSt7__cxx1112basic_stringIcSt11char_traitsIcESaIcEEESH_St4lessISH_EEE
FNDA:0,_ZN5amgcl10coarsening11aggregationINS_7backend7builtinIdEEE18transfer_operatorsINS2_3crsIdllEEEESt5tupleIJSt10shared_ptrIT_ESC_EERKSB_
FNDA:0,_ZN5amgcl10coarsening11aggregationINS_7backend7builtinIdEEE6paramsC2ERKN5boost13property_tree11basic_ptreeINSt7__cxx1112basic_stringIcSt11char_traitsIcESaIcEEESF_St4lessISF_EEE
FNF:8
FNH:0
DA:71,0
DA:75,0
DA:97,0
DA:100,0
DA:101,0
DA:102,0
DA:103,0
DA:105,0
DA:106,0
DA:116,0
DA:129,0
DA:133,0
DA:137,0
DA:138,0
DA:142,0
DA:143,0
DA:145,0
DA:146,0
DA:158,0
LF:19
LH:0
end_of_record
TN:
SF:/root/Kratos/external_libraries/amgcl/coarsening/detail/galerkin.hpp
FN:42,_ZN5amgcl10coarsening6detail8galerkinINS_7backend3crsINS_13static_matrixIdLi2ELi2EEEllEEEESt10shared_ptrIT_ERKS9_SC_SC_
FN:42,_ZN5amgcl10coarsening6detail8galerkinINS_7backend3crsINS_13static_matrixIdLi3ELi3EEEllEEEESt10shared_ptrIT_ERKS9_SC_SC_
FN:42,_ZN5amgcl10coarsening6detail8galerkinINS_7backend3crsINS_13static_matrixIdLi4ELi4EEEllEEEESt10shared_ptrIT_ERKS9_SC_SC_
FN:42,_ZN5amgcl10coarsening6detail8galerkinINS_7backend3crsIdllEEEESt10shared_ptrIT_ERKS7_SA_SA_
FNDA:0,_ZN5amgcl10coarsening6detail8galerkinINS_7backend3crsINS_13static_matrixIdLi2ELi2EEEllEEEESt10shared_ptrIT_ERKS9_SC_SC_
FNDA:0,_ZN5amgcl10coarsening6detail8galerkinINS_7backend3crsINS_13static_matrixIdLi3ELi3EEEllEEEESt10shared_ptrIT_ERKS9_SC_SC_
FNDA:0,_ZN5amgcl10coarsening6detail8galerkinINS_7backend3crsINS_13static_matrixIdLi4ELi4EEEllEEEESt10shared_ptrIT_ERKS9_SC_SC_
FNDA:0,_ZN5amgcl10coarsening6detail8galerkinINS_7backend3crsIdllEEEESt10shared_ptrIT_ERKS7_SA_SA_
FNF:4
FNH:0
DA:42,0
DA:46,0
LF:2
LH:0
end_of_record
TN:
SF:/root/Kratos/external_libraries/amgcl/coarsening/detail/scaled_galerkin.hpp
FN:41,_ZN5amgcl10coarsening6detail15scaled_galerkinINS_7backend3crsINS_13static_matrixIdLi2ELi2EEEllEEEESt10shared_ptrIT_ERKS9_SC_SC_f
FN:41,_ZN5amgcl10coarsening6detail15scaled_galerkinINS_7backend3crsINS_13static_matrixIdLi3ELi3EEEllEEEESt10shared_ptrIT_ERKS9_SC_SC_f
FN:41,_ZN5amgcl10coarsening6detail15scaled_galerkinINS_7backend3crsINS_13static_matrixIdLi4ELi4EEEllEEEESt10shared_ptrIT_ERKS9_SC_SC_f
FN:41,_ZN5amgcl10coarsening6detail15scaled_galerkinINS_7backend3crsIdllEEEESt10shared_ptrIT_ERKS7_SA_SA_f
FNDA:0,_ZN5amgcl10coarsening6detail15scaled_galerkinINS_7backend3crsINS_13static_matrixIdLi2ELi2EEEllEEEESt10shared_ptrIT_ERKS9_SC_SC_f
FNDA:0,_ZN5amgcl10coarsening6detail15scaled_galerkinINS_7backend3crsINS_13static_matrixIdLi3ELi3EEEllEEEESt10shared_ptrIT_ERKS9_SC_SC_f
FNDA:0,_ZN5amgcl10coarsening6detail15scaled_galerkinINS_7backend3crsINS_13static_matrixIdLi4ELi4EEEllEEEESt10shared_ptrIT_ERKS9_SC_SC_f
FNDA:0,_ZN5amgcl10coarsening6detail15scaled_galerkinINS_7backend3crsIdllEEEESt10shared_ptrIT_ERKS7_SA_SA_f
FNF:4
FNH:0
DA:41,0
DA:48,0
DA:50,0
LF:3
LH:0
end_of_record
TN:
SF:/root/Kratos/external_libraries/amgcl/coarsening/plain_aggregates.hpp
FN:78,_ZN5amgcl10coarsening16plain_aggregates6paramsC2ERKN5boost13property_tree11basic_ptreeINSt7__cxx1112basic_stringIcSt11char_traitsIcESaIcEEESB_St4lessISB_EEE
FN:114,_ZN5amgcl10coarsening16plain_aggregatesC2INS_7backend3crsINS_13static_matrixIdLi2ELi2EEEllEEEERKT_RKNS1_6paramsE
FN:114,_ZN5amgcl10coarsening16plain_aggregatesC2INS_7backend3crsINS_13static_matrixIdLi3ELi3EEEllEEEERKT_RKNS1_6paramsE
FN:114,_ZN5amgcl10coarsening16plain_aggregatesC2INS_7backend3crsINS_13static_matrixIdLi4ELi4EEEllEEEERKT_RKNS1_6paramsE
FN:114,_ZN5amgcl10coarsening16plain_aggregatesC2INS_7backend3crsIdllEEEERKT_RKNS1_6paramsE
FNDA:0,_ZN5amgcl10coarsening16plain_aggregates6paramsC2ERKN5boost13property_tree11basic_ptreeINSt7__cxx1112basic_stringIcSt11char_traitsIcESaIcEEESB_St4lessISB_EEE
FNDA:0,_ZN5amgcl10coarsening16plain_aggregatesC2INS_7backend3crsINS_13static_matrixIdLi2ELi2EEEllEEEERKT_RKNS1_6paramsE
FNDA:0,_ZN5amgcl10coarsening16plain_aggregatesC2INS_7backend3crsINS_13static_matrixIdLi3ELi3EEEllEEEERKT_RKNS1_6paramsE
FNDA:0,_ZN5amgcl10coarsening16plain_aggregatesC2INS_7backend3crsINS_13static_matrixIdLi4ELi4EEEllEEEERKT_RKNS1_6paramsE
FNDA:0,_ZN5amgcl10coarsening16plain_aggregatesC2INS_7backend3crsIdllEEEERKT_RKNS1_6paramsE
FNF:5
FNH:0
DA:75,0
DA:78,0
DA:79,0
DA:81,0
DA:82,0
DA:114,0
DA:115,0
DA:116,0
DA:117,0
DA:122,0
DA:127,0
DA:128,0
DA:143,0
DA:144,0
DA:145,0
DA:146,0
DA:149,0
DA:150,0
DA:155,0
DA:159,0
DA:162,0
DA:163,0
DA:167,0
DA:168,0
DA:172,0
DA:173,0
DA:174,0
DA:175,0
DA:176,0
DA:183,0
DA:184,0
DA:185,0
DA:186,0
DA:187,0
DA:192,0
DA:196,0
DA:197,0
DA:198,0
DA:201,0
DA:202,0
DA:204,0
DA:205,0
DA:207,0
LF:43
LH:0
end_of_record
TN:
SF:/root/Kratos/external_libraries/amgcl/coarsening/pointwise_aggregates.hpp
FN:65,_ZN5amgcl10coarsening20pointwise_aggregates6paramsC2ERKN5boost13property_tree11basic_ptreeINSt7__cxx1112basic_stringIcSt11char_traitsIcESaIcEEESB_St4lessISB_EEE
FN:93,_ZN5amgcl10coarsening20pointwise_aggregatesC2INS_7backend3crsINS_13static_matrixIdLi2ELi2EEEllEEEERKT_RKNS1_6paramsEj
FN:93,_ZN5amgcl10coarsening20pointwise_aggregatesC2INS_7backend3crsINS_13static_matrixIdLi3ELi3EEEllEEEERKT_RKNS1_6paramsEj
FN:93,_ZN5amgcl10coarsening20pointwise_aggregatesC2INS_7backend3crsINS_13static_matrixIdLi4ELi4EEEllEEEERKT_RKNS1_6paramsEj
FN:93,_ZN5amgcl10coarsening20pointwise_aggregatesC2INS_7backend3crsIdllEEEERKT_RKNS1_6paramsEj
FN:159,_ZN5amgcl10coarsening20pointwise_aggregates23remove_small_aggregatesEmjjRNS0_16plain_aggregatesE
FNDA:0,_ZN5amgcl10coarsening20pointwise_aggregates23remove_small_aggregatesEmjjRNS0_16plain_aggregatesE
FNDA:0,_ZN5amgcl10coarsening20pointwise_aggregates6paramsC2ERKN5boost13property_tree11basic_ptreeINSt7__cxx1112basic_stringIcSt11char_traitsIcESaIcEEESB_St4lessISB_EEE
FNDA:0,_ZN5amgcl10coarsening20pointwise_aggregatesC2INS_7backend3crsINS_13static_matrixIdLi2ELi2EEEllEEEERKT_RKNS1_6paramsEj
FNDA:0,_ZN5amgcl10coarsening20pointwise_aggregatesC2INS_7backend3crsINS_13static_matrixIdLi3ELi3EEEllEEEERKT_RKNS1_6paramsEj
FNDA:0,_ZN5amgcl10coarsening20pointwise_aggregatesC2INS_7backend3crsINS_13static_matrixIdLi4ELi4EEEllEEEERKT_RKNS1_6paramsEj
FNDA:0,_ZN5amgcl10coarsening20pointwise_aggregatesC2INS_7backend3crsIdllEEEERKT_RKNS1_6paramsEj
FNF:6
FNH:0
DA:62,0
DA:65,0
DA:66,0
DA:67,0
DA:69,0
DA:70,0
DA:93,0
DA:94,0
DA:99,0
DA:101,0
DA:103,0
DA:106,0
DA:107,0
DA:108,0
DA:110,0
DA:113,0
DA:115,0
DA:116,0
DA:118,0
DA:120,0
DA:156,0
DA:157,0
DA:159,0
DA:164,0
DA:167,0
DA:169,0
DA:170,0
DA:171,0
DA:177,0
DA:178,0
DA:179,0
DA:181,0
DA:186,0
DA:188,0
DA:189,0
DA:190,0
LF:36
LH:0
end_of_record
TN:
SF:/root/Kratos/external_libraries/amgcl/coarsening/rigid_body_modes.hpp
FN:43,_ZN5amgcl10coarsening16rigid_body_modesIN5boost14iterator_rangeIPdEEEEiiRKT_RSt6vectorIdSaIdEE
FNDA:0,_ZN5amgcl10coarsening16rigid_body_modesIN5boost14iterator_rangeIPdEEEEiiRKT_RSt6vectorIdSaIdEE
FNF:1
FNH:0
DA:43,0
DA:44,0
DA:45,0
DA:48,0
DA:49,0
DA:51,0
DA:53,0
DA:54,0
DA:55,0
DA:56,0
DA:58,0
DA:59,0
DA:62,0
DA:65,0
DA:66,0
DA:67,0
DA:68,0
DA:69,0
DA:70,0
DA:71,0
DA:74,0
DA:75,0
DA:76,0
DA:77,0
DA:79,0
DA:80,0
DA:81,0
DA:84,0
DA:87,0
DA:88,0
DA:89,0
DA:90,0
DA:91,0
DA:92,0
DA:93,0
DA:94,0
DA:95,0
DA:96,0
DA:97,0
DA:98,0
DA:99,0
DA:106,0
DA:108,0
DA:109,0
DA:110,0
DA:113,0
DA:114,0
DA:115,0
DA:116,0
DA:118,0
DA:119,0
DA:120,0
DA:123,0
LF:53
LH:0
end_of_record
TN:
SF:/root/Kratos/external_libraries/amgcl/coarsening/ruge_stuben.hpp
FN:85,_ZN5amgcl10coarsening11ruge_stubenINS_7backend7builtinIdEEE6paramsC2ERKN5boost13property_tree11basic_ptreeINSt7__cxx1112basic_stringIcSt11char_traitsIcESaIcEEESF_St4lessISF_EEE
FN:106,_ZNK5amgcl10coarsening11ruge_stubenINS_7backend7builtinIdEEE18transfer_operatorsINS2_3crsIdllEEEESt5tupleIJSt10shared_ptrIT_ESC_EERKSB_
FN:265,_ZN5amgcl10coarsening11ruge_stubenINS_7backend7builtinIdEEE7connectIdllEEvRKNS2_3crsIT_T0_T1_EEfRNS7_IcS9_SA_EERSt6vectorIcSaIcEE
FN:319,_ZN5amgcl10coarsening11ruge_stubenINS_7backend7builtinIdEEE7cfsplitIdllEEvRKNS2_3crsIT_T0_T1_EERKNS7_IcS9_SA_EERSt6vectorIcSaIcEE
FNDA:0,_ZN5amgcl10coarsening11ruge_stubenINS_7backend7builtinIdEEE6paramsC2ERKN5boost13property_tree11basic_ptreeINSt7__cxx1112basic_stringIcSt11char_traitsIcESaIcEEESF_St4lessISF_EEE
FNDA:0,_ZN5amgcl10coarsening11ruge_stubenINS_7backend7builtinIdEEE7cfsplitIdllEEvRKNS2_3crsIT_T0_T1_EERKNS7_IcS9_SA_EERSt6vectorIcSaIcEE
FNDA:0,_ZN5amgcl10coarsening11ruge_stubenINS_7backend7builtinIdEEE7connectIdllEEvRKNS2_3crsIT_T0_T1_EEfRNS7_IcS9_SA_EERSt6vectorIcSaIcEE
FNDA:0,_ZNK5amgcl10coarsening11ruge_stubenINS_7backend7builtinIdEEE18transfer_operatorsINS2_3crsIdllEEEESt5tupleIJSt10shared_ptrIT_ESC_EERKSB_
FNF:4
FNH:0
DA:82,0
DA:85,0
DA:86,0
DA:87,0
DA:88,0
DA:90,0
DA:91,0
DA:101,0
DA:106,0
DA:112,0
DA:114,0
DA:116,0
DA:120,0
DA:121,0
DA:126,0
DA:127,0
DA:128,0
DA:130,0
DA:133,0
DA:137,0
DA:138,0
DA:139,0
DA:142,0
DA:175,0
DA:177,0
DA:246,0
DA:253,0
DA:265,0
DA:277,0
DA:278,0
DA:279,0
DA:280,0
DA:282,0
DA:303,0
DA:304,0
DA:306,0
DA:307,0
DA:309,0
DA:310,0
DA:311,0
DA:313,0
DA:314,0
DA:315,0
DA:319,0
DA:327,0
DA:330,0
DA:332,0
DA:333,0
DA:334,0
DA:342,0
DA:343,0
DA:344,0
DA:345,0
DA:347,0
DA:351,0
DA:352,0
DA:353,0
DA:354,0
DA:355,0
DA:362,0
DA:363,0
DA:364,0
DA:366,0
DA:372,0
DA:374,0
DA:377,0
DA:380,0
DA:381,0
DA:383,0
DA:385,0
DA:388,0
DA:389,0
DA:391,0
DA:392,0
DA:394,0
DA:395,0
DA:397,0
DA:398,0
DA:400,0
DA:401,0
DA:405,0
DA:406,0
DA:407,0
DA:409,0
DA:414,0
DA:415,0
DA:417,0
DA:418,0
DA:420,0
DA:422,0
DA:423,0
DA:425,0
DA:426,0
DA:430,0
DA:431,0
DA:432,0
DA:433,0
DA:436,0
LF:98
LH:0
end_of_record
TN:
SF:/root/Kratos/external_libraries/amgcl/coarsening/runtime.hpp
FN:79,_ZN5amgcl7runtime10coarseningrsERSiRNS1_4typeE
FN:105,_ZN5amgcl7runtime10coarsening7wrapperINS_7backend7builtinINS_13static_matrixIdLi2ELi2EEEEEEC2EN5boost13property_tree11basic_ptreeINSt7__cxx1112basic_stringIcSt11char_traitsIcESaIcEEESH_St4lessISH_EEE
FN:105,_ZN5amgcl7runtime10coarsening7wrapperINS_7backend7builtinINS_13static_matrixIdLi3ELi3EEEEEEC2EN5boost13property_tree11basic_ptreeINSt7__cxx1112basic_stringIcSt11char_traitsIcESaIcEEESH_St4lessISH_EEE
FN:105,_ZN5amgcl7runtime10coarsening7wrapperINS_7backend7builtinINS_13static_matrixIdLi4ELi4EEEEEEC2EN5boost13property_tree11basic_ptreeINSt7__cxx1112basic_stringIcSt11char_traitsIcESaIcEEESH_St4lessISH_EEE
FN:105,_ZN5amgcl7runtime10coarsening7wrapperINS_7backend7builtinIdEEEC2EN5boost13property_tree11basic_ptreeINSt7__cxx1112basic_stringIcSt11char_traitsIcESaIcEEESF_St4lessISF_EEE
FN:130,_ZN5amgcl7runtime10coarsening7wrapperINS_7backend7builtinINS_13static_matrixIdLi2ELi2EEEEEED2Ev
FN:130,_ZN5amgcl7runtime10coarsening7wrapperINS_7backend7builtinINS_13static_matrixIdLi3ELi3EEEEEED2Ev
FN:130,_ZN5amgcl7runtime10coarsening7wrapperINS_7backend7builtinINS_13static_matrixIdLi4ELi4EEEEEED2Ev
FN:130,_ZN5amgcl7runtime10coarsening7wrapperINS_7backend7builtinIdEEED2Ev
FN:152,_ZN5amgcl7runtime10coarsening7wrapperINS_7backend7builtinINS_13static_matrixIdLi2ELi2EEEEEE18transfer_operatorsINS3_3crsIS6_llEEEESt5tupleIJSt10shared_ptrIT_ESF_EERKSE_
FN:152,_ZN5amgcl7runtime10coarsening7wrapperINS_7backend7builtinINS_13static_matrixIdLi3ELi3EEEEEE18transfer_operatorsINS3_3crsIS6_llEEEESt5tupleIJSt10shared_ptrIT_ESF_EERKSE_
FN:152,_ZN5amgcl7runtime10coarsening7wrapperINS_7backend7builtinINS_13static_matrixIdLi4ELi4EEEEEE18transfer_operatorsINS3_3crsIS6_llEEEESt5tupleIJSt10shared_ptrIT_ESF_EERKSE_
FN:152,_ZN5amgcl7runtime10coarsening7wrapperINS_7backend7builtinIdEEE18transfer_operatorsINS3_3crsIdllEEEESt5tupleIJSt10shared_ptrIT_ESD_EERKSC_
FN:173,_ZNK5amgcl7runtime10coarsening7wrapperINS_7backend7builtinINS_13static_matrixIdLi2ELi2EEEEEE15coarse_operatorINS3_3crsIS6_llEEEESt10shared_ptrIT_ERKSD_SG_SG_
FN:173,_ZNK5amgcl7runtime10coarsening7wrapperINS_7backend7builtinINS_13static_matrixIdLi3ELi3EEEEEE15coarse_operatorINS3_3crsIS6_llEEEESt10shared_ptrIT_ERKSD_SG_SG_
FN:173,_ZNK5amgcl7runtime10coarsening7wrapperINS_7backend7builtinINS_13static_matrixIdLi4ELi4EEEEEE15coarse_operatorINS3_3crsIS6_llEEEESt10shared_ptrIT_ERKSD_SG_SG_
FN:173,_ZNK5amgcl7runtime10coarsening7wrapperINS_7backend7builtinIdEEE15coarse_operatorINS3_3crsIdllEEEESt10shared_ptrIT_ERKSB_SE_SE_
FN:197,_ZN5amgcl7runtime10coarsening7wrapperINS_7backend7builtinINS_13static_matrixIdLi2ELi2EEEEEE16call_constructorINS_10coarsening11aggregationEEENSt9enable_ifIXsrNS3_23coarsening_is_supportedIS7_T_vEE5valueEPvE4typeERKN5boost13property_tree11basic_ptreeINSt7__cxx1112basic_stringIcSt11char_traitsIcESaIcEEESR_St4lessISR_EEE
FN:197,_ZN5amgcl7runtime10coarsening7wrapperINS_7backend7builtinINS_13static_matrixIdLi2ELi2EEEEEE16call_constructorINS_10coarsening18smoothed_aggr_eminEEENSt9enable_ifIXsrNS3_23coarsening_is_supportedIS7_T_vEE5valueEPvE4typeERKN5boost13property_tree11basic_ptreeINSt7__cxx1112basic_stringIcSt11char_traitsIcESaIcEEESR_St4lessISR_EEE
FN:197,_ZN5amgcl7runtime10coarsening7wrapperINS_7backend7builtinINS_13static_matrixIdLi2ELi2EEEEEE16call_constructorINS_10coarsening20smoothed_aggregationEEENSt9enable_ifIXsrNS3_23coarsening_is_supportedIS7_T_vEE5valueEPvE4typeERKN5boost13property_tree11basic_ptreeINSt7__cxx1112basic_stringIcSt11char_traitsIcESaIcEEESR_St4lessISR_EEE
FN:197,_ZN5amgcl7runtime10coarsening7wrapperINS_7backend7builtinINS_13static_matrixIdLi3ELi3EEEEEE16call_constructorINS_10coarsening11aggregationEEENSt9enable_ifIXsrNS3_23coarsening_is_supportedIS7_T_vEE5valueEPvE4typeERKN5boost13property_tree11basic_ptreeINSt7__cxx1112basic_stringIcSt11char_traitsIcESaIcEEESR_St4lessISR_EEE
FN:197,_ZN5amgcl7runtime10coarsening7wrapperINS_7backend7builtinINS_13static_matrixIdLi3ELi3EEEEEE16call_constructorINS_10coarsening18smoothed_aggr_eminEEENSt9enable_ifIXsrNS3_23coarsening_is_supportedIS7_T_vEE5valueEPvE4typeERKN5boost13property_tree11basic_ptreeINSt7__cxx1112basic_stringIcSt11char_traitsIcESaIcEEESR_St4lessISR_EEE
FN:197,_ZN5amgcl7runtime10coarsening7wrapperINS_7backend7builtinINS_13static_matrixIdLi3ELi3EEEEEE16call_constructorINS_10coarsening20smoothed_aggregationEEENSt9enable_ifIXsrNS3_23coarsening_is_supportedIS7_T_vEE5valueEPvE4typeERKN5boost13property_tree11basic_ptreeINSt7__cxx1112basic_stringIcSt11char_traitsIcESaIcEEESR_St4lessISR_EEE
FN:197,_ZN5amgcl7runtime10coarsening7wrapperINS_7backend7builtinINS_13static_matrixIdLi4ELi4EEEEEE16call_constructorINS_10coarsening11aggregationEEENSt9enable_ifIXsrNS3_23coarsening_is_supportedIS7_T_vEE5valueEPvE4typeERKN5boost13property_tree11basic_ptreeINSt7__cxx1112basic_stringIcSt11char_traitsIcESaIcEEESR_St4lessISR_EEE
FN:197,_ZN5amgcl7runtime10coarsening7wrapperINS_7backend7builtinINS_13static_matrixIdLi4ELi4EEEEEE16call_constructorINS_10coarsening18smoothed_aggr_eminEEENSt9enable_ifIXsrNS3_23coarsening_is_supportedIS7_T_vEE5valueEPvE4typeERKN5boost13property_tree11basic_ptreeINSt7__cxx1112basic_stringIcSt11char_traitsIcESaIcEEESR_St4lessISR_EEE
FN:197,_ZN5amgcl7runtime10coarsening7wrapperINS_7backend7builtinINS_13static_matrixIdLi4ELi4EEEEEE16call_constructorINS_10coarsening20smoothed_aggregationEEENSt9enable_ifIXsrNS3_23coarsening_is_supportedIS7_T_vEE5valueEPvE4typeERKN5boost13property_tree11basic_ptreeINSt7__cxx1112basic_stringIcSt11char_traitsIcESaIcEEESR_St4lessISR_EEE
FN:197,_ZN5amgcl7runtime10coarsening7wrapperINS_7backend7builtinIdEEE16call_constructorINS_10coarsening11aggregationEEENSt9enable_ifIXsrNS3_23coarsening_is_supportedIS5_T_vEE5valueEPvE4typeERKN5boost13property_tree11basic_ptreeINSt7__cxx1112basic_stringIcSt11char_traitsIcESaIcEEESP_St4lessISP_EEE
FN:197,_ZN5amgcl7runtime10coarsening7wrapperINS_7backend7builtinIdEEE16call_constructorINS_10coarsening18smoothed_aggr_eminEEENSt9enable_ifIXsrNS3_23coarsening_is_supportedIS5_T_vEE5valueEPvE4typeERKN5boost13property_tree11basic_ptreeINSt7__cxx1112basic_stringIcSt11char_traitsIcESaIcEEESP_St4lessISP_EEE
FN:197,_ZN5amgcl7runtime10coarsening7wrapperINS_7backend7builtinIdEEE16call_constructorINS_10coarsening20smoothed_aggregationEEENSt9enable_ifIXsrNS3_23coarsening_is_supportedIS5_T_vEE5valueEPvE4typeERKN5boost13property_tree11basic_ptreeINSt7__cxx1112basic_stringIcSt11char_traitsIcESaIcEEESP_St4lessISP_EEE
FN:206,_ZN5amgcl7runtime10coarsening7wrapperINS_7backend7builtinINS_13static_matrixIdLi2ELi2EEEEEE16call_constructorINS_10coarsening11ruge_stubenEEENSt9enable_ifIXntsrNS3_23coarsening_is_supportedIS7_T_vEE5valueEPvE4typeERKN5boost13property_tree11basic_ptreeINSt7__cxx1112basic_stringIcSt11char_traitsIcESaIcEEESR_St4lessISR_EEE
FN:206,_ZN5amgcl7runtime10coarsening7wrapperINS_7backend7builtinINS_13static_matrixIdLi3ELi3EEEEEE16call_constructorINS_10coarsening11ruge_stubenEEENSt9enable_ifIXntsrNS3_23coarsening_is_supportedIS7_T_vEE5valueEPvE4typeERKN5boost13property_tree11basic_ptreeINSt7__cxx1112basic_stringIcSt11char_traitsIcESaIcEEESR_St4lessISR_EEE
FN:206,_ZN5amgcl7runtime10coarsening7wrapperINS_7backend7builtinINS_13static_matrixIdLi4ELi4EEEEEE16call_constructorINS_10coarsening11ruge_stubenEEENSt9enable_ifIXntsrNS3_23coarsening_is_supportedIS7_T_vEE5valueEPvE4typeERKN5boost13property_tree11basic_ptreeINSt7__cxx1112basic_stringIcSt11char_traitsIcESaIcEEESR_St4lessISR_EEE
FN:215,_ZN5amgcl7runtime10coarsening7wrapperINS_7backend7builtinINS_13static_matrixIdLi2ELi2EEEEEE15call_destructorINS_10coarsening11aggregationEEENSt9enable_ifIXsrNS3_23coarsening_is_supportedIS7_T_vEE5valueEvE4typeEv
FN:215,_ZN5amgcl7runtime10coarsening7wrapperINS_7backend7builtinINS_13static_matrixIdLi2ELi2EEEEEE15call_destructorINS_10coarsening18smoothed_aggr_eminEEENSt9enable_ifIXsrNS3_23coarsening_is_supportedIS7_T_vEE5valueEvE4typeEv
FN:215,_ZN5amgcl7runtime10coarsening7wrapperINS_7backend7builtinINS_13static_matrixIdLi2ELi2EEEEEE15call_destructorINS_10coarsening20smoothed_aggregationEEENSt9enable_ifIXsrNS3_23coarsening_is_supportedIS7_T_vEE5valueEvE4typeEv
FN:215,_ZN5amgcl7runtime10coarsening7wrapperINS_7backend7builtinINS_13static_matrixIdLi3ELi3EEEEEE15call_destructorINS_10coarsening11aggregationEEENSt9enable_ifIXsrNS3_23coarsening_is_supportedIS7_T_vEE5valueEvE4typeEv
FN:215,_ZN5amgcl7runtime10coarsening7wrapperINS_7backend7builtinINS_13static_matrixIdLi3ELi3EEEEEE15call_destructorINS_10coarsening18smoothed_aggr_eminEEENSt9enable_ifIXsrNS3_23coarsening_is_supportedIS7_T_vEE5valueEvE4typeEv
FN:215,_ZN5amgcl7runtime10coarsening7wrapperINS_7backend7builtinINS_13static_matrixIdLi3ELi3EEEEEE15call_destructorINS_10coarsening20smoothed_aggregationEEENSt9enable_ifIXsrNS3_23coarsening_is_supportedIS7_T_vEE5valueEvE4typeEv
FN:215,_ZN5amgcl7runtime10coarsening7wrapperINS_7backend7builtinINS_13static_matrixIdLi4ELi4EEEEEE15call_destructorINS_10coarsening11aggregationEEENSt9enable_ifIXsrNS3_23coarsening_is_supportedIS7_T_vEE5valueEvE4typeEv
FN:215,_ZN5amgcl7runtime10coarsening7wrapperINS_7backend7builtinINS_13static_matrixIdLi4ELi4EEEEEE15call_destructorINS_10coarsening18smoothed_aggr_eminEEENSt9enable_ifIXsrNS3_23coarsening_is_supportedIS7_T_vEE5valueEvE4typeEv
FN:215,_ZN5amgcl7runtime10coarsening7wrapperINS_7backend7builtinINS_13static_matrixIdLi4ELi4EEEEEE15call_destructorINS_10coarsening20smoothed_aggregationEEENSt9enable_ifIXsrNS3_23coarsening_is_supportedIS7_T_vEE5valueEvE4typeEv
FN:215,_ZN5amgcl7runtime10coarsening7wrapperINS_7backend7builtinIdEEE15call_destructorINS_10coarsening11aggregationEEENSt9enable_ifIXsrNS3_23coarsening_is_supportedIS5_T_vEE5valueEvE4typeEv
FN:215,_ZN5amgcl7runtime10coarsening7wrapperINS_7backend7builtinIdEEE15call_destructorINS_10coarsening18smoothed_aggr_eminEEENSt9enable_ifIXsrNS3_23coarsening_is_supportedIS5_T_vEE5valueEvE4typeEv
FN:215,_ZN5amgcl7runtime10coarsening7wrapperINS_7backend7builtinIdEEE15call_destructorINS_10coarsening20smoothed_aggregationEEENSt9enable_ifIXsrNS3_23coarsening_is_supportedIS5_T_vEE5valueEvE4typeEv
FN:247,_ZN5amgcl7runtime10coarsening7wrapperINS_7backend7builtinINS_13static_matrixIdLi2ELi2EEEEEE14make_operatorsINS_10coarsening11ruge_stubenENS3_3crsIS6_llEEEENSt9enable_ifIXntsrNS3_23coarsening_is_supportedIS7_T_vEE5valueESt5tupleIJSt10shared_ptrIT0_ESL_EEE4typeERKSK_
FN:247,_ZN5amgcl7runtime10coarsening7wrapperINS_7backend7builtinINS_13static_matrixIdLi3ELi3EEEEEE14make_operatorsINS_10coarsening11ruge_stubenENS3_3crsIS6_llEEEENSt9enable_ifIXntsrNS3_23coarsening_is_supportedIS7_T_vEE5valueESt5tupleIJSt10shared_ptrIT0_ESL_EEE4typeERKSK_
FN:247,_ZN5amgcl7runtime10coarsening7wrapperINS_7backend7builtinINS_13static_matrixIdLi4ELi4EEEEEE14make_operatorsINS_10coarsening11ruge_stubenENS3_3crsIS6_llEEEENSt9enable_ifIXntsrNS3_23coarsening_is_supportedIS7_T_vEE5valueESt5tupleIJSt10shared_ptrIT0_ESL_EEE4typeERKSK_
FN:265,_ZNK5amgcl7runtime10coarsening7wrapperINS_7backend7builtinINS_13static_matrixIdLi2ELi2EEEEEE11make_coarseINS_10coarsening11ruge_stubenENS3_3crsIS6_llEEEENSt9enable_ifIXntsrNS3_23coarsening_is_supportedIS7_T_vEE5valueESt10shared_ptrIT0_EE4typeERKSJ_SO_SO_
FN:265,_ZNK5amgcl7runtime10coarsening7wrapperINS_7backend7builtinINS_13static_matrixIdLi3ELi3EEEEEE11make_coarseINS_10coarsening11ruge_stubenENS3_3crsIS6_llEEEENSt9enable_ifIXntsrNS3_23coarsening_is_supportedIS7_T_vEE5valueESt10shared_ptrIT0_EE4typeERKSJ_SO_SO_
FN:265,_ZNK5amgcl7runtime10coarsening7wrapperINS_7backend7builtinINS_13static_matrixIdLi4ELi4EEEEEE11make_coarseINS_10coarsening11ruge_stubenENS3_3crsIS6_llEEEENSt9enable_ifIXntsrNS3_23coarsening_is_supportedIS7_T_vEE5valueESt10shared_ptrIT0_EE4typeERKSJ_SO_SO_
FNDA:0,_ZN5amgcl7runtime10coarsening7wrapperINS_7backend7builtinINS_13static_matrixIdLi2ELi2EEEEEE14make_operatorsINS_10coarsening11ruge_stubenENS3_3crsIS6_llEEEENSt9enable_ifIXntsrNS3_23coarsening_is_supportedIS7_T_vEE5valueESt5tupleIJSt10shared_ptrIT0_ESL_EEE4typeERKSK_
FNDA:0,_ZN5amgcl7runtime10coarsening7wrapperINS_7backend7builtinINS_13static_matrixIdLi2ELi2EEEEEE15call_destructorINS_10coarsening11aggregationEEENSt9enable_ifIXsrNS3_23coarsening_is_supportedIS7_T_vEE5valueEvE4typeEv
FNDA:0,_ZN5amgcl7runtime10coarsening7wrapperINS_7backend7builtinINS_13static_matrixIdLi2ELi2EEEEEE15call_destructorINS_10coarsening18smoothed_aggr_eminEEENSt9enable_ifIXsrNS3_23coarsening_is_supportedIS7_T_vEE5valueEvE4typeEv
FNDA:0,_ZN5amgcl7runtime10coarsening7wrapperINS_7backend7builtinINS_13static_matrixIdLi2ELi2EEEEEE15call_destructorINS_10coarsening20smoothed_aggregationEEENSt9enable_ifIXsrNS3_23coarsening_is_supportedIS7_T_vEE5valueEvE4typeEv
FNDA:0,_ZN5amgcl7runtime10coarsening7wrapperINS_7backend7builtinINS_13static_matrixIdLi2ELi2EEEEEE16call_constructorINS_10coarsening11aggregationEEENSt9enable_ifIXsrNS3_23coarsening_is_supportedIS7_T_vEE5valueEPvE4typeERKN5boost13property_tree11basic_ptreeINSt7__cxx1112basic_stringIcSt11char_traitsIcESaIcEEESR_St4lessISR_EEE
FNDA:0,_ZN5amgcl7runtime10coarsening7wrapperINS_7backend7builtinINS_13static_matrixIdLi2ELi2EEEEEE16call_constructorINS_10coarsening11ruge_stubenEEENSt9enable_ifIXntsrNS3_23coarsening_is_supportedIS7_T_vEE5valueEPvE4typeERKN5boost13property_tree11basic_ptreeINSt7__cxx1112basic_stringIcSt11char_traitsIcESaIcEEESR_St4lessISR_EEE
FNDA:0,_ZN5amgcl7runtime10coarsening7wrapperINS_7backend7builtinINS_13static_matrixIdLi2ELi2EEEEEE16call_constructorINS_10coarsening18smoothed_aggr_eminEEENSt9enable_ifIXsrNS3_23coarsening_is_supportedIS7_T_vEE5valueEPvE4typeERKN5boost13property_tree11basic_ptreeINSt7__cxx1112basic_stringIcSt11char_traitsIcESaIcEEESR_St4lessISR_EEE
FNDA:0,_ZN5amgcl7runtime10coarsening7wrapperINS_7backend7builtinINS_13static_matrixIdLi2ELi2EEEEEE16call_constructorINS_10coarsening20smoothed_aggregationEEENSt9enable_ifIXsrNS3_23coarsening_is_supportedIS7_T_vEE5valueEPvE4typeERKN5boost13property_tree11basic_ptreeINSt7__cxx1112basic_stringIcSt11char_traitsIcESaIcEEESR_St4lessISR_EEE
FNDA:0,_ZN5amgcl7runtime10coarsening7wrapperINS_7backend7builtinINS_13static_matrixIdLi2ELi2EEEEEE18transfer_operatorsINS3_3crsIS6_llEEEESt5tupleIJSt10shared_ptrIT_ESF_EERKSE_
FNDA:0,_ZN5amgcl7runtime10coarsening7wrapperINS_7backend7builtinINS_13static_matrixIdLi2ELi2EEEEEEC2EN5boost13property_tree11basic_ptreeINSt7__cxx1112basic_stringIcSt11char_traitsIcESaIcEEESH_St4lessISH_EEE
FNDA:0,_ZN5amgcl7runtime10coarsening7wrapperINS_7backend7builtinINS_13static_matrixIdLi2ELi2EEEEEED2Ev
FNDA:0,_ZN5amgcl7runtime10coarsening7wrapperINS_7backend7builtinINS_13static_matrixIdLi3ELi3EEEEEE14make_operatorsINS_10coarsening11ruge_stubenENS3_3crsIS6_llEEEENSt9enable_ifIXntsrNS3_23coarsening_is_supportedIS7_T_vEE5valueESt5tupleIJSt10shared_ptrIT0_ESL_EEE4typeERKSK_
FNDA:0,_ZN5amgcl7runtime10coarsening7wrapperINS_7backend7builtinINS_13static_matrixIdLi3ELi3EEEEEE15call_destructorINS_10coarsening11aggregationEEENSt9enable_ifIXsrNS3_23coarsening_is_supportedIS7_T_vEE5valueEvE4typeEv
FNDA:0,_ZN5amgcl7runtime10coarsening7wrapperINS_7backend7builtinINS_13static_matrixIdLi3ELi3EEEEEE15call_destructorINS_10coarsening18smoothed_aggr_eminEEENSt9enable_ifIXsrNS3_23coarsening_is_supportedIS7_T_vEE5valueEvE4typeEv
FNDA:0,_ZN5amgcl7runtime10coarsening7wrapperINS_7backend7builtinINS_13static_matrixIdLi3ELi3EEEEEE15call_destructorINS_10coarsening20smoothed_aggregationEEENSt9enable_ifIXsrNS3_23coarsening_is_supportedIS7_T_vEE5valueEvE4typeEv
FNDA:0,_ZN5amgcl7runtime10coarsening7wrapperINS_7backend7builtinINS_13static_matrixIdLi3ELi3EEEEEE16call_constructorINS_10coarsening11aggregationEEENSt9enable_ifIXsrNS3_23coarsening_is_supportedIS7_T_vEE5valueEPvE4typeERKN5boost13property_tree11basic_ptreeINSt7__cxx1112basic_stringIcSt11char_traitsIcESaIcEEESR_St4lessISR_EEE
FNDA:0,_ZN5amgcl7runtime10coarsening7wrapperINS_7backend7builtinINS_13static_matrixIdLi3ELi3EEEEEE16call_constructorINS_10coarsening11ruge_stubenEEENSt9enable_ifIXntsrNS3_23coarsening_is_supportedIS7_T_vEE5valueEPvE4typeERKN5boost13property_tree11basic_ptreeINSt7__cxx1112basic_stringIcSt11char_traitsIcESaIcEEESR_St4lessISR_EEE
FNDA:0,_ZN5amgcl7runtime10coarsening7wrapperINS_7backend7builtinINS_13static_matrixIdLi3ELi3EEEEEE16call_constructorINS_10coarsening18smoothed_aggr_eminEEENSt9enable_ifIXsrNS3_23coarsening_is_supportedIS7_T_vEE5valueEPvE4typeERKN5boost13property_tree11basic_ptreeINSt7__cxx1112basic_stringIcSt11char_traitsIcESaIcEEESR_St4lessISR_EEE
FNDA:0,_ZN5amgcl7runtime10coarsening7wrapperINS_7backend7builtinINS_13static_matrixIdLi3ELi3EEEEEE16call_constructorINS_10coarsening20smoothed_aggregationEEENSt9enable_ifIXsrNS3_23coarsening_is_supportedIS7_T_vEE5valueEPvE4typeERKN5boost13property_tree11basic_ptreeINSt7__cxx1112basic_stringIcSt11char_traitsIcESaIcEEESR_St4lessISR_EEE
FNDA:0,_ZN5amgcl7runtime10coarsening7wrapperINS_7backend7builtinINS_13static_matrixIdLi3ELi3EEEEEE18transfer_operatorsINS3_3crsIS6_llEEEESt5tupleIJSt10shared_ptrIT_ESF_EERKSE_
FNDA:0,_ZN5amgcl7runtime10coarsening7wrapperINS_7backend7builtinINS_13static_matrixIdLi3ELi3EEEEEEC2EN5boost13property_tree11basic_ptreeINSt7__cxx1112basic_stringIcSt11char_traitsIcESaIcEEESH_St4lessISH_EEE
FNDA:0,_ZN5amgcl7runtime10coarsening7wrapperINS_7backend7builtinINS_13static_matrixIdLi3ELi3EEEEEED2Ev
FNDA:0,_ZN5amgcl7runtime10coarsening7wrapperINS_7backend7builtinINS_13static_matrixIdLi4ELi4EEEEEE14make_operatorsINS_10coarsening11ruge_stubenENS3_3crsIS6_llEEEENSt9enable_ifIXntsrNS3_23coarsening_is_supportedIS7_T_vEE5valueESt5tupleIJSt10shared_ptrIT0_ESL_EEE4typeERKSK_
FNDA:0,_ZN5amgcl7runtime10coarsening7wrapperINS_7backend7builtinINS_13static_matrixIdLi4ELi4EEEEEE15call_destructorINS_10coarsening11aggregationEEENSt9enable_ifIXsrNS3_23coarsening_is_supportedIS7_T_vEE5valueEvE4typeEv
FNDA:0,_ZN5amgcl7runtime10coarsening7wrapperINS_7backend7builtinINS_13static_matrixIdLi4ELi4EEEEEE15call_destructorINS_10coarsening18smoothed_aggr_eminEEENSt9enable_ifIXsrNS3_23coarsening_is_supportedIS7_T_vEE5valueEvE4typeEv
FNDA:0,_ZN5amgcl7runtime10coarsening7wrapperINS_7backend7builtinINS_13static_matrixIdLi4ELi4EEEEEE15call_destructorINS_10coarsening20smoothed_aggregationEEENSt9enable_ifIXsrNS3_23coarsening_is_supportedIS7_T_vEE5valueEvE4typeEv
FNDA:0,_ZN5amgcl7runtime10coarsening7wrapperINS_7backend7builtinINS_13static_matrixIdLi4ELi4EEEEEE16call_constructorINS_10coarsening11aggregationEEENSt9enable_ifIXsrNS3_23coarsening_is_supportedIS7_T_vEE5valueEPvE4typeERKN5boost13property_tree11basic_ptreeINSt7__cxx1112basic_stringIcSt11char_traitsIcESaIcEEESR_St4lessISR_EEE
FNDA:0,_ZN5amgcl7runtime10coarsening7wrapperINS_7backend7builtinINS_13static_matrixIdLi4ELi4EEEEEE16call_constructorINS_10coarsening11ruge_stubenEEENSt9enable_ifIXntsrNS3_23coarsening_is_supportedIS7_T_vEE5valueEPvE4typeERKN5boost13property_tree11basic_ptreeINSt7__cxx1112basic_stringIcSt11char_traitsIcESaIcEEESR_St4lessISR_EEE
FNDA:0,_ZN5amgcl7runtime10coarsening7wrapperINS_7backend7builtinINS_13static_matrixIdLi4ELi4EEEEEE16call_constructorINS_10coarsening18smoothed_aggr_eminEEENSt9enable_ifIXsrNS3_23coarsening_is_supportedIS7_T_vEE5valueEPvE4typeERKN5boost13property_tree11basic_ptreeINSt7__cxx1112basic_stringIcSt11char_traitsIcESaIcEEESR_St4lessISR_EEE
FNDA:0,_ZN5amgcl7runtime10coarsening7wrapperINS_7backend7builtinINS_13static_matrixIdLi4ELi4EEEEEE16call_constructorINS_10coarsening20smoothed_aggregationEEENSt9enable_ifIXsrNS3_23coarsening_is_supportedIS7_T_vEE5valueEPvE4typeERKN5boost13property_tree11basic_ptreeINSt7__cxx1112basic_stringIcSt11char_traitsIcESaIcEEESR_St4lessISR_EEE
FNDA:0,_ZN5amgcl7runtime10coarsening7wrapperINS_7backend7builtinINS_13static_matrixIdLi4ELi4EEEEEE18transfer_operatorsINS3_3crsIS6_llEEEESt5tupleIJSt10shared_ptrIT_ESF_EERKSE_
FNDA:0,_ZN5amgcl7runtime10coarsening7wrapperINS_7backend7builtinINS_13static_matrixIdLi4ELi4EEEEEEC2EN5boost13property_tree11basic_ptreeINSt7__cxx1112basic_stringIcSt11char_traitsIcESaIcEEESH_St4lessISH_EEE
FNDA:0,_ZN5amgcl7runtime10coarsening7wrapperINS_7backend7builtinINS_13static_matrixIdLi4ELi4EEEEEED2Ev
FNDA:0,_ZN5amgcl7runtime10coarsening7wrapperINS_7backend7builtinIdEEE15call_destructorINS_10coarsening11aggregationEEENSt9enable_ifIXsrNS3_23coarsening_is_supportedIS5_T_vEE5valueEvE4typeEv
FNDA:0,_ZN5amgcl7runtime10coarsening7wrapperINS_7backend7builtinIdEEE15call_destructorINS_10coarsening18smoothed_aggr_eminEEENSt9enable_ifIXsrNS3_23coarsening_is_supportedIS5_T_vEE5valueEvE4typeEv
FNDA:0,_ZN5amgcl7runtime10coarsening7wrapperINS_7backend7builtinIdEEE15call_destructorINS_10coarsening20smoothed_aggregationEEENSt9enable_ifIXsrNS3_23coarsening_is_supportedIS5_T_vEE5valueEvE4typeEv
FNDA:0,_ZN5amgcl7runtime10coarsening7wrapperINS_7backend7builtinIdEEE16call_constructorINS_10coarsening11aggregationEEENSt9enable_ifIXsrNS3_23coarsening_is_supportedIS5_T_vEE5valueEPvE4typeERKN5boost13property_tree11basic_ptreeINSt7__cxx1112basic_stringIcSt11char_traitsIcESaIcEEESP_St4lessISP_EEE
FNDA:0,_ZN5amgcl7runtime10coarsening7wrapperINS_7backend7builtinIdEEE16call_constructorINS_10coarsening18smoothed_aggr_eminEEENSt9enable_ifIXsrNS3_23coarsening_is_supportedIS5_T_vEE5valueEPvE4typeERKN5boost13property_tree11basic_ptreeINSt7__cxx1112basic_stringIcSt11char_traitsIcESaIcEEESP_St4lessISP_EEE
FNDA:0,_ZN5amgcl7runtime10coarsening7wrapperINS_7backend7builtinIdEEE16call_constructorINS_10coarsening20smoothed_aggregationEEENSt9enable_ifIXsrNS3_23coarsening_is_supportedIS5_T_vEE5valueEPvE4typeERKN5boost13property_tree11basic_ptreeINSt7__cxx1112basic_stringIcSt11char_traitsIcESaIcEEESP_St4lessISP_EEE
FNDA:0,_ZN5amgcl7runtime10coarsening7wrapperINS_7backend7builtinIdEEE18transfer_operatorsINS3_3crsIdllEEEESt5tupleIJSt10shared_ptrIT_ESD_EERKSC_
FNDA:0,_ZN5amgcl7runtime10coarsening7wrapperINS_7backend7builtinIdEEEC2EN5boost13property_tree11basic_ptreeINSt7__cxx1112basic_stringIcSt11char_traitsIcESaIcEEESF_St4lessISF_EEE
FNDA:0,_ZN5amgcl7runtime10coarsening7wrapperINS_7backend7builtinIdEEED2Ev
FNDA:0,_ZN5amgcl7runtime10coarseningrsERSiRNS1_4typeE
FNDA:0,_ZNK5amgcl7runtime10coarsening7wrapperINS_7backend7builtinINS_13static_matrixIdLi2ELi2EEEEEE11make_coarseINS_10coarsening11ruge_stubenENS3_3crsIS6_llEEEENSt9enable_ifIXntsrNS3_23coarsening_is_supportedIS7_T_vEE5valueESt10shared_ptrIT0_EE4typeERKSJ_SO_SO_
FNDA:0,_ZNK5amgcl7runtime10coarsening7wrapperINS_7backend7builtinINS_13static_matrixIdLi2ELi2EEEEEE15coarse_operatorINS3_3crsIS6_llEEEESt10shared_ptrIT_ERKSD_SG_SG_
FNDA:0,_ZNK5amgcl7runtime10coarsening7wrapperINS_7backend7builtinINS_13static_matrixIdLi3ELi3EEEEEE11make_coarseINS_10coarsening11ruge_stubenENS3_3crsIS6_llEEEENSt9enable_ifIXntsrNS3_23coarsening_is_supportedIS7_T_vEE5valueESt10shared_ptrIT0_EE4typeERKSJ_SO_SO_
FNDA:0,_ZNK5amgcl7runtime10coarsening7wrapperINS_7backend7builtinINS_13static_matrixIdLi3ELi3EEEEEE15coarse_operatorINS3_3crsIS6_llEEEESt10shared_ptrIT_ERKSD_SG_SG_
FNDA:0,_ZNK5amgcl7runtime10coarsening7wrapperINS_7backend7builtinINS_13static_matrixIdLi4ELi4EEEEEE11make_coarseINS_10coarsening11ruge_stubenENS3_3crsIS6_llEEEENSt9enable_ifIXntsrNS3_23coarsening_is_supportedIS7_T_vEE5valueESt10shared_ptrIT0_EE4typeERKSJ_SO_SO_
FNDA:0,_ZNK5amgcl7runtime10coarsening7wrapperINS_7backend7builtinINS_13static_matrixIdLi4ELi4EEEEEE15coarse_operatorINS3_3crsIS6_llEEEESt10shared_ptrIT_ERKSD_SG_SG_
FNDA:0,_ZNK5amgcl7runtime10coarsening7wrapperINS_7backend7builtinIdEEE15coarse_operatorINS3_3crsIdllEEEESt10shared_ptrIT_ERKSB_SE_SE_
FNF:50
FNH:0
DA:79,0
DA:82,0
DA:84,0
DA:85,0
DA:86,0
DA:87,0
DA:88,0
DA:89,0
DA:90,0
DA:91,0
DA:93,0
DA:94,0
DA:96,0
DA:105,0
DA:106,0
DA:107,0
DA:109,0
DA:111,0
DA:118,0
DA:119,0
DA:120,0
DA:121,0
DA:125,0
DA:126,0
DA:128,0
DA:130,0
DA:131,0
DA:139,0
DA:140,0
DA:141,0
DA:145,0
DA:152,0
DA:153,0
DA:159,0
DA:160,0
DA:161,0
DA:162,0
DA:166,0
DA:167,0
DA:173,0
DA:174,0
DA:180,0
DA:181,0
DA:182,0
DA:183,0
DA:187,0
DA:188,0
DA:197,0
DA:198,0
DA:206,0
DA:207,0
DA:215,0
DA:216,0
DA:217,0
DA:236,0
DA:247,0
DA:248,0
DA:257,0
DA:265,0
DA:266,0
LF:60
LH:0
end_of_record
TN:
SF:/root/Kratos/external_libraries/amgcl/coarsening/smoothed_aggr_emin.hpp
FN:69,_ZN5amgcl10coarsening18smoothed_aggr_eminINS_7backend7builtinINS_13static_matrixIdLi2ELi2EEEEEE6paramsC2ERKN5boost13property_tree11basic_ptreeINSt7__cxx1112basic_stringIcSt11char_traitsIcESaIcEEESH_St4lessISH_EEE
FN:69,_ZN5amgcl10coarsening18smoothed_aggr_eminINS_7backend7builtinINS_13static_matrixIdLi3ELi3EEEEEE6paramsC2ERKN5boost13property_tree11basic_ptreeINSt7__cxx1112basic_stringIcSt11char_traitsIcESaIcEEESH_St4lessISH_EEE
FN:69,_ZN5amgcl10coarsening18smoothed_aggr_eminINS_7backend7builtinINS_13static_matrixIdLi4ELi4EEEEEE6paramsC2ERKN5boost13property_tree11basic_ptreeINSt7__cxx1112basic_stringIcSt11char_traitsIcESaIcEEESH_St4lessISH_EEE
FN:69,_ZN5amgcl10coarsening18smoothed_aggr_eminINS_7backend7builtinIdEEE6paramsC2ERKN5boost13property_tree11basic_ptreeINSt7__cxx1112basic_stringIcSt11char_traitsIcESaIcEEESF_St4lessISF_EEE
FN:91,_ZN5amgcl10coarsening18smoothed_aggr_eminINS_7backend7builtinINS_13static_matrixIdLi2ELi2EEEEEE18transfer_operatorsINS2_3crsIS5_llEEEESt5tupleIJSt10shared_ptrIT_ESE_EERKSD_
FN:91,_ZN5amgcl10coarsening18smoothed_aggr_eminINS_7backend7builtinINS_13static_matrixIdLi3ELi3EEEEEE18transfer_operatorsINS2_3crsIS5_llEEEESt5tupleIJSt10shared_ptrIT_ESE_EERKSD_
FN:91,_ZN5amgcl10coarsening18smoothed_aggr_eminINS_7backend7builtinINS_13static_matrixIdLi4ELi4EEEEEE18transfer_operatorsINS2_3crsIS5_llEEEESt5tupleIJSt10shared_ptrIT_ESE_EERKSD_
FN:91,_ZN5amgcl10coarsening18smoothed_aggr_eminINS_7backend7builtinIdEEE18transfer_operatorsINS2_3crsIdllEEEESt5tupleIJSt10shared_ptrIT_ESC_EERKSB_
FN:179,_ZN5amgcl10coarsening18smoothed_aggr_eminINS_7backend7builtinINS_13static_matrixIdLi2ELi2EEEEEE13interpolationINS2_3crsIS5_llEES5_llEESt10shared_ptrINS9_IT0_T1_T2_EEERKT_RKSt6vectorISC_SaISC_EERKSF_RSM_
FN:179,_ZN5amgcl10coarsening18smoothed_aggr_eminINS_7backend7builtinINS_13static_matrixIdLi3ELi3EEEEEE13interpolationINS2_3crsIS5_llEES5_llEESt10shared_ptrINS9_IT0_T1_T2_EEERKT_RKSt6vectorISC_SaISC_EERKSF_RSM_
FN:179,_ZN5amgcl10coarsening18smoothed_aggr_eminINS_7backend7builtinINS_13static_matrixIdLi4ELi4EEEEEE13interpolationINS2_3crsIS5_llEES5_llEESt10shared_ptrINS9_IT0_T1_T2_EEERKT_RKSt6vectorISC_SaISC_EERKSF_RSM_
FN:179,_ZN5amgcl10coarsening18smoothed_aggr_eminINS_7backend7builtinIdEEE13interpolationINS2_3crsIdllEEdllEESt10shared_ptrINS7_IT0_T1_T2_EEERKT_RKSt6vectorISA_SaISA_EERKSD_RSK_
FN:308,_ZN5amgcl10coarsening18smoothed_aggr_eminINS_7backend7builtinINS_13static_matrixIdLi2ELi2EEEEEE11restrictionINS2_3crsIS5_llEES5_llEESt10shared_ptrINS9_IT0_T1_T2_EEERKT_RKSt6vectorISC_SaISC_EERKSF_SO_
FN:308,_ZN5amgcl10coarsening18smoothed_aggr_eminINS_7backend7builtinINS_13static_matrixIdLi3ELi3EEEEEE11restrictionINS2_3crsIS5_llEES5_llEESt10shared_ptrINS9_IT0_T1_T2_EEERKT_RKSt6vectorISC_SaISC_EERKSF_SO_
FN:308,_ZN5amgcl10coarsening18smoothed_aggr_eminINS_7backend7builtinINS_13static_matrixIdLi4ELi4EEEEEE11restrictionINS2_3crsIS5_llEES5_llEESt10shared_ptrINS9_IT0_T1_T2_EEERKT_RKSt6vectorISC_SaISC_EERKSF_SO_
FN:308,_ZN5amgcl10coarsening18smoothed_aggr_eminINS_7backend7builtinIdEEE11restrictionINS2_3crsIdllEEdllEESt10shared_ptrINS7_IT0_T1_T2_EEERKT_RKSt6vectorISA_SaISA_EERKSD_SM_
FNDA:0,_ZN5amgcl10coarsening18smoothed_aggr_eminINS_7backend7builtinINS_13static_matrixIdLi2ELi2EEEEEE11restrictionINS2_3crsIS5_llEES5_llEESt10shared_ptrINS9_IT0_T1_T2_EEERKT_RKSt6vectorISC_SaISC_EERKSF_SO_
FNDA:0,_ZN5amgcl10coarsening18smoothed_aggr_eminINS_7backend7builtinINS_13static_matrixIdLi2ELi2EEEEEE13interpolationINS2_3crsIS5_llEES5_llEESt10shared_ptrINS9_IT0_T1_T2_EEERKT_RKSt6vectorISC_SaISC_EERKSF_RSM_
FNDA:0,_ZN5amgcl10coarsening18smoothed_aggr_eminINS_7backend7builtinINS_13static_matrixIdLi2ELi2EEEEEE18transfer_operatorsINS2_3crsIS5_llEEEESt5tupleIJSt10shared_ptrIT_ESE_EERKSD_
FNDA:0,_ZN5amgcl10coarsening18smoothed_aggr_eminINS_7backend7builtinINS_13static_matrixIdLi2ELi2EEEEEE6paramsC2ERKN5boost13property_tree11basic_ptreeINSt7__cxx1112basic_stringIcSt11char_traitsIcESaIcEEESH_St4lessISH_EEE
FNDA:0,_ZN5amgcl10coarsening18smoothed_aggr_eminINS_7backend7builtinINS_13static_matrixIdLi3ELi3EEEEEE11restrictionINS2_3crsIS5_llEES5_llEESt10shared_ptrINS9_IT0_T1_T2_EEERKT_RKSt6vectorISC_SaISC_EERKSF_SO_
FNDA:0,_ZN5amgcl10coarsening18smoothed_aggr_eminINS_7backend7builtinINS_13static_matrixIdLi3ELi3EEEEEE13interpolationINS2_3crsIS5_llEES5_llEESt10shared_ptrINS9_IT0_T1_T2_EEERKT_RKSt6vectorISC_SaISC_EERKSF_RSM_
FNDA:0,_ZN5amgcl10coarsening18smoothed_aggr_eminINS_7backend7builtinINS_13static_matrixIdLi3ELi3EEEEEE18transfer_operatorsINS2_3crsIS5_llEEEESt5tupleIJSt10shared_ptrIT_ESE_EERKSD_
FNDA:0,_ZN5amgcl10coarsening18smoothed_aggr_eminINS_7backend7builtinINS_13static_matrixIdLi3ELi3EEEEEE6paramsC2ERKN5boost13property_tree11basic_ptreeINSt7__cxx1112basic_stringIcSt11char_traitsIcESaIcEEESH_St4lessISH_EEE
FNDA:0,_ZN5amgcl10coarsening18smoothed_aggr_eminINS_7backend7builtinINS_13static_matrixIdLi4ELi4EEEEEE11restrictionINS2_3crsIS5_llEES5_llEESt10shared_ptrINS9_IT0_T1_T2_EEERKT_RKSt6vectorISC_SaISC_EERKSF_SO_
FNDA:0,_ZN5amgcl10coarsening18smoothed_aggr_eminINS_7backend7builtinINS_13static_matrixIdLi4ELi4EEEEEE13interpolationINS2_3crsIS5_llEES5_llEESt10shared_ptrINS9_IT0_T1_T2_EEERKT_RKSt6vectorISC_SaISC_EERKSF_RSM_
FNDA:0,_ZN5amgcl10coarsening18smoothed_aggr_eminINS_7backend7builtinINS_13static_matrixIdLi4ELi4EEEEEE18transfer_operatorsINS2_3crsIS5_llEEEESt5tupleIJSt10shared_ptrIT_ESE_EERKSD_
FNDA:0,_ZN5amgcl10coarsening18smoothed_aggr_eminINS_7backend7builtinINS_13static_matrixIdLi4ELi4EEEEEE6paramsC2ERKN5boost13property_tree11basic_ptreeINSt7__cxx1112basic_stringIcSt11char_traitsIcESaIcEEESH_St4lessISH_EEE
FNDA:0,_ZN5amgcl10coarsening18smoothed_aggr_eminINS_7backend7builtinIdEEE11restrictionINS2_3crsIdllEEdllEESt10shared_ptrINS7_IT0_T1_T2_EEERKT_RKSt6vectorISA_SaISA_EERKSD_SM_
FNDA:0,_ZN5amgcl10coarsening18smoothed_aggr_eminINS_7backend7builtinIdEEE13interpolationINS2_3crsIdllEEdllEESt10shared_ptrINS7_IT0_T1_T2_EEERKT_RKSt6vectorISA_SaISA_EERKSD_RSK_
FNDA:0,_ZN5amgcl10coarsening18smoothed_aggr_eminINS_7backend7builtinIdEEE18transfer_operatorsINS2_3crsIdllEEEESt5tupleIJSt10shared_ptrIT_ESC_EERKSB_
FNDA:0,_ZN5amgcl10coarsening18smoothed_aggr_eminINS_7backend7builtinIdEEE6paramsC2ERKN5boost13property_tree11basic_ptreeINSt7__cxx1112basic_stringIcSt11char_traitsIcESaIcEEESF_St4lessISF_EEE
FNF:16
FNH:0
DA:55,0
DA:59,0
DA:69,0
DA:70,0
DA:71,0
DA:73,0
DA:74,0
DA:83,0
DA:91,0
DA:96,0
DA:97,0
DA:101,0
DA:102,0
DA:107,0
DA:108,0
DA:110,0
DA:112,0
DA:135,0
DA:137,0
DA:160,0
DA:161,0
DA:164,0
DA:165,0
DA:167,0
DA:168,0
DA:173,0
DA:179,0
DA:188,0
DA:190,0
DA:191,0
DA:193,0
DA:266,0
DA:267,0
DA:276,0
DA:303,0
DA:308,0
DA:316,0
DA:319,0
DA:328,0
DA:355,0
LF:40
LH:0
end_of_record
TN:
SF:/root/Kratos/external_libraries/amgcl/coarsening/smoothed_aggregation.hpp
FN:107,_ZN5amgcl10coarsening20smoothed_aggregationINS_7backend7builtinINS_13static_matrixIdLi2ELi2EEEEEE6paramsC2ERKN5boost13property_tree11basic_ptreeINSt7__cxx1112basic_stringIcSt11char_traitsIcESaIcEEESH_St4lessISH_EEE
FN:107,_ZN5amgcl10coarsening20smoothed_aggregationINS_7backend7builtinINS_13static_matrixIdLi3ELi3EEEEEE6paramsC2ERKN5boost13property_tree11basic_ptreeINSt7__cxx1112basic_stringIcSt11char_traitsIcESaIcEEESH_St4lessISH_EEE
FN:107,_ZN5amgcl10coarsening20smoothed_aggregationINS_7backend7builtinINS_13static_matrixIdLi4ELi4EEEEEE6paramsC2ERKN5boost13property_tree11basic_ptreeINSt7__cxx1112basic_stringIcSt11char_traitsIcESaIcEEESH_St4lessISH_EEE
FN:107,_ZN5amgcl10coarsening20smoothed_aggregationINS_7backend7builtinIdEEE6paramsC2ERKN5boost13property_tree11basic_ptreeINSt7__cxx1112basic_stringIcSt11char_traitsIcESaIcEEESF_St4lessISF_EEE
FN:132,_ZN5amgcl10coarsening20smoothed_aggregationINS_7backend7builtinINS_13static_matrixIdLi2ELi2EEEEEE18transfer_operatorsINS2_3crsIS5_llEEEESt5tupleIJSt10shared_ptrIT_ESE_EERKSD_
FN:132,_ZN5amgcl10coarsening20smoothed_aggregationINS_7backend7builtinINS_13static_matrixIdLi3ELi3EEEEEE18transfer_operatorsINS2_3crsIS5_llEEEESt5tupleIJSt10shared_ptrIT_ESE_EERKSD_
FN:132,_ZN5amgcl10coarsening20smoothed_aggregationINS_7backend7builtinINS_13static_matrixIdLi4ELi4EEEEEE18transfer_operatorsINS2_3crsIS5_llEEEESt5tupleIJSt10shared_ptrIT_ESE_EERKSD_
FN:132,_ZN5amgcl10coarsening20smoothed_aggregationINS_7backend7builtinIdEEE18transfer_operatorsINS2_3crsIdllEEEESt5tupleIJSt10shared_ptrIT_ESC_EERKSB_
FNDA:0,_ZN5amgcl10coarsening20smoothed_aggregationINS_7backend7builtinINS_13static_matrixIdLi2ELi2EEEEEE18transfer_operatorsINS2_3crsIS5_llEEEESt5tupleIJSt10shared_ptrIT_ESE_EERKSD_
FNDA:0,_ZN5amgcl10coarsening20smoothed_aggregationINS_7backend7builtinINS_13static_matrixIdLi2ELi2EEEEEE6paramsC2ERKN5boost13property_tree11basic_ptreeINSt7__cxx1112basic_stringIcSt11char_traitsIcESaIcEEESH_St4lessISH_EEE
FNDA:0,_ZN5amgcl10coarsening20smoothed_aggregationINS_7backend7builtinINS_13static_matrixIdLi3ELi3EEEEEE18transfer_operatorsINS2_3crsIS5_llEEEESt5tupleIJSt10shared_ptrIT_ESE_EERKSD_
FNDA:0,_ZN5amgcl10coarsening20smoothed_aggregationINS_7backend7builtinINS_13static_matrixIdLi3ELi3EEEEEE6paramsC2ERKN5boost13property_tree11basic_ptreeINSt7__cxx1112basic_stringIcSt11char_traitsIcESaIcEEESH_St4lessISH_EEE
FNDA:0,_ZN5amgcl10coarsening20smoothed_aggregationINS_7backend7builtinINS_13static_matrixIdLi4ELi4EEEEEE18transfer_operatorsINS2_3crsIS5_llEEEESt5tupleIJSt10shared_ptrIT_ESE_EERKSD_
FNDA:0,_ZN5amgcl10coarsening20smoothed_aggregationINS_7backend7builtinINS_13static_matrixIdLi4ELi4EEEEEE6paramsC2ERKN5boost13property_tree11basic_ptreeINSt7__cxx1112basic_stringIcSt11char_traitsIcESaIcEEESH_St4lessISH_EEE
FNDA:0,_ZN5amgcl10coarsening20smoothed_aggregationINS_7backend7builtinIdEEE18transfer_operatorsINS2_3crsIdllEEEESt5tupleIJSt10shared_ptrIT_ESC_EERKSB_
FNDA:0,_ZN5amgcl10coarsening20smoothed_aggregationINS_7backend7builtinIdEEE6paramsC2ERKN5boost13property_tree11basic_ptreeINSt7__cxx1112basic_stringIcSt11char_traitsIcESaIcEEESF_St4lessISF_EEE
FNF:8
FNH:0
DA:56,0
DA:60,0
DA:104,0
DA:107,0
DA:108,0
DA:109,0
DA:110,0
DA:111,0
DA:112,0
DA:114,0
DA:115,0
DA:127,0
DA:132,0
DA:139,0
DA:140,0
DA:143,0
DA:144,0
DA:148,0
DA:150,0
DA:151,0
DA:152,0
DA:154,0
DA:158,0
DA:184,0
DA:185,0
DA:187,0
DA:234,0
DA:235,0
DA:237,0
DA:238,0
DA:244,0
LF:31
LH:0
end_of_record
TN:
SF:/root/Kratos/external_libraries/amgcl/coarsening/tentative_prolongation.hpp
FN:77,_ZN5amgcl10coarsening16nullspace_paramsC2ERKN5boost13property_tree11basic_ptreeINSt7__cxx1112basic_stringIcSt11char_traitsIcESaIcEEESA_St4lessISA_EEE
FN:120,_ZN5amgcl10coarsening22tentative_prolongationINS_7backend3crsINS_13static_matrixIdLi2ELi2EEEllEEEESt10shared_ptrIT_EmmSt6vectorIlSaIlEERNS0_16nullspace_paramsEi
FN:120,_ZN5amgcl10coarsening22tentative_prolongationINS_7backend3crsINS_13static_matrixIdLi3ELi3EEEllEEEESt10shared_ptrIT_EmmSt6vectorIlSaIlEERNS0_16nullspace_paramsEi
FN:120,_ZN5amgcl10coarsening22tentative_prolongationINS_7backend3crsINS_13static_matrixIdLi4ELi4EEEllEEEESt10shared_ptrIT_EmmSt6vectorIlSaIlEERNS0_16nullspace_paramsEi
FN:120,_ZN5amgcl10coarsening22tentative_prolongationINS_7backend3crsIdllEEEESt10shared_ptrIT_EmmSt6vectorIlSaIlEERNS0_16nullspace_paramsEi
FNDA:0,_ZN5amgcl10coarsening16nullspace_paramsC2ERKN5boost13property_tree11basic_ptreeINSt7__cxx1112basic_stringIcSt11char_traitsIcESaIcEEESA_St4lessISA_EEE
FNDA:0,_ZN5amgcl10coarsening22tentative_prolongationINS_7backend3crsINS_13static_matrixIdLi2ELi2EEEllEEEESt10shared_ptrIT_EmmSt6vectorIlSaIlEERNS0_16nullspace_paramsEi
FNDA:0,_ZN5amgcl10coarsening22tentative_prolongationINS_7backend3crsINS_13static_matrixIdLi3ELi3EEEllEEEESt10shared_ptrIT_EmmSt6vectorIlSaIlEERNS0_16nullspace_paramsEi
FNDA:0,_ZN5amgcl10coarsening22tentative_prolongationINS_7backend3crsINS_13static_matrixIdLi4ELi4EEEllEEEESt10shared_ptrIT_EmmSt6vectorIlSaIlEERNS0_16nullspace_paramsEi
FNDA:0,_ZN5amgcl10coarsening22tentative_prolongationINS_7backend3crsIdllEEEESt10shared_ptrIT_EmmSt6vectorIlSaIlEERNS0_16nullspace_paramsEi
FNF:5
FNH:0
DA:55,0
DA:56,0
DA:63,0
DA:74,0
DA:77,0
DA:78,0
DA:80,0
DA:81,0
DA:83,0
DA:84,0
DA:85,0
DA:87,0
DA:92,0
DA:97,0
DA:99,0
DA:105,0
DA:106,0
DA:120,0
DA:133,0
DA:136,0
DA:137,0
DA:138,0
DA:143,0
DA:144,0
DA:146,0
DA:150,0
DA:151,0
DA:156,0
DA:162,0
DA:164,0
DA:165,0
DA:167,0
DA:168,0
DA:169,0
DA:170,0
DA:173,0
DA:175,0
DA:176,0
DA:177,0
DA:179,0
DA:180,0
DA:181,0
DA:183,0
DA:184,0
DA:187,0
DA:193,0
DA:194,0
DA:195,0
DA:196,0
DA:200,0
DA:202,0
DA:212,0
LF:52
LH:0
end_of_record
TN:
SF:/root/Kratos/external_libraries/amgcl/detail/inverse.hpp
FN:43,_ZN5amgcl6detailL7inverseIdEEviPT_S3_
FNDA:0,_ZN5amgcl6detailL7inverseIdEEviPT_S3_
FNF:1
FNH:0
DA:43,0
DA:45,0
DA:46,0
DA:48,0
DA:49,0
DA:50,0
DA:51,0
DA:53,0
DA:57,0
DA:59,0
DA:60,0
DA:61,0
DA:62,0
DA:63,0
DA:67,0
DA:68,0
DA:69,0
DA:70,0
DA:74,0
DA:75,0
LF:20
LH:0
end_of_record
TN:
SF:/root/Kratos/external_libraries/amgcl/detail/qr.hpp
FN:118,_ZN5amgcl6detail2QRIdvE7computeEiiiiPd
FN:185,_ZN5amgcl6detail2QRIdvE9factorizeEiiiiPd
FN:257,_ZN5amgcl6detail2QRIdvE5solveEiiiiPdPKdS3_b
FN:337,_ZN5amgcl6detail2QRIdvE13gen_reflectorEiRdPdi
FN:403,_ZN5amgcl6detail2QRIdvE15apply_reflectorEiiPKdidPdii
FNDA:0,_ZN5amgcl6detail2QRIdvE13gen_reflectorEiRdPdi
FNDA:0,_ZN5amgcl6detail2QRIdvE15apply_reflectorEiiPKdidPdii
FNDA:0,_ZN5amgcl6detail2QRIdvE5solveEiiiiPdPKdS3_b
FNDA:0,_ZN5amgcl6detail2QRIdvE7computeEiiiiPd
FNDA:0,_ZN5amgcl6detail2QRIdvE9factorizeEiiiiPd
FNF:5
FNH:0
DA:116,0
DA:118,0
DA:156,0
DA:157,0
DA:158,0
DA:160,0
DA:162,0
DA:164,0
DA:166,0
DA:168,0
DA:170,0
DA:172,0
DA:173,0
DA:185,0
DA:200,0
DA:202,0
DA:203,0
DA:205,0
DA:207,0
DA:208,0
DA:210,0
DA:216,0
DA:217,0
DA:218,0
DA:220,0
DA:221,0
DA:224,0
DA:225,0
DA:229,0
DA:230,0
DA:232,0
DA:234,0
DA:235,0
DA:237,0
DA:242,0
DA:243,0
DA:247,0
DA:248,0
DA:253,0
DA:257,0
DA:261,0
DA:262,0
DA:264,0
DA:268,0
DA:270,0
DA:271,0
DA:275,0
DA:276,0
DA:277,0
DA:278,0
DA:280,0
DA:281,0
DA:287,0
DA:290,0
DA:293,0
DA:294,0
DA:295,0
DA:296,0
DA:298,0
DA:299,0
DA:303,0
DA:305,0
DA:306,0
DA:307,0
DA:310,0
DA:323,0
DA:329,0
DA:337,0
DA:381,0
DA:382,0
DA:385,0
DA:386,0
DA:388,0
DA:390,0
DA:391,0
DA:393,0
DA:394,0
DA:396,0
DA:397,0
DA:399,0
DA:400,0
DA:403,0
DA:448,0
DA:451,0
DA:452,0
DA:453,0
DA:454,0
DA:457,0
DA:458,0
DA:459,0
DA:460,0
LF:91
LH:0
end_of_record
TN:
SF:/root/Kratos/external_libraries/amgcl/detail/sort_row.hpp
FN:38,_ZN5amgcl6detail8sort_rowIlNS_13static_matrixIdLi2ELi2EEEEEvPT_PT0_i
FN:38,_ZN5amgcl6detail8sort_rowIlNS_13static_matrixIdLi3ELi3EEEEEvPT_PT0_i
FN:38,_ZN5amgcl6detail8sort_rowIlNS_13static_matrixIdLi4ELi4EEEEEvPT_PT0_i
FN:38,_ZN5amgcl6detail8sort_rowIldEEvPT_PT0_i
FNDA:0,_ZN5amgcl6detail8sort_rowIlNS_13static_matrixIdLi2ELi2EEEEEvPT_PT0_i
FNDA:0,_ZN5amgcl6detail8sort_rowIlNS_13static_matrixIdLi3ELi3EEEEEvPT_PT0_i
FNDA:0,_ZN5amgcl6detail8sort_rowIlNS_13static_matrixIdLi4ELi4EEEEEvPT_PT0_i
FNDA:0,_ZN5amgcl6detail8sort_rowIldEEvPT_PT0_i
FNF:4
FNH:0
DA:38,0
DA:39,0
DA:40,0
DA:41,0
DA:43,0
DA:45,0
DA:46,0
DA:47,0
DA:48,0
DA:51,0
DA:52,0
DA:54,0
LF:12
LH:0
end_of_record
TN:
SF:/root/Kratos/external_libraries/amgcl/detail/spgemm.hpp
FN:62,_ZN5amgcl7backend11spgemm_saadINS0_3crsINS_13static_matrixIdLi2ELi2EEEllEES5_S5_EEvRKT_RKT0_RT1_b
FN:62,_ZN5amgcl7backend11spgemm_saadINS0_3crsINS_13static_matrixIdLi3ELi3EEEllEES5_S5_EEvRKT_RKT0_RT1_b
FN:62,_ZN5amgcl7backend11spgemm_saadINS0_3crsINS_13static_matrixIdLi4ELi4EEEllEES5_S5_EEvRKT_RKT0_RT1_b
FN:62,_ZN5amgcl7backend11spgemm_saadINS0_3crsIdllEES3_S3_EEvRKT_RKT0_RT1_b
FN:130,_ZN5amgcl7backend10merge_rowsILb1ElEEPT0_PKS2_S5_S5_S5_S3_
FN:168,_ZN5amgcl7backend10merge_rowsIlNS_13static_matrixIdLi2ELi2EEEEEPT_RKT0_PKS4_SA_PS7_S8_SA_SA_SB_S5_PS6_
FN:168,_ZN5amgcl7backend10merge_rowsIlNS_13static_matrixIdLi3ELi3EEEEEPT_RKT0_PKS4_SA_PS7_S8_SA_SA_SB_S5_PS6_
FN:168,_ZN5amgcl7backend10merge_rowsIlNS_13static_matrixIdLi4ELi4EEEEEPT_RKT0_PKS4_SA_PS7_S8_SA_SA_SB_S5_PS6_
FN:168,_ZN5amgcl7backend10merge_rowsIldEEPT_RKT0_PKS2_S8_PS5_S6_S8_S8_S9_S3_PS4_
FN:214,_ZN5amgcl7backend14prod_row_widthIlEET_PKS2_S4_S4_S4_PS2_S5_S5_
FN:293,_ZN5amgcl7backend8prod_rowIlNS_13static_matrixIdLi2ELi2EEEEEvPKT_S6_PKT0_S6_S6_S9_PS4_PS7_SA_SB_SA_SB_
FN:293,_ZN5amgcl7backend8prod_rowIlNS_13static_matrixIdLi3ELi3EEEEEvPKT_S6_PKT0_S6_S6_S9_PS4_PS7_SA_SB_SA_SB_
FN:293,_ZN5amgcl7backend8prod_rowIlNS_13static_matrixIdLi4ELi4EEEEEvPKT_S6_PKT0_S6_S6_S9_PS4_PS7_SA_SB_SA_SB_
FN:293,_ZN5amgcl7backend8prod_rowIldEEvPKT_S4_PKT0_S4_S4_S7_PS2_PS5_S8_S9_S8_S9_
FN:410,_ZN5amgcl7backend13spgemm_rmergeINS0_3crsINS_13static_matrixIdLi2ELi2EEEllEES5_S5_EEvRKT_RKT0_RT1_
FN:410,_ZN5amgcl7backend13spgemm_rmergeINS0_3crsINS_13static_matrixIdLi3ELi3EEEllEES5_S5_EEvRKT_RKT0_RT1_
FN:410,_ZN5amgcl7backend13spgemm_rmergeINS0_3crsINS_13static_matrixIdLi4ELi4EEEllEES5_S5_EEvRKT_RKT0_RT1_
FN:410,_ZN5amgcl7backend13spgemm_rmergeINS0_3crsIdllEES3_S3_EEvRKT_RKT0_RT1_
FNDA:0,_ZN5amgcl7backend10merge_rowsILb1ElEEPT0_PKS2_S5_S5_S5_S3_
FNDA:0,_ZN5amgcl7backend10merge_rowsIlNS_13static_matrixIdLi2ELi2EEEEEPT_RKT0_PKS4_SA_PS7_S8_SA_SA_SB_S5_PS6_
FNDA:0,_ZN5amgcl7backend10merge_rowsIlNS_13static_matrixIdLi3ELi3EEEEEPT_RKT0_PKS4_SA_PS7_S8_SA_SA_SB_S5_PS6_
FNDA:0,_ZN5amgcl7backend10merge_rowsIlNS_13static_matrixIdLi4ELi4EEEEEPT_RKT0_PKS4_SA_PS7_S8_SA_SA_SB_S5_PS6_
FNDA:0,_ZN5amgcl7backend10merge_rowsIldEEPT_RKT0_PKS2_S8_PS5_S6_S8_S8_S9_S3_PS4_
FNDA:0,_ZN5amgcl7backend11spgemm_saadINS0_3crsINS_13static_matrixIdLi2ELi2EEEllEES5_S5_EEvRKT_RKT0_RT1_b
FNDA:0,_ZN5amgcl7backend11spgemm_saadINS0_3crsINS_13static_matrixIdLi3ELi3EEEllEES5_S5_EEvRKT_RKT0_RT1_b
FNDA:0,_ZN5amgcl7backend11spgemm_saadINS0_3crsINS_13static_matrixIdLi4ELi4EEEllEES5_S5_EEvRKT_RKT0_RT1_b
FNDA:0,_ZN5amgcl7backend11spgemm_saadINS0_3crsIdllEES3_S3_EEvRKT_RKT0_RT1_b
FNDA:0,_ZN5amgcl7backend13spgemm_rmergeINS0_3crsINS_13static_matrixIdLi2ELi2EEEllEES5_S5_EEvRKT_RKT0_RT1_
FNDA:0,_ZN5amgcl7backend13spgemm_rmergeINS0_3crsINS_13static_matrixIdLi3ELi3EEEllEES5_S5_EEvRKT_RKT0_RT1_
FNDA:0,_ZN5amgcl7backend13spgemm_rmergeINS0_3crsINS_13static_matrixIdLi4ELi4EEEllEES5_S5_EEvRKT_RKT0_RT1_
FNDA:0,_ZN5amgcl7backend13spgemm_rmergeINS0_3crsIdllEES3_S3_EEvRKT_RKT0_RT1_
FNDA:0,_ZN5amgcl7backend14prod_row_widthIlEET_PKS2_S4_S4_S4_PS2_S5_S5_
FNDA:0,_ZN5amgcl7backend8prod_rowIlNS_13static_matrixIdLi2ELi2EEEEEvPKT_S6_PKT0_S6_S6_S9_PS4_PS7_SA_SB_SA_SB_
FNDA:0,_ZN5amgcl7backend8prod_rowIlNS_13static_matrixIdLi3ELi3EEEEEvPKT_S6_PKT0_S6_S6_S9_PS4_PS7_SA_SB_SA_SB_
FNDA:0,_ZN5amgcl7backend8prod_rowIlNS_13static_matrixIdLi4ELi4EEEEEvPKT_S6_PKT0_S6_S6_S9_PS4_PS7_SA_SB_SA_SB_
FNDA:0,_ZN5amgcl7backend8prod_rowIldEEvPKT_S4_PKT0_S4_S4_S7_PS2_PS5_S8_S9_S8_S9_
FNF:18
FNH:0
DA:62,0
DA:67,0
DA:68,0
DA:70,0
DA:92,0
DA:94,0
DA:126,0
DA:130,0
DA:136,0
DA:137,0
DA:138,0
DA:140,0
DA:141,0
DA:142,0
DA:143,0
DA:144,0
DA:145,0
DA:146,0
DA:148,0
DA:149,0
DA:151,0
DA:155,0
DA:156,0
DA:157,0
DA:158,0
DA:163,0
DA:168,0
DA:174,0
DA:175,0
DA:176,0
DA:178,0
DA:179,0
DA:181,0
DA:182,0
DA:183,0
DA:184,0
DA:185,0
DA:187,0
DA:188,0
DA:190,0
DA:192,0
DA:193,0
DA:196,0
DA:197,0
DA:200,0
DA:201,0
DA:202,0
DA:205,0
DA:206,0
DA:207,0
DA:210,0
DA:214,0
DA:220,0
DA:223,0
DA:226,0
DA:229,0
DA:230,0
DA:231,0
DA:233,0
DA:234,0
DA:235,0
DA:237,0
DA:247,0
DA:248,0
DA:249,0
DA:250,0
DA:251,0
DA:253,0
DA:256,0
DA:257,0
DA:258,0
DA:260,0
DA:261,0
DA:262,0
DA:266,0
DA:268,0
DA:271,0
DA:273,0
DA:274,0
DA:277,0
DA:284,0
DA:285,0
DA:286,0
DA:287,0
DA:289,0
DA:293,0
DA:301,0
DA:304,0
DA:307,0
DA:308,0
DA:309,0
DA:311,0
DA:312,0
DA:313,0
DA:315,0
DA:316,0
DA:317,0
DA:324,0
DA:325,0
DA:326,0
DA:328,0
DA:329,0
DA:331,0
DA:332,0
DA:333,0
DA:347,0
DA:348,0
DA:350,0
DA:351,0
DA:356,0
DA:357,0
DA:358,0
DA:360,0
DA:363,0
DA:364,0
DA:365,0
DA:367,0
DA:368,0
DA:370,0
DA:371,0
DA:372,0
DA:376,0
DA:377,0
DA:378,0
DA:380,0
DA:387,0
DA:388,0
DA:389,0
DA:391,0
DA:392,0
DA:393,0
DA:395,0
DA:403,0
DA:404,0
DA:405,0
DA:410,0
DA:414,0
DA:416,0
DA:437,0
DA:442,0
DA:443,0
DA:445,0
DA:446,0
DA:447,0
DA:450,0
DA:451,0
DA:454,0
DA:476,0
DA:478,0
DA:502,0
LF:150
LH:0
end_of_record
TN:
SF:/root/Kratos/external_libraries/amgcl/make_solver.hpp
FN:70,_ZN5amgcl11make_solverINS_10relaxation17as_preconditionerINS_7backend7builtinIdEENS_7runtime10relaxation7wrapperEEENS6_6solver7wrapperIS5_NS_6solver6detail21default_inner_productEEEE6paramsC2Ev
FN:70,_ZN5amgcl11make_solverINS_3amgINS_7backend7builtinIdEENS_7runtime10coarsening7wrapperENS5_10relaxation7wrapperEEENS5_6solver7wrapperIS4_NS_6solver6detail21default_inner_productEEEE6paramsC2Ev
FN:73,_ZN5amgcl11make_solverINS_10relaxation17as_preconditionerINS_7backend7builtinIdEENS_7runtime10relaxation7wrapperEEENS6_6solver7wrapperIS5_NS_6solver6detail21default_inner_productEEEE6paramsC2ERKN5boost13property_tree11basic_ptreeINSt7__cxx1112basic_stringIcSt11char_traitsIcESaIcEEESQ_St4lessISQ_EEE
FN:73,_ZN5amgcl11make_solverINS_14preconditioner25schur_pressure_correctionINS0_INS_10relaxation17as_preconditionerINS_7backend7builtinIdEENS_7runtime10relaxation7wrapperEEENS8_6solver7wrapperIS7_NS_6solver6detail21default_inner_productEEEEENS0_INS_3amgIS7_NS8_10coarsening7wrapperESA_EESH_EEEESH_E6paramsC2ERKN5boost13property_tree11basic_ptreeINSt7__cxx1112basic_stringIcSt11char_traitsIcESaIcEEESZ_St4lessISZ_EEE
FN:73,_ZN5amgcl11make_solverINS_3amgINS_7backend7builtinIdEENS_7runtime10coarsening7wrapperENS5_10relaxation7wrapperEEENS5_6solver7wrapperIS4_NS_6solver6detail21default_inner_productEEEE6paramsC2ERKN5boost13property_tree11basic_ptreeINSt7__cxx1112basic_stringIcSt11char_traitsIcESaIcEEESR_St4lessISR_EEE
FN:73,_ZN5amgcl11make_solverINS_7runtime14preconditionerINS_7backend7builtinINS_13static_matrixIdLi2ELi2EEEEEEENS1_6solver7wrapperIS7_NS_6solver6detail21default_inner_productEEEE6paramsC2ERKN5boost13property_tree11basic_ptreeINSt7__cxx1112basic_stringIcSt11char_traitsIcESaIcEEESP_St4lessISP_EEE
FN:73,_ZN5amgcl11make_solverINS_7runtime14preconditionerINS_7backend7builtinINS_13static_matrixIdLi3ELi3EEEEEEENS1_6solver7wrapperIS7_NS_6solver6detail21default_inner_productEEEE6paramsC2ERKN5boost13property_tree11basic_ptreeINSt7__cxx1112basic_stringIcSt11char_traitsIcESaIcEEESP_St4lessISP_EEE
FN:73,_ZN5amgcl11make_solverINS_7runtime14preconditionerINS_7backend7builtinINS_13static_matrixIdLi4ELi4EEEEEEENS1_6solver7wrapperIS7_NS_6solver6detail21default_inner_productEEEE6paramsC2ERKN5boost13property_tree11basic_ptreeINSt7__cxx1112basic_stringIcSt11char_traitsIcESaIcEEESP_St4lessISP_EEE
FN:73,_ZN5amgcl11make_solverINS_7runtime14preconditionerINS_7backend7builtinIdEEEENS1_6solver7wrapperIS5_NS_6solver6detail21default_inner_productEEEE6paramsC2ERKN5boost13property_tree11basic_ptreeINSt7__cxx1112basic_stringIcSt11char_traitsIcESaIcEEESN_St4lessISN_EEE
FN:92,_ZN5amgcl11make_solverINS_10relaxation17as_preconditionerINS_7backend7builtinIdEENS_7runtime10relaxation7wrapperEEENS6_6solver7wrapperIS5_NS_6solver6detail21default_inner_productEEEEC2INS3_3crsIdllEEEERKT_RKNSG_6paramsERKNS_6detail12empty_paramsE
FN:92,_ZN5amgcl11make_solverINS_3amgINS_7backend7builtinIdEENS_7runtime10coarsening7wrapperENS5_10relaxation7wrapperEEENS5_6solver7wrapperIS4_NS_6solver6detail21default_inner_productEEEEC2INS2_3crsIdllEEEERKT_RKNSH_6paramsERKNS_6detail12empty_paramsE
FN:92,_ZN5amgcl11make_solverINS_7runtime14preconditionerINS_7backend7builtinINS_13static_matrixIdLi2ELi2EEEEEEENS1_6solver7wrapperIS7_NS_6solver6detail21default_inner_productEEEEC2INS_7adapter20block_matrix_adapterISt5tupleIJRmRN5boost7numeric5ublas15unbounded_arrayImSaImEEESR_RNSO_IdSaIdEEEEES6_EEEERKT_RKNSF_6paramsERKNS_6detail12empty_paramsE
FN:92,_ZN5amgcl11make_solverINS_7runtime14preconditionerINS_7backend7builtinINS_13static_matrixIdLi3ELi3EEEEEEENS1_6solver7wrapperIS7_NS_6solver6detail21default_inner_productEEEEC2INS_7adapter20block_matrix_adapterISt5tupleIJRmRN5boost7numeric5ublas15unbounded_arrayImSaImEEESR_RNSO_IdSaIdEEEEES6_EEEERKT_RKNSF_6paramsERKNS_6detail12empty_paramsE
FN:92,_ZN5amgcl11make_solverINS_7runtime14preconditionerINS_7backend7builtinINS_13static_matrixIdLi4ELi4EEEEEEENS1_6solver7wrapperIS7_NS_6solver6detail21default_inner_productEEEEC2INS_7adapter20block_matrix_adapterISt5tupleIJRmRN5boost7numeric5ublas15unbounded_arrayImSaImEEESR_RNSO_IdSaIdEEEEES6_EEEERKT_RKNSF_6paramsERKNS_6detail12empty_paramsE
FN:104,_ZN5amgcl11make_solverINS_14preconditioner25schur_pressure_correctionINS0_INS_10relaxation17as_preconditionerINS_7backend7builtinIdEENS_7runtime10relaxation7wrapperEEENS8_6solver7wrapperIS7_NS_6solver6detail21default_inner_productEEEEENS0_INS_3amgIS7_NS8_10coarsening7wrapperESA_EESH_EEEESH_EC2ESt10shared_ptrINS5_3crsIdllEEERKNSP_6paramsERKNS_6detail12empty_paramsE
FN:104,_ZN5amgcl11make_solverINS_7runtime14preconditionerINS_7backend7builtinIdEEEENS1_6solver7wrapperIS5_NS_6solver6detail21default_inner_productEEEEC2ESt10shared_ptrINS3_3crsIdllEEERKNSD_6paramsERKNS_6detail12empty_paramsE
FN:141,_ZNK5amgcl11make_solverINS_7runtime14preconditionerINS_7backend7builtinINS_13static_matrixIdLi2ELi2EEEEEEENS1_6solver7wrapperIS7_NS_6solver6detail21default_inner_productEEEEclIN5boost14iterator_rangeIPKNS5_IdLi2ELi1EEEEERNSI_IPSJ_EEEESt5tupleIJmdEERKT_OT0_
FN:141,_ZNK5amgcl11make_solverINS_7runtime14preconditionerINS_7backend7builtinINS_13static_matrixIdLi2ELi2EEEEEEENS1_6solver7wrapperIS7_NS_6solver6detail21default_inner_productEEEEclINS3_11numa_vectorINS5_IdLi2ELi1EEEEERSJ_EESt5tupleIJmdEERKT_OT0_
FN:141,_ZNK5amgcl11make_solverINS_7runtime14preconditionerINS_7backend7builtinINS_13static_matrixIdLi3ELi3EEEEEEENS1_6solver7wrapperIS7_NS_6solver6detail21default_inner_productEEEEclIN5boost14iterator_rangeIPKNS5_IdLi3ELi1EEEEERNSI_IPSJ_EEEESt5tupleIJmdEERKT_OT0_
FN:141,_ZNK5amgcl11make_solverINS_7runtime14preconditionerINS_7backend7builtinINS_13static_matrixIdLi3ELi3EEEEEEENS1_6solver7wrapperIS7_NS_6solver6detail21default_inner_productEEEEclINS3_11numa_vectorINS5_IdLi3ELi1EEEEERSJ_EESt5tupleIJmdEERKT_OT0_
FN:141,_ZNK5amgcl11make_solverINS_7runtime14preconditionerINS_7backend7builtinINS_13static_matrixIdLi4ELi4EEEEEEENS1_6solver7wrapperIS7_NS_6solver6detail21default_inner_productEEEEclIN5boost14iterator_rangeIPKNS5_IdLi4ELi1EEEEERNSI_IPSJ_EEEESt5tupleIJmdEERKT_OT0_
FN:141,_ZNK5amgcl11make_solverINS_7runtime14preconditionerINS_7backend7builtinINS_13static_matrixIdLi4ELi4EEEEEEENS1_6solver7wrapperIS7_NS_6solver6detail21default_inner_productEEEEclINS3_11numa_vectorINS5_IdLi4ELi1EEEEERSJ_EESt5tupleIJmdEERKT_OT0_
FN:141,_ZNK5amgcl11make_solverINS_7runtime14preconditionerINS_7backend7builtinIdEEEENS1_6solver7wrapperIS5_NS_6solver6detail21default_inner_productEEEEclIN5boost7numeric5ublas6vectorIdNSH_15unbounded_arrayIdSaIdEEEEERSM_EESt5tupleIJmdEERKT_OT0_
FN:141,_ZNK5amgcl11make_solverINS_7runtime14preconditionerINS_7backend7builtinIdEEEENS1_6solver7wrapperIS5_NS_6solver6detail21default_inner_productEEEEclINS3_11numa_vectorIdEERSG_EESt5tupleIJmdEERKT_OT0_
FN:170,_ZNK5amgcl11make_solverINS_7runtime14preconditionerINS_7backend7builtinINS_13static_matrixIdLi2ELi2EEEEEEENS1_6solver7wrapperIS7_NS_6solver6detail21default_inner_productEEEE5applyINS3_11numa_vectorINS5_IdLi2ELi1EEEEERSJ_EEvRKT_OT0_
FN:170,_ZNK5amgcl11make_solverINS_7runtime14preconditionerINS_7backend7builtinINS_13static_matrixIdLi3ELi3EEEEEEENS1_6solver7wrapperIS7_NS_6solver6detail21default_inner_productEEEE5applyINS3_11numa_vectorINS5_IdLi3ELi1EEEEERSJ_EEvRKT_OT0_
FN:170,_ZNK5amgcl11make_solverINS_7runtime14preconditionerINS_7backend7builtinINS_13static_matrixIdLi4ELi4EEEEEEENS1_6solver7wrapperIS7_NS_6solver6detail21default_inner_productEEEE5applyINS3_11numa_vectorINS5_IdLi4ELi1EEEEERSJ_EEvRKT_OT0_
FN:170,_ZNK5amgcl11make_solverINS_7runtime14preconditionerINS_7backend7builtinIdEEEENS1_6solver7wrapperIS5_NS_6solver6detail21default_inner_productEEEE5applyINS3_11numa_vectorIdEERSG_EEvRKT_OT0_
FN:191,_ZNK5amgcl11make_solverINS_7runtime14preconditionerINS_7backend7builtinINS_13static_matrixIdLi2ELi2EEEEEEENS1_6solver7wrapperIS7_NS_6solver6detail21default_inner_productEEEE17system_matrix_ptrEv
FN:191,_ZNK5amgcl11make_solverINS_7runtime14preconditionerINS_7backend7builtinINS_13static_matrixIdLi3ELi3EEEEEEENS1_6solver7wrapperIS7_NS_6solver6detail21default_inner_productEEEE17system_matrix_ptrEv
FN:191,_ZNK5amgcl11make_solverINS_7runtime14preconditionerINS_7backend7builtinINS_13static_matrixIdLi4ELi4EEEEEEENS1_6solver7wrapperIS7_NS_6solver6detail21default_inner_productEEEE17system_matrix_ptrEv
FN:191,_ZNK5amgcl11make_solverINS_7runtime14preconditionerINS_7backend7builtinIdEEEENS1_6solver7wrapperIS5_NS_6solver6detail21default_inner_productEEEE17system_matrix_ptrEv
FNDA:0,_ZN5amgcl11make_solverINS_10relaxation17as_preconditionerINS_7backend7builtinIdEENS_7runtime10relaxation7wrapperEEENS6_6solver7wrapperIS5_NS_6solver6detail21default_inner_productEEEE6paramsC2ERKN5boost13property_tree11basic_ptreeINSt7__cxx1112basic_stringIcSt11char_traitsIcESaIcEEESQ_St4lessISQ_EEE
FNDA:0,_ZN5amgcl11make_solverINS_10relaxation17as_preconditionerINS_7backend7builtinIdEENS_7runtime10relaxation7wrapperEEENS6_6solver7wrapperIS5_NS_6solver6detail21default_inner_productEEEE6paramsC2Ev
FNDA:0,_ZN5amgcl11make_solverINS_10relaxation17as_preconditionerINS_7backend7builtinIdEENS_7runtime10relaxation7wrapperEEENS6_6solver7wrapperIS5_NS_6solver6detail21default_inner_productEEEEC2INS3_3crsIdllEEEERKT_RKNSG_6paramsERKNS_6detail12empty_paramsE
FNDA:0,_ZN5amgcl11make_solverINS_14preconditioner25schur_pressure_correctionINS0_INS_10relaxation17as_preconditionerINS_7backend7builtinIdEENS_7runtime10relaxation7wrapperEEENS8_6solver7wrapperIS7_NS_6solver6detail21default_inner_productEEEEENS0_INS_3amgIS7_NS8_10coarsening7wrapperESA_EESH_EEEESH_E6paramsC2ERKN5boost13property_tree11basic_ptreeINSt7__cxx1112basic_stringIcSt11char_traitsIcESaIcEEESZ_St4lessISZ_EEE
FNDA:0,_ZN5amgcl11make_solverINS_14preconditioner25schur_pressure_correctionINS0_INS_10relaxation17as_preconditionerINS_7backend7builtinIdEENS_7runtime10relaxation7wrapperEEENS8_6solver7wrapperIS7_NS_6solver6detail21default_inner_productEEEEENS0_INS_3amgIS7_NS8_10coarsening7wrapperESA_EESH_EEEESH_EC2ESt10shared_ptrINS5_3crsIdllEEERKNSP_6paramsERKNS_6detail12empty_paramsE
FNDA:0,_ZN5amgcl11make_solverINS_3amgINS_7backend7builtinIdEENS_7runtime10coarsening7wrapperENS5_10relaxation7wrapperEEENS5_6solver7wrapperIS4_NS_6solver6detail21default_inner_productEEEE6paramsC2ERKN5boost13property_tree11basic_ptreeINSt7__cxx1112basic_stringIcSt11char_traitsIcESaIcEEESR_St4lessISR_EEE
FNDA:0,_ZN5amgcl11make_solverINS_3amgINS_7backend7builtinIdEENS_7runtime10coarsening7wrapperENS5_10relaxation7wrapperEEENS5_6solver7wrapperIS4_NS_6solver6detail21default_inner_productEEEE6paramsC2Ev
FNDA:0,_ZN5amgcl11make_solverINS_3amgINS_7backend7builtinIdEENS_7runtime10coarsening7wrapperENS5_10relaxation7wrapperEEENS5_6solver7wrapperIS4_NS_6solver6detail21default_inner_productEEEEC2INS2_3crsIdllEEEERKT_RKNSH_6paramsERKNS_6detail12empty_paramsE
FNDA:0,_ZN5amgcl11make_solverINS_7runtime14preconditionerINS_7backend7builtinINS_13static_matrixIdLi2ELi2EEEEEEENS1_6solver7wrapperIS7_NS_6solver6detail21default_inner_productEEEE6paramsC2ERKN5boost13property_tree11basic_ptreeINSt7__cxx1112basic_stringIcSt11char_traitsIcESaIcEEESP_St4lessISP_EEE
FNDA:0,_ZN5amgcl11make_solverINS_7runtime14preconditionerINS_7backend7builtinINS_13static_matrixIdLi2ELi2EEEEEEENS1_6solver7wrapperIS7_NS_6solver6detail21default_inner_productEEEEC2INS_7adapter20block_matrix_adapterISt5tupleIJRmRN5boost7numeric5ublas15unbounded_arrayImSaImEEESR_RNSO_IdSaIdEEEEES6_EEEERKT_RKNSF_6paramsERKNS_6detail12empty_paramsE
FNDA:0,_ZN5amgcl11make_solverINS_7runtime14preconditionerINS_7backend7builtinINS_13static_matrixIdLi3ELi3EEEEEEENS1_6solver7wrapperIS7_NS_6solver6detail21default_inner_productEEEE6paramsC2ERKN5boost13property_tree11basic_ptreeINSt7__cxx1112basic_stringIcSt11char_traitsIcESaIcEEESP_St4lessISP_EEE
FNDA:0,_ZN5amgcl11make_solverINS_7runtime14preconditionerINS_7backend7builtinINS_13static_matrixIdLi3ELi3EEEEEEENS1_6solver7wrapperIS7_NS_6solver6detail21default_inner_productEEEEC2INS_7adapter20block_matrix_adapterISt5tupleIJRmRN5boost7numeric5ublas15unbounded_arrayImSaImEEESR_RNSO_IdSaIdEEEEES6_EEEERKT_RKNSF_6paramsERKNS_6detail12empty_paramsE
FNDA:0,_ZN5amgcl11make_solverINS_7runtime14preconditionerINS_7backend7builtinINS_13static_matrixIdLi4ELi4EEEEEEENS1_6solver7wrapperIS7_NS_6solver6detail21default_inner_productEEEE6paramsC2ERKN5boost13property_tree11basic_ptreeINSt7__cxx1112basic_stringIcSt11char_traitsIcESaIcEEESP_St4lessISP_EEE
FNDA:0,_ZN5amgcl11make_solverINS_7runtime14preconditionerINS_7backend7builtinINS_13static_matrixIdLi4ELi4EEEEEEENS1_6solver7wrapperIS7_NS_6solver6detail21default_inner_productEEEEC2INS_7adapter20block_matrix_adapterISt5tupleIJRmRN5boost7numeric5ublas15unbounded_arrayImSaImEEESR_RNSO_IdSaIdEEEEES6_EEEERKT_RKNSF_6paramsERKNS_6detail12empty_paramsE
FNDA:0,_ZN5amgcl11make_solverINS_7runtime14preconditionerINS_7backend7builtinIdEEEENS1_6solver7wrapperIS5_NS_6solver6detail21default_inner_productEEEE6paramsC2ERKN5boost13property_tree11basic_ptreeINSt7__cxx1112basic_stringIcSt11char_traitsIcESaIcEEESN_St4lessISN_EEE
FNDA:0,_ZN5amgcl11make_solverINS_7runtime14preconditionerINS_7backend7builtinIdEEEENS1_6solver7wrapperIS5_NS_6solver6detail21default_inner_productEEEEC2ESt10shared_ptrINS3_3crsIdllEEERKNSD_6paramsERKNS_6detail12empty_paramsE
FNDA:0,_ZNK5amgcl11make_solverINS_7runtime14preconditionerINS_7backend7builtinINS_13static_matrixIdLi2ELi2EEEEEEENS1_6solver7wrapperIS7_NS_6solver6detail21default_inner_productEEEE17system_matrix_ptrEv
FNDA:0,_ZNK5amgcl11make_solverINS_7runtime14preconditionerINS_7backend7builtinINS_13static_matrixIdLi2ELi2EEEEEEENS1_6solver7wrapperIS7_NS_6solver6detail21default_inner_productEEEE5applyINS3_11numa_vectorINS5_IdLi2ELi1EEEEERSJ_EEvRKT_OT0_
FNDA:0,_ZNK5amgcl11make_solverINS_7runtime14preconditionerINS_7backend7builtinINS_13static_matrixIdLi2ELi2EEEEEEENS1_6solver7wrapperIS7_NS_6solver6detail21default_inner_productEEEEclIN5boost14iterator_rangeIPKNS5_IdLi2ELi1EEEEERNSI_IPSJ_EEEESt5tupleIJmdEERKT_OT0_
FNDA:0,_ZNK5amgcl11make_solverINS_7runtime14preconditionerINS_7backend7builtinINS_13static_matrixIdLi2ELi2EEEEEEENS1_6solver7wrapperIS7_NS_6solver6detail21default_inner_productEEEEclINS3_11numa_vectorINS5_IdLi2ELi1EEEEERSJ_EESt5tupleIJmdEERKT_OT0_
FNDA:0,_ZNK5amgcl11make_solverINS_7runtime14preconditionerINS_7backend7builtinINS_13static_matrixIdLi3ELi3EEEEEEENS1_6solver7wrapperIS7_NS_6solver6detail21default_inner_productEEEE17system_matrix_ptrEv
FNDA:0,_ZNK5amgcl11make_solverINS_7runtime14preconditionerINS_7backend7builtinINS_13static_matrixIdLi3ELi3EEEEEEENS1_6solver7wrapperIS7_NS_6solver6detail21default_inner_productEEEE5applyINS3_11numa_vectorINS5_IdLi3ELi1EEEEERSJ_EEvRKT_OT0_
FNDA:0,_ZNK5amgcl11make_solverINS_7runtime14preconditionerINS_7backend7builtinINS_13static_matrixIdLi3ELi3EEEEEEENS1_6solver7wrapperIS7_NS_6solver6detail21default_inner_productEEEEclIN5boost14iterator_rangeIPKNS5_IdLi3ELi1EEEEERNSI_IPSJ_EEEESt5tupleIJmdEERKT_OT0_
FNDA:0,_ZNK5amgcl11make_solverINS_7runtime14preconditionerINS_7backend7builtinINS_13static_matrixIdLi3ELi3EEEEEEENS1_6solver7wrapperIS7_NS_6solver6detail21default_inner_productEEEEclINS3_11numa_vectorINS5_IdLi3ELi1EEEEERSJ_EESt5tupleIJmdEERKT_OT0_
FNDA:0,_ZNK5amgcl11make_solverINS_7runtime14preconditionerINS_7backend7builtinINS_13static_matrixIdLi4ELi4EEEEEEENS1_6solver7wrapperIS7_NS_6solver6detail21default_inner_productEEEE17system_matrix_ptrEv
FNDA:0,_ZNK5amgcl11make_solverINS_7runtime14preconditionerINS_7backend7builtinINS_13static_matrixIdLi4ELi4EEEEEEENS1_6solver7wrapperIS7_NS_6solver6detail21default_inner_productEEEE5applyINS3_11numa_vectorINS5_IdLi4ELi1EEEEERSJ_EEvRKT_OT0_
FNDA:0,_ZNK5amgcl11make_solverINS_7runtime14preconditionerINS_7backend7builtinINS_13static_matrixIdLi4ELi4EEEEEEENS1_6solver7wrapperIS7_NS_6solver6detail21default_inner_productEEEEclIN5boost14iterator_rangeIPKNS5_IdLi4ELi1EEEEERNSI_IPSJ_EEEESt5tupleIJmdEERKT_OT0_
FNDA:0,_ZNK5amgcl11make_solverINS_7runtime14preconditionerINS_7backend7builtinINS_13static_matrixIdLi4ELi4EEEEEEENS1_6solver7wrapperIS7_NS_6solver6detail21default_inner_productEEEEclINS3_11numa_vectorINS5_IdLi4ELi1EEEEERSJ_EESt5tupleIJmdEERKT_OT0_
FNDA:0,_ZNK5amgcl11make_solverINS_7runtime14preconditionerINS_7backend7builtinIdEEEENS1_6solver7wrapperIS5_NS_6solver6detail21default_inner_productEEEE17system_matrix_ptrEv
FNDA:0,_ZNK5amgcl11make_solverINS_7runtime14preconditionerINS_7backend7builtinIdEEEENS1_6solver7wrapperIS5_NS_6solver6detail21default_inner_productEEEE5applyINS3_11numa_vectorIdEERSG_EEvRKT_OT0_
FNDA:0,_ZNK5amgcl11make_solverINS_7runtime14preconditionerINS_7backend7builtinIdEEEENS1_6solver7wrapperIS5_NS_6solver6detail21default_inner_productEEEEclIN5boost7numeric5ublas6vectorIdNSH_15unbounded_arrayIdSaIdEEEEERSM_EESt5tupleIJmdEERKT_OT0_
FNDA:0,_ZNK5amgcl11make_solverINS_7runtime14preconditionerINS_7backend7builtinIdEEEENS1_6solver7wrapperIS5_NS_6solver6detail21default_inner_productEEEEclINS3_11numa_vectorIdEERSG_EESt5tupleIJmdEERKT_OT0_
FNF:32
FNH:0
DA:66,0
DA:70,0
DA:73,0
DA:74,0
DA:75,0
DA:77,0
DA:78,0
DA:92,0
DA:97,0
DA:98,0
DA:99,0
DA:100,0
DA:104,0
DA:109,0
DA:110,0
DA:111,0
DA:112,0
DA:132,0
DA:141,0
DA:142,0
DA:170,0
DA:172,0
DA:173,0
DA:191,0
DA:192,0
DA:196,0
DA:212,0
LF:27
LH:0
end_of_record
TN:
SF:/root/Kratos/external_libraries/amgcl/preconditioner/dummy.hpp
FNF:0
FNH:0
DA:42,0
DA:55,0
DA:60,0
DA:64,0
DA:69,0
DA:76,0
DA:79,0
LF:7
LH:0
end_of_record
TN:
SF:/root/Kratos/external_libraries/amgcl/preconditioner/runtime.hpp
FN:76,_ZN5amgcl7runtime13precond_classrsERSiRNS1_4typeE
FN:110,_ZN5amgcl7runtime14preconditionerINS_7backend7builtinINS_13static_matrixIdLi2ELi2EEEEEEC2INS_7adapter20block_matrix_adapterISt5tupleIJRmRN5boost7numeric5ublas15unbounded_arrayImSaImEEESJ_RNSG_IdSaIdEEEEES5_EEEERKT_NSD_13property_tree11basic_ptreeINSt7__cxx1112basic_stringIcSt11char_traitsIcESaIcEEESZ_St4lessISZ_EEERKNS_6detail12empty_paramsE
FN:110,_ZN5amgcl7runtime14preconditionerINS_7backend7builtinINS_13static_matrixIdLi3ELi3EEEEEEC2INS_7adapter20block_matrix_adapterISt5tupleIJRmRN5boost7numeric5ublas15unbounded_arrayImSaImEEESJ_RNSG_IdSaIdEEEEES5_EEEERKT_NSD_13property_tree11basic_ptreeINSt7__cxx1112basic_stringIcSt11char_traitsIcESaIcEEESZ_St4lessISZ_EEERKNS_6detail12empty_paramsE
FN:110,_ZN5amgcl7runtime14preconditionerINS_7backend7builtinINS_13static_matrixIdLi4ELi4EEEEEEC2INS_7adapter20block_matrix_adapterISt5tupleIJRmRN5boost7numeric5ublas15unbounded_arrayImSaImEEESJ_RNSG_IdSaIdEEEEES5_EEEERKT_NSD_13property_tree11basic_ptreeINSt7__cxx1112basic_stringIcSt11char_traitsIcESaIcEEESZ_St4lessISZ_EEERKNS_6detail12empty_paramsE
FN:110,_ZN5amgcl7runtime14preconditionerINS_7backend7builtinIdEEEC2ISt10shared_ptrINS2_3crsIdllEEEEERKT_N5boost13property_tree11basic_ptreeINSt7__cxx1112basic_stringIcSt11char_traitsIcESaIcEEESM_St4lessISM_EEERKNS_6detail12empty_paramsE
FN:164,_ZN5amgcl7runtime14preconditionerINS_7backend7builtinINS_13static_matrixIdLi2ELi2EEEEEED2Ev
FN:164,_ZN5amgcl7runtime14preconditionerINS_7backend7builtinINS_13static_matrixIdLi3ELi3EEEEEED2Ev
FN:164,_ZN5amgcl7runtime14preconditionerINS_7backend7builtinINS_13static_matrixIdLi4ELi4EEEEEED2Ev
FN:164,_ZN5amgcl7runtime14preconditionerINS_7backend7builtinIdEEED2Ev
FN:211,_ZNK5amgcl7runtime14preconditionerINS_7backend7builtinINS_13static_matrixIdLi2ELi2EEEEEE5applyINS2_11numa_vectorINS4_IdLi2ELi1EEEEESB_EEvRKT_RT0_
FN:211,_ZNK5amgcl7runtime14preconditionerINS_7backend7builtinINS_13static_matrixIdLi3ELi3EEEEEE5applyINS2_11numa_vectorINS4_IdLi3ELi1EEEEESB_EEvRKT_RT0_
FN:211,_ZNK5amgcl7runtime14preconditionerINS_7backend7builtinINS_13static_matrixIdLi4ELi4EEEEEE5applyINS2_11numa_vectorINS4_IdLi4ELi1EEEEESB_EEvRKT_RT0_
FN:211,_ZNK5amgcl7runtime14preconditionerINS_7backend7builtinIdEEE5applyINS2_11numa_vectorIdEES8_EEvRKT_RT0_
FN:257,_ZNK5amgcl7runtime14preconditionerINS_7backend7builtinINS_13static_matrixIdLi2ELi2EEEEEE17system_matrix_ptrEv
FN:257,_ZNK5amgcl7runtime14preconditionerINS_7backend7builtinINS_13static_matrixIdLi3ELi3EEEEEE17system_matrix_ptrEv
FN:257,_ZNK5amgcl7runtime14preconditionerINS_7backend7builtinINS_13static_matrixIdLi4ELi4EEEEEE17system_matrix_ptrEv
FN:257,_ZNK5amgcl7runtime14preconditionerINS_7backend7builtinIdEEE17system_matrix_ptrEv
FN:299,_ZNK5amgcl7runtime14preconditionerINS_7backend7builtinINS_13static_matrixIdLi2ELi2EEEEEE13system_matrixEv
FN:299,_ZNK5amgcl7runtime14preconditionerINS_7backend7builtinINS_13static_matrixIdLi3ELi3EEEEEE13system_matrixEv
FN:299,_ZNK5amgcl7runtime14preconditionerINS_7backend7builtinINS_13static_matrixIdLi4ELi4EEEEEE13system_matrixEv
FN:299,_ZNK5amgcl7runtime14preconditionerINS_7backend7builtinIdEEE13system_matrixEv
FN:307,_ZNK5amgcl7runtime14preconditionerINS_7backend7builtinINS_13static_matrixIdLi2ELi2EEEEEE5bytesEv
FN:307,_ZNK5amgcl7runtime14preconditionerINS_7backend7builtinINS_13static_matrixIdLi3ELi3EEEEEE5bytesEv
FN:307,_ZNK5amgcl7runtime14preconditionerINS_7backend7builtinINS_13static_matrixIdLi4ELi4EEEEEE5bytesEv
FN:307,_ZNK5amgcl7runtime14preconditionerINS_7backend7builtinIdEEE5bytesEv
FNDA:0,_ZN5amgcl7runtime13precond_classrsERSiRNS1_4typeE
FNDA:0,_ZN5amgcl7runtime14preconditionerINS_7backend7builtinINS_13static_matrixIdLi2ELi2EEEEEEC2INS_7adapter20block_matrix_adapterISt5tupleIJRmRN5boost7numeric5ublas15unbounded_arrayImSaImEEESJ_RNSG_IdSaIdEEEEES5_EEEERKT_NSD_13property_tree11basic_ptreeINSt7__cxx1112basic_stringIcSt11char_traitsIcESaIcEEESZ_St4lessISZ_EEERKNS_6detail12empty_paramsE
FNDA:0,_ZN5amgcl7runtime14preconditionerINS_7backend7builtinINS_13static_matrixIdLi2ELi2EEEEEED2Ev
FNDA:0,_ZN5amgcl7runtime14preconditionerINS_7backend7builtinINS_13static_matrixIdLi3ELi3EEEEEEC2INS_7adapter20block_matrix_adapterISt5tupleIJRmRN5boost7numeric5ublas15unbounded_arrayImSaImEEESJ_RNSG_IdSaIdEEEEES5_EEEERKT_NSD_13property_tree11basic_ptreeINSt7__cxx1112basic_stringIcSt11char_traitsIcESaIcEEESZ_St4lessISZ_EEERKNS_6detail12empty_paramsE
FNDA:0,_ZN5amgcl7runtime14preconditionerINS_7backend7builtinINS_13static_matrixIdLi3ELi3EEEEEED2Ev
FNDA:0,_ZN5amgcl7runtime14preconditionerINS_7backend7builtinINS_13static_matrixIdLi4ELi4EEEEEEC2INS_7adapter20block_matrix_adapterISt5tupleIJRmRN5boost7numeric5ublas15unbounded_arrayImSaImEEESJ_RNSG_IdSaIdEEEEES5_EEEERKT_NSD_13property_tree11basic_ptreeINSt7__cxx1112basic_stringIcSt11char_traitsIcESaIcEEESZ_St4lessISZ_EEERKNS_6detail12empty_paramsE
FNDA:0,_ZN5amgcl7runtime14preconditionerINS_7backend7builtinINS_13static_matrixIdLi4ELi4EEEEEED2Ev
FNDA:0,_ZN5amgcl7runtime14preconditionerINS_7backend7builtinIdEEEC2ISt10shared_ptrINS2_3crsIdllEEEEERKT_N5boost13property_tree11basic_ptreeINSt7__cxx1112basic_stringIcSt11char_traitsIcESaIcEEESM_St4lessISM_EEERKNS_6detail12empty_paramsE
FNDA:0,_ZN5amgcl7runtime14preconditionerINS_7backend7builtinIdEEED2Ev
FNDA:0,_ZNK5amgcl7runtime14preconditionerINS_7backend7builtinINS_13static_matrixIdLi2ELi2EEEEEE13system_matrixEv
FNDA:0,_ZNK5amgcl7runtime14preconditionerINS_7backend7builtinINS_13static_matrixIdLi2ELi2EEEEEE17system_matrix_ptrEv
FNDA:0,_ZNK5amgcl7runtime14preconditionerINS_7backend7builtinINS_13static_matrixIdLi2ELi2EEEEEE5applyINS2_11numa_vectorINS4_IdLi2ELi1EEEEESB_EEvRKT_RT0_
FNDA:0,_ZNK5amgcl7runtime14preconditionerINS_7backend7builtinINS_13static_matrixIdLi2ELi2EEEEEE5bytesEv
FNDA:0,_ZNK5amgcl7runtime14preconditionerINS_7backend7builtinINS_13static_matrixIdLi3ELi3EEEEEE13system_matrixEv
FNDA:0,_ZNK5amgcl7runtime14preconditionerINS_7backend7builtinINS_13static_matrixIdLi3ELi3EEEEEE17system_matrix_ptrEv
FNDA:0,_ZNK5amgcl7runtime14preconditionerINS_7backend7builtinINS_13static_matrixIdLi3ELi3EEEEEE5applyINS2_11numa_vectorINS4_IdLi3ELi1EEEEESB_EEvRKT_RT0_
FNDA:0,_ZNK5amgcl7runtime14preconditionerINS_7backend7builtinINS_13static_matrixIdLi3ELi3EEEEEE5bytesEv
FNDA:0,_ZNK5amgcl7runtime14preconditionerINS_7backend7builtinINS_13static_matrixIdLi4ELi4EEEEEE13system_matrixEv
FNDA:0,_ZNK5amgcl7runtime14preconditionerINS_7backend7builtinINS_13static_matrixIdLi4ELi4EEEEEE17system_matrix_ptrEv
FNDA:0,_ZNK5amgcl7runtime14preconditionerINS_7backend7builtinINS_13static_matrixIdLi4ELi4EEEEEE5applyINS2_11numa_vectorINS4_IdLi4ELi1EEEEESB_EEvRKT_RT0_
FNDA:0,_ZNK5amgcl7runtime14preconditionerINS_7backend7builtinINS_13static_matrixIdLi4ELi4EEEEEE5bytesEv
FNDA:0,_ZNK5amgcl7runtime14preconditionerINS_7backend7builtinIdEEE13system_matrixEv
FNDA:0,_ZNK5amgcl7runtime14preconditionerINS_7backend7builtinIdEEE17system_matrix_ptrEv
FNDA:0,_ZNK5amgcl7runtime14preconditionerINS_7backend7builtinIdEEE5applyINS2_11numa_vectorIdEES8_EEvRKT_RT0_
FNDA:0,_ZNK5amgcl7runtime14preconditionerINS_7backend7builtinIdEEE5bytesEv
FNF:25
FNH:0
DA:76,0
DA:79,0
DA:81,0
DA:82,0
DA:83,0
DA:84,0
DA:85,0
DA:86,0
DA:87,0
DA:88,0
DA:90,0
DA:91,0
DA:93,0
DA:110,0
DA:114,0
DA:115,0
DA:117,0
DA:119,0
DA:120,0
DA:126,0
DA:128,0
DA:129,0
DA:135,0
DA:137,0
DA:138,0
DA:144,0
DA:146,0
DA:147,0
DA:156,0
DA:158,0
DA:159,0
DA:160,0
DA:162,0
DA:164,0
DA:165,0
DA:166,0
DA:172,0
DA:175,0
DA:181,0
DA:184,0
DA:190,0
DA:193,0
DA:202,0
DA:208,0
DA:211,0
DA:212,0
DA:213,0
DA:219,0
DA:221,0
DA:222,0
DA:228,0
DA:231,0
DA:240,0
DA:249,0
DA:251,0
DA:252,0
DA:253,0
DA:255,0
DA:257,0
DA:258,0
DA:259,0
DA:265,0
DA:267,0
DA:273,0
DA:275,0
DA:281,0
DA:283,0
DA:292,0
DA:294,0
DA:295,0
DA:299,0
DA:300,0
DA:307,0
DA:308,0
DA:309,0
DA:315,0
DA:317,0
DA:323,0
DA:333,0
DA:342,0
DA:344,0
DA:345,0
LF:82
LH:0
end_of_record
TN:
SF:/root/Kratos/external_libraries/amgcl/preconditioner/schur_pressure_correction.hpp
FN:111,_ZN5amgcl14preconditioner25schur_pressure_correctionINS_11make_solverINS_10relaxation17as_preconditionerINS_7backend7builtinIdEENS_7runtime10relaxation7wrapperEEENS8_6solver7wrapperIS7_NS_6solver6detail21default_inner_productEEEEENS2_INS_3amgIS7_NS8_10coarsening7wrapperESA_EESH_EEE6paramsC2Ev
FN:114,_ZN5amgcl14preconditioner25schur_pressure_correctionINS_11make_solverINS_10relaxation17as_preconditionerINS_7backend7builtinIdEENS_7runtime10relaxation7wrapperEEENS8_6solver7wrapperIS7_NS_6solver6detail21default_inner_productEEEEENS2_INS_3amgIS7_NS8_10coarsening7wrapperESA_EESH_EEE6paramsC2ERKN5boost13property_tree11basic_ptreeINSt7__cxx1112basic_stringIcSt11char_traitsIcESaIcEEESY_St4lessISY_EEE
FN:189,_ZN5amgcl14preconditioner25schur_pressure_correctionINS_11make_solverINS_10relaxation17as_preconditionerINS_7backend7builtinIdEENS_7runtime10relaxation7wrapperEEENS8_6solver7wrapperIS7_NS_6solver6detail21default_inner_productEEEEENS2_INS_3amgIS7_NS8_10coarsening7wrapperESA_EESH_EEEC2ESt10shared_ptrINS5_3crsIdllEEERKNSO_6paramsERKNS_6detail12empty_paramsE
FN:200,_ZNK5amgcl14preconditioner25schur_pressure_correctionINS_11make_solverINS_10relaxation17as_preconditionerINS_7backend7builtinIdEENS_7runtime10relaxation7wrapperEEENS8_6solver7wrapperIS7_NS_6solver6detail21default_inner_productEEEEENS2_INS_3amgIS7_NS8_10coarsening7wrapperESA_EESH_EEE5applyINS5_11numa_vectorIdEERSR_EEvRKT_OT0_
FN:236,_ZNK5amgcl14preconditioner25schur_pressure_correctionINS_11make_solverINS_10relaxation17as_preconditionerINS_7backend7builtinIdEENS_7runtime10relaxation7wrapperEEENS8_6solver7wrapperIS7_NS_6solver6detail21default_inner_productEEEEENS2_INS_3amgIS7_NS8_10coarsening7wrapperESA_EESH_EEE4spmvIdNS5_11numa_vectorIdEEdSR_EEvT_RKT0_T1_RT2_
FN:236,_ZNK5amgcl14preconditioner25schur_pressure_correctionINS_11make_solverINS_10relaxation17as_preconditionerINS_7backend7builtinIdEENS_7runtime10relaxation7wrapperEEENS8_6solver7wrapperIS7_NS_6solver6detail21default_inner_productEEEEENS2_INS_3amgIS7_NS8_10coarsening7wrapperESA_EESH_EEE4spmvIiNS5_11numa_vectorIdEEiSR_EEvT_RKT0_T1_RT2_
FN:261,_ZN5amgcl14preconditioner25schur_pressure_correctionINS_11make_solverINS_10relaxation17as_preconditionerINS_7backend7builtinIdEENS_7runtime10relaxation7wrapperEEENS8_6solver7wrapperIS7_NS_6solver6detail21default_inner_productEEEEENS2_INS_3amgIS7_NS8_10coarsening7wrapperESA_EESH_EEE4initERKSt10shared_ptrINS5_3crsIdllEEERKNS_6detail12empty_paramsE
FN:478,_ZN5amgcl7backend13residual_implINS_14preconditioner25schur_pressure_correctionINS_11make_solverINS_10relaxation17as_preconditionerINS0_7builtinIdEENS_7runtime10relaxation7wrapperEEENS9_6solver7wrapperIS8_NS_6solver6detail21default_inner_productEEEEENS4_INS_3amgIS8_NS9_10coarsening7wrapperESB_EESI_EEEENS0_11numa_vectorIdEESR_SR_vE5applyERKSR_RKSP_SU_RSR_
FNDA:0,_ZN5amgcl14preconditioner25schur_pressure_correctionINS_11make_solverINS_10relaxation17as_preconditionerINS_7backend7builtinIdEENS_7runtime10relaxation7wrapperEEENS8_6solver7wrapperIS7_NS_6solver6detail21default_inner_productEEEEENS2_INS_3amgIS7_NS8_10coarsening7wrapperESA_EESH_EEE4initERKSt10shared_ptrINS5_3crsIdllEEERKNS_6detail12empty_paramsE
FNDA:0,_ZN5amgcl14preconditioner25schur_pressure_correctionINS_11make_solverINS_10relaxation17as_preconditionerINS_7backend7builtinIdEENS_7runtime10relaxation7wrapperEEENS8_6solver7wrapperIS7_NS_6solver6detail21default_inner_productEEEEENS2_INS_3amgIS7_NS8_10coarsening7wrapperESA_EESH_EEE6paramsC2ERKN5boost13property_tree11basic_ptreeINSt7__cxx1112basic_stringIcSt11char_traitsIcESaIcEEESY_St4lessISY_EEE
FNDA:0,_ZN5amgcl14preconditioner25schur_pressure_correctionINS_11make_solverINS_10relaxation17as_preconditionerINS_7backend7builtinIdEENS_7runtime10relaxation7wrapperEEENS8_6solver7wrapperIS7_NS_6solver6detail21default_inner_productEEEEENS2_INS_3amgIS7_NS8_10coarsening7wrapperESA_EESH_EEE6paramsC2Ev
FNDA:0,_ZN5amgcl14preconditioner25schur_pressure_correctionINS_11make_solverINS_10relaxation17as_preconditionerINS_7backend7builtinIdEENS_7runtime10relaxation7wrapperEEENS8_6solver7wrapperIS7_NS_6solver6detail21default_inner_productEEEEENS2_INS_3amgIS7_NS8_10coarsening7wrapperESA_EESH_EEEC2ESt10shared_ptrINS5_3crsIdllEEERKNSO_6paramsERKNS_6detail12empty_paramsE
FNDA:0,_ZN5amgcl7backend13residual_implINS_14preconditioner25schur_pressure_correctionINS_11make_solverINS_10relaxation17as_preconditionerINS0_7builtinIdEENS_7runtime10relaxation7wrapperEEENS9_6solver7wrapperIS8_NS_6solver6detail21default_inner_productEEEEENS4_INS_3amgIS8_NS9_10coarsening7wrapperESB_EESI_EEEENS0_11numa_vectorIdEESR_SR_vE5applyERKSR_RKSP_SU_RSR_
FNDA:0,_ZNK5amgcl14preconditioner25schur_pressure_correctionINS_11make_solverINS_10relaxation17as_preconditionerINS_7backend7builtinIdEENS_7runtime10relaxation7wrapperEEENS8_6solver7wrapperIS7_NS_6solver6detail21default_inner_productEEEEENS2_INS_3amgIS7_NS8_10coarsening7wrapperESA_EESH_EEE4spmvIdNS5_11numa_vectorIdEEdSR_EEvT_RKT0_T1_RT2_
FNDA:0,_ZNK5amgcl14preconditioner25schur_pressure_correctionINS_11make_solverINS_10relaxation17as_preconditionerINS_7backend7builtinIdEENS_7runtime10relaxation7wrapperEEENS8_6solver7wrapperIS7_NS_6solver6detail21default_inner_productEEEEENS2_INS_3amgIS7_NS8_10coarsening7wrapperESA_EESH_EEE4spmvIiNS5_11numa_vectorIdEEiSR_EEvT_RKT0_T1_RT2_
FNDA:0,_ZNK5amgcl14preconditioner25schur_pressure_correctionINS_11make_solverINS_10relaxation17as_preconditionerINS_7backend7builtinIdEENS_7runtime10relaxation7wrapperEEENS8_6solver7wrapperIS7_NS_6solver6detail21default_inner_productEEEEENS2_INS_3amgIS7_NS8_10coarsening7wrapperESA_EESH_EEE5applyINS5_11numa_vectorIdEERSR_EEvRKT_OT0_
FNF:8
FNH:0
DA:111,0
DA:114,0
DA:115,0
DA:116,0
DA:117,0
DA:119,0
DA:121,0
DA:123,0
DA:127,0
DA:128,0
DA:130,0
DA:131,0
DA:132,0
DA:134,0
DA:135,0
DA:136,0
DA:141,0
DA:142,0
DA:144,0
DA:147,0
DA:148,0
DA:151,0
DA:152,0
DA:154,0
DA:155,0
DA:156,0
DA:157,0
DA:159,0
DA:165,0
DA:167,0
DA:189,0
DA:194,0
DA:196,0
DA:197,0
DA:200,0
DA:206,0
DA:213,0
DA:220,0
DA:225,0
DA:236,0
DA:242,0
DA:246,0
DA:249,0
DA:250,0
DA:261,0
DA:263,0
DA:271,0
DA:273,0
DA:274,0
DA:276,0
DA:277,0
DA:278,0
DA:279,0
DA:281,0
DA:304,0
DA:305,0
DA:306,0
DA:307,0
DA:309,0
DA:354,0
DA:355,0
DA:357,0
DA:358,0
DA:360,0
DA:361,0
DA:363,0
DA:364,0
DA:366,0
DA:368,0
DA:369,0
DA:377,0
DA:378,0
DA:379,0
DA:380,0
DA:388,0
DA:389,0
DA:390,0
DA:393,0
DA:397,0
DA:398,0
DA:402,0
DA:403,0
DA:404,0
DA:405,0
DA:413,0
DA:414,0
DA:416,0
DA:417,0
DA:418,0
DA:419,0
DA:421,0
DA:422,0
DA:425,0
DA:426,0
DA:427,0
DA:429,0
DA:430,0
DA:436,0
DA:437,0
DA:438,0
DA:439,0
DA:440,0
DA:471,0
DA:478,0
DA:481,0
DA:482,0
LF:106
LH:0
end_of_record
TN:
SF:/root/Kratos/external_libraries/amgcl/relaxation/as_preconditioner.hpp
FN:58,_ZN5amgcl10relaxation17as_preconditionerINS_7backend7builtinINS_13static_matrixIdLi2ELi2EEEEENS_7runtime10relaxation7wrapperEEC2INS_7adapter20block_matrix_adapterISt5tupleIJRmRN5boost7numeric5ublas15unbounded_arrayImSaImEEESM_RNSJ_IdSaIdEEEEES5_EEEERKT_RKNSG_13property_tree11basic_ptreeINSt7__cxx1112basic_stringIcSt11char_traitsIcESaIcEEES12_St4lessIS12_EEERKNS_6detail12empty_paramsE
FN:58,_ZN5amgcl10relaxation17as_preconditionerINS_7backend7builtinINS_13static_matrixIdLi3ELi3EEEEENS_7runtime10relaxation7wrapperEEC2INS_7adapter20block_matrix_adapterISt5tupleIJRmRN5boost7numeric5ublas15unbounded_arrayImSaImEEESM_RNSJ_IdSaIdEEEEES5_EEEERKT_RKNSG_13property_tree11basic_ptreeINSt7__cxx1112basic_stringIcSt11char_traitsIcESaIcEEES12_St4lessIS12_EEERKNS_6detail12empty_paramsE
FN:58,_ZN5amgcl10relaxation17as_preconditionerINS_7backend7builtinINS_13static_matrixIdLi4ELi4EEEEENS_7runtime10relaxation7wrapperEEC2INS_7adapter20block_matrix_adapterISt5tupleIJRmRN5boost7numeric5ublas15unbounded_arrayImSaImEEESM_RNSJ_IdSaIdEEEEES5_EEEERKT_RKNSG_13property_tree11basic_ptreeINSt7__cxx1112basic_stringIcSt11char_traitsIcESaIcEEES12_St4lessIS12_EEERKNS_6detail12empty_paramsE
FN:58,_ZN5amgcl10relaxation17as_preconditionerINS_7backend7builtinIdEENS_7runtime10relaxation7wrapperEEC2INS2_3crsIdllEEEERKT_RKN5boost13property_tree11basic_ptreeINSt7__cxx1112basic_stringIcSt11char_traitsIcESaIcEEESN_St4lessISN_EEERKNS_6detail12empty_paramsE
FN:68,_ZN5amgcl10relaxation17as_preconditionerINS_7backend7builtinIdEENS_7runtime10relaxation7wrapperEEC2ESt10shared_ptrINS2_3crsIdllEEERKN5boost13property_tree11basic_ptreeINSt7__cxx1112basic_stringIcSt11char_traitsIcESaIcEEESL_St4lessISL_EEERKNS_6detail12empty_paramsE
FN:91,_ZNK5amgcl10relaxation17as_preconditionerINS_7backend7builtinINS_13static_matrixIdLi2ELi2EEEEENS_7runtime10relaxation7wrapperEE5bytesEv
FN:91,_ZNK5amgcl10relaxation17as_preconditionerINS_7backend7builtinINS_13static_matrixIdLi3ELi3EEEEENS_7runtime10relaxation7wrapperEE5bytesEv
FN:91,_ZNK5amgcl10relaxation17as_preconditionerINS_7backend7builtinINS_13static_matrixIdLi4ELi4EEEEENS_7runtime10relaxation7wrapperEE5bytesEv
FN:91,_ZNK5amgcl10relaxation17as_preconditionerINS_7backend7builtinIdEENS_7runtime10relaxation7wrapperEE5bytesEv
FN:105,_ZN5amgcl10relaxation17as_preconditionerINS_7backend7builtinINS_13static_matrixIdLi2ELi2EEEEENS_7runtime10relaxation7wrapperEE4initESt10shared_ptrINS2_3crsIS5_llEEERKNS_6detail12empty_paramsE
FN:105,_ZN5amgcl10relaxation17as_preconditionerINS_7backend7builtinINS_13static_matrixIdLi3ELi3EEEEENS_7runtime10relaxation7wrapperEE4initESt10shared_ptrINS2_3crsIS5_llEEERKNS_6detail12empty_paramsE
FN:105,_ZN5amgcl10relaxation17as_preconditionerINS_7backend7builtinINS_13static_matrixIdLi4ELi4EEEEENS_7runtime10relaxation7wrapperEE4initESt10shared_ptrINS2_3crsIS5_llEEERKNS_6detail12empty_paramsE
FN:105,_ZN5amgcl10relaxation17as_preconditionerINS_7backend7builtinIdEENS_7runtime10relaxation7wrapperEE4initESt10shared_ptrINS2_3crsIdllEEERKNS_6detail12empty_paramsE
FNDA:0,_ZN5amgcl10relaxation17as_preconditionerINS_7backend7builtinINS_13static_matrixIdLi2ELi2EEEEENS_7runtime10relaxation7wrapperEE4initESt10shared_ptrINS2_3crsIS5_llEEERKNS_6detail12empty_paramsE
FNDA:0,_ZN5amgcl10relaxation17as_preconditionerINS_7backend7builtinINS_13static_matrixIdLi2ELi2EEEEENS_7runtime10relaxation7wrapperEEC2INS_7adapter20block_matrix_adapterISt5tupleIJRmRN5boost7numeric5ublas15unbounded_arrayImSaImEEESM_RNSJ_IdSaIdEEEEES5_EEEERKT_RKNSG_13property_tree11basic_ptreeINSt7__cxx1112basic_stringIcSt11char_traitsIcESaIcEEES12_St4lessIS12_EEERKNS_6detail12empty_paramsE
FNDA:0,_ZN5amgcl10relaxation17as_preconditionerINS_7backend7builtinINS_13static_matrixIdLi3ELi3EEEEENS_7runtime10relaxation7wrapperEE4initESt10shared_ptrINS2_3crsIS5_llEEERKNS_6detail12empty_paramsE
FNDA:0,_ZN5amgcl10relaxation17as_preconditionerINS_7backend7builtinINS_13static_matrixIdLi3ELi3EEEEENS_7runtime10relaxation7wrapperEEC2INS_7adapter20block_matrix_adapterISt5tupleIJRmRN5boost7numeric5ublas15unbounded_arrayImSaImEEESM_RNSJ_IdSaIdEEEEES5_EEEERKT_RKNSG_13property_tree11basic_ptreeINSt7__cxx1112basic_stringIcSt11char_traitsIcESaIcEEES12_St4lessIS12_EEERKNS_6detail12empty_paramsE
FNDA:0,_ZN5amgcl10relaxation17as_preconditionerINS_7backend7builtinINS_13static_matrixIdLi4ELi4EEEEENS_7runtime10relaxation7wrapperEE4initESt10shared_ptrINS2_3crsIS5_llEEERKNS_6detail12empty_paramsE
FNDA:0,_ZN5amgcl10relaxation17as_preconditionerINS_7backend7builtinINS_13static_matrixIdLi4ELi4EEEEENS_7runtime10relaxation7wrapperEEC2INS_7adapter20block_matrix_adapterISt5tupleIJRmRN5boost7numeric5ublas15unbounded_arrayImSaImEEESM_RNSJ_IdSaIdEEEEES5_EEEERKT_RKNSG_13property_tree11basic_ptreeINSt7__cxx1112basic_stringIcSt11char_traitsIcESaIcEEES12_St4lessIS12_EEERKNS_6detail12empty_paramsE
FNDA:0,_ZN5amgcl10relaxation17as_preconditionerINS_7backend7builtinIdEENS_7runtime10relaxation7wrapperEE4initESt10shared_ptrINS2_3crsIdllEEERKNS_6detail12empty_paramsE
FNDA:0,_ZN5amgcl10relaxation17as_preconditionerINS_7backend7builtinIdEENS_7runtime10relaxation7wrapperEEC2ESt10shared_ptrINS2_3crsIdllEEERKN5boost13property_tree11basic_ptreeINSt7__cxx1112basic_stringIcSt11char_traitsIcESaIcEEESL_St4lessISL_EEERKNS_6detail12empty_paramsE
FNDA:0,_ZN5amgcl10relaxation17as_preconditionerINS_7backend7builtinIdEENS_7runtime10relaxation7wrapperEEC2INS2_3crsIdllEEEERKT_RKN5boost13property_tree11basic_ptreeINSt7__cxx1112basic_stringIcSt11char_traitsIcESaIcEEESN_St4lessISN_EEERKNS_6detail12empty_paramsE
FNDA:0,_ZNK5amgcl10relaxation17as_preconditionerINS_7backend7builtinINS_13static_matrixIdLi2ELi2EEEEENS_7runtime10relaxation7wrapperEE5bytesEv
FNDA:0,_ZNK5amgcl10relaxation17as_preconditionerINS_7backend7builtinINS_13static_matrixIdLi3ELi3EEEEENS_7runtime10relaxation7wrapperEE5bytesEv
FNDA:0,_ZNK5amgcl10relaxation17as_preconditionerINS_7backend7builtinINS_13static_matrixIdLi4ELi4EEEEENS_7runtime10relaxation7wrapperEE5bytesEv
FNDA:0,_ZNK5amgcl10relaxation17as_preconditionerINS_7backend7builtinIdEENS_7runtime10relaxation7wrapperEE5bytesEv
FNF:13
FNH:0
DA:58,0
DA:63,0
DA:65,0
DA:66,0
DA:68,0
DA:73,0
DA:75,0
DA:76,0
DA:80,0
DA:81,0
DA:88,0
DA:91,0
DA:94,0
DA:95,0
DA:97,0
DA:105,0
DA:106,0
DA:107,0
DA:108,0
LF:19
LH:0
end_of_record
TN:
SF:/root/Kratos/external_libraries/amgcl/relaxation/chebyshev.hpp
FN:92,_ZN5amgcl10relaxation9chebyshevINS_7backend7builtinINS_13static_matrixIdLi2ELi2EEEEEE6paramsC2ERKN5boost13property_tree11basic_ptreeINSt7__cxx1112basic_stringIcSt11char_traitsIcESaIcEEESH_St4lessISH_EEE
FN:92,_ZN5amgcl10relaxation9chebyshevINS_7backend7builtinINS_13static_matrixIdLi3ELi3EEEEEE6paramsC2ERKN5boost13property_tree11basic_ptreeINSt7__cxx1112basic_stringIcSt11char_traitsIcESaIcEEESH_St4lessISH_EEE
FN:92,_ZN5amgcl10relaxation9chebyshevINS_7backend7builtinINS_13static_matrixIdLi4ELi4EEEEEE6paramsC2ERKN5boost13property_tree11basic_ptreeINSt7__cxx1112basic_stringIcSt11char_traitsIcESaIcEEESH_St4lessISH_EEE
FN:92,_ZN5amgcl10relaxation9chebyshevINS_7backend7builtinIdEEE6paramsC2ERKN5boost13property_tree11basic_ptreeINSt7__cxx1112basic_stringIcSt11char_traitsIcESaIcEEESF_St4lessISF_EEE
FN:114,_ZN5amgcl10relaxation9chebyshevINS_7backend7builtinINS_13static_matrixIdLi2ELi2EEEEEEC2INS2_3crsIS5_llEEEERKT_RKNS7_6paramsERKNS_6detail12empty_paramsE
FN:114,_ZN5amgcl10relaxation9chebyshevINS_7backend7builtinINS_13static_matrixIdLi3ELi3EEEEEEC2INS2_3crsIS5_llEEEERKT_RKNS7_6paramsERKNS_6detail12empty_paramsE
FN:114,_ZN5amgcl10relaxation9chebyshevINS_7backend7builtinINS_13static_matrixIdLi4ELi4EEEEEEC2INS2_3crsIS5_llEEEERKT_RKNS7_6paramsERKNS_6detail12empty_paramsE
FN:114,_ZN5amgcl10relaxation9chebyshevINS_7backend7builtinIdEEEC2INS2_3crsIdllEEEERKT_RKNS5_6paramsERKNS_6detail12empty_paramsE
FN:157,_ZNK5amgcl10relaxation9chebyshevINS_7backend7builtinINS_13static_matrixIdLi2ELi2EEEEEE5applyINS2_3crsIS5_llEENS2_11numa_vectorINS4_IdLi2ELi1EEEEESD_EEvRKT_RKT0_RT1_
FN:157,_ZNK5amgcl10relaxation9chebyshevINS_7backend7builtinINS_13static_matrixIdLi3ELi3EEEEEE5applyINS2_3crsIS5_llEENS2_11numa_vectorINS4_IdLi3ELi1EEEEESD_EEvRKT_RKT0_RT1_
FN:157,_ZNK5amgcl10relaxation9chebyshevINS_7backend7builtinINS_13static_matrixIdLi4ELi4EEEEEE5applyINS2_3crsIS5_llEENS2_11numa_vectorINS4_IdLi4ELi1EEEEESD_EEvRKT_RKT0_RT1_
FN:157,_ZNK5amgcl10relaxation9chebyshevINS_7backend7builtinIdEEE5applyINS2_3crsIdllEENS2_11numa_vectorIdEESA_EEvRKT_RKT0_RT1_
FN:176,_ZNK5amgcl10relaxation9chebyshevINS_7backend7builtinINS_13static_matrixIdLi2ELi2EEEEEE5solveINS2_3crsIS5_llEENS2_11numa_vectorINS4_IdLi2ELi1EEEEESD_EEvRKT_RKT0_RT1_
FN:176,_ZNK5amgcl10relaxation9chebyshevINS_7backend7builtinINS_13static_matrixIdLi3ELi3EEEEEE5solveINS2_3crsIS5_llEENS2_11numa_vectorINS4_IdLi3ELi1EEEEESD_EEvRKT_RKT0_RT1_
FN:176,_ZNK5amgcl10relaxation9chebyshevINS_7backend7builtinINS_13static_matrixIdLi4ELi4EEEEEE5solveINS2_3crsIS5_llEENS2_11numa_vectorINS4_IdLi4ELi1EEEEESD_EEvRKT_RKT0_RT1_
FN:176,_ZNK5amgcl10relaxation9chebyshevINS_7backend7builtinIdEEE5solveINS2_3crsIdllEENS2_11numa_vectorIdEESA_EEvRKT_RKT0_RT1_
FNDA:0,_ZN5amgcl10relaxation9chebyshevINS_7backend7builtinINS_13static_matrixIdLi2ELi2EEEEEE6paramsC2ERKN5boost13property_tree11basic_ptreeINSt7__cxx1112basic_stringIcSt11char_traitsIcESaIcEEESH_St4lessISH_EEE
FNDA:0,_ZN5amgcl10relaxation9chebyshevINS_7backend7builtinINS_13static_matrixIdLi2ELi2EEEEEEC2INS2_3crsIS5_llEEEERKT_RKNS7_6paramsERKNS_6detail12empty_paramsE
FNDA:0,_ZN5amgcl10relaxation9chebyshevINS_7backend7builtinINS_13static_matrixIdLi3ELi3EEEEEE6paramsC2ERKN5boost13property_tree11basic_ptreeINSt7__cxx1112basic_stringIcSt11char_traitsIcESaIcEEESH_St4lessISH_EEE
FNDA:0,_ZN5amgcl10relaxation9chebyshevINS_7backend7builtinINS_13static_matrixIdLi3ELi3EEEEEEC2INS2_3crsIS5_llEEEERKT_RKNS7_6paramsERKNS_6detail12empty_paramsE
FNDA:0,_ZN5amgcl10relaxation9chebyshevINS_7backend7builtinINS_13static_matrixIdLi4ELi4EEEEEE6paramsC2ERKN5boost13property_tree11basic_ptreeINSt7__cxx1112basic_stringIcSt11char_traitsIcESaIcEEESH_St4lessISH_EEE
FNDA:0,_ZN5amgcl10relaxation9chebyshevINS_7backend7builtinINS_13static_matrixIdLi4ELi4EEEEEEC2INS2_3crsIS5_llEEEERKT_RKNS7_6paramsERKNS_6detail12empty_paramsE
FNDA:0,_ZN5amgcl10relaxation9chebyshevINS_7backend7builtinIdEEE6paramsC2ERKN5boost13property_tree11basic_ptreeINSt7__cxx1112basic_stringIcSt11char_traitsIcESaIcEEESF_St4lessISF_EEE
FNDA:0,_ZN5amgcl10relaxation9chebyshevINS_7backend7builtinIdEEEC2INS2_3crsIdllEEEERKT_RKNS5_6paramsERKNS_6detail12empty_paramsE
FNDA:0,_ZNK5amgcl10relaxation9chebyshevINS_7backend7builtinINS_13static_matrixIdLi2ELi2EEEEEE5applyINS2_3crsIS5_llEENS2_11numa_vectorINS4_IdLi2ELi1EEEEESD_EEvRKT_RKT0_RT1_
FNDA:0,_ZNK5amgcl10relaxation9chebyshevINS_7backend7builtinINS_13static_matrixIdLi2ELi2EEEEEE5solveINS2_3crsIS5_llEENS2_11numa_vectorINS4_IdLi2ELi1EEEEESD_EEvRKT_RKT0_RT1_
FNDA:0,_ZNK5amgcl10relaxation9chebyshevINS_7backend7builtinINS_13static_matrixIdLi3ELi3EEEEEE5applyINS2_3crsIS5_llEENS2_11numa_vectorINS4_IdLi3ELi1EEEEESD_EEvRKT_RKT0_RT1_
FNDA:0,_ZNK5amgcl10relaxation9chebyshevINS_7backend7builtinINS_13static_matrixIdLi3ELi3EEEEEE5solveINS2_3crsIS5_llEENS2_11numa_vectorINS4_IdLi3ELi1EEEEESD_EEvRKT_RKT0_RT1_
FNDA:0,_ZNK5amgcl10relaxation9chebyshevINS_7backend7builtinINS_13static_matrixIdLi4ELi4EEEEEE5applyINS2_3crsIS5_llEENS2_11numa_vectorINS4_IdLi4ELi1EEEEESD_EEvRKT_RKT0_RT1_
FNDA:0,_ZNK5amgcl10relaxation9chebyshevINS_7backend7builtinINS_13static_matrixIdLi4ELi4EEEEEE5solveINS2_3crsIS5_llEENS2_11numa_vectorINS4_IdLi4ELi1EEEEESD_EEvRKT_RKT0_RT1_
FNDA:0,_ZNK5amgcl10relaxation9chebyshevINS_7backend7builtinIdEEE5applyINS2_3crsIdllEENS2_11numa_vectorIdEESA_EEvRKT_RKT0_RT1_
FNDA:0,_ZNK5amgcl10relaxation9chebyshevINS_7backend7builtinIdEEE5solveINS2_3crsIdllEENS2_11numa_vectorIdEESA_EEvRKT_RKT0_RT1_
FNF:16
FNH:0
DA:86,0
DA:87,0
DA:88,0
DA:92,0
DA:93,0
DA:94,0
DA:95,0
DA:96,0
DA:97,0
DA:99,0
DA:100,0
DA:114,0
DA:117,0
DA:118,0
DA:119,0
DA:123,0
DA:124,0
DA:125,0
DA:127,0
DA:130,0
DA:131,0
DA:134,0
DA:137,0
DA:138,0
DA:145,0
DA:153,0
DA:157,0
DA:160,0
DA:161,0
DA:164,0
DA:165,0
DA:176,0
DA:178,0
DA:179,0
DA:181,0
DA:183,0
DA:186,0
DA:188,0
DA:190,0
DA:191,0
DA:192,0
DA:193,0
DA:195,0
DA:196,0
DA:200,0
DA:202,0
LF:46
LH:0
end_of_record
TN:
SF:/root/Kratos/external_libraries/amgcl/relaxation/damped_jacobi.hpp
FN:66,_ZN5amgcl10relaxation13damped_jacobiINS_7backend7builtinINS_13static_matrixIdLi2ELi2EEEEEE6paramsC2ERKN5boost13property_tree11basic_ptreeINSt7__cxx1112basic_stringIcSt11char_traitsIcESaIcEEESH_St4lessISH_EEE
FN:66,_ZN5amgcl10relaxation13damped_jacobiINS_7backend7builtinINS_13static_matrixIdLi3ELi3EEEEEE6paramsC2ERKN5boost13property_tree11basic_ptreeINSt7__cxx1112basic_stringIcSt11char_traitsIcESaIcEEESH_St4lessISH_EEE
FN:66,_ZN5amgcl10relaxation13damped_jacobiINS_7backend7builtinINS_13static_matrixIdLi4ELi4EEEEEE6paramsC2ERKN5boost13property_tree11basic_ptreeINSt7__cxx1112basic_stringIcSt11char_traitsIcESaIcEEESH_St4lessISH_EEE
FN:66,_ZN5amgcl10relaxation13damped_jacobiINS_7backend7builtinIdEEE6paramsC2ERKN5boost13property_tree11basic_ptreeINSt7__cxx1112basic_stringIcSt11char_traitsIcESaIcEEESF_St4lessISF_EEE
FN:104,_ZNK5amgcl10relaxation13damped_jacobiINS_7backend7builtinINS_13static_matrixIdLi2ELi2EEEEEE9apply_preINS2_3crsIS5_llEENS2_11numa_vectorINS4_IdLi2ELi1EEEEESD_SD_EEvRKT_RKT0_RT1_RT2_
FN:104,_ZNK5amgcl10relaxation13damped_jacobiINS_7backend7builtinINS_13static_matrixIdLi3ELi3EEEEEE9apply_preINS2_3crsIS5_llEENS2_11numa_vectorINS4_IdLi3ELi1EEEEESD_SD_EEvRKT_RKT0_RT1_RT2_
FN:104,_ZNK5amgcl10relaxation13damped_jacobiINS_7backend7builtinINS_13static_matrixIdLi4ELi4EEEEEE9apply_preINS2_3crsIS5_llEENS2_11numa_vectorINS4_IdLi4ELi1EEEEESD_SD_EEvRKT_RKT0_RT1_RT2_
FN:104,_ZNK5amgcl10relaxation13damped_jacobiINS_7backend7builtinIdEEE9apply_preINS2_3crsIdllEENS2_11numa_vectorIdEESA_SA_EEvRKT_RKT0_RT1_RT2_
FN:121,_ZNK5amgcl10relaxation13damped_jacobiINS_7backend7builtinINS_13static_matrixIdLi2ELi2EEEEEE10apply_postINS2_3crsIS5_llEENS2_11numa_vectorINS4_IdLi2ELi1EEEEESD_SD_EEvRKT_RKT0_RT1_RT2_
FN:121,_ZNK5amgcl10relaxation13damped_jacobiINS_7backend7builtinINS_13static_matrixIdLi3ELi3EEEEEE10apply_postINS2_3crsIS5_llEENS2_11numa_vectorINS4_IdLi3ELi1EEEEESD_SD_EEvRKT_RKT0_RT1_RT2_
FN:121,_ZNK5amgcl10relaxation13damped_jacobiINS_7backend7builtinINS_13static_matrixIdLi4ELi4EEEEEE10apply_postINS2_3crsIS5_llEENS2_11numa_vectorINS4_IdLi4ELi1EEEEESD_SD_EEvRKT_RKT0_RT1_RT2_
FN:121,_ZNK5amgcl10relaxation13damped_jacobiINS_7backend7builtinIdEEE10apply_postINS2_3crsIdllEENS2_11numa_vectorIdEESA_SA_EEvRKT_RKT0_RT1_RT2_
FNDA:0,_ZN5amgcl10relaxation13damped_jacobiINS_7backend7builtinINS_13static_matrixIdLi2ELi2EEEEEE6paramsC2ERKN5boost13property_tree11basic_ptreeINSt7__cxx1112basic_stringIcSt11char_traitsIcESaIcEEESH_St4lessISH_EEE
FNDA:0,_ZN5amgcl10relaxation13damped_jacobiINS_7backend7builtinINS_13static_matrixIdLi3ELi3EEEEEE6paramsC2ERKN5boost13property_tree11basic_ptreeINSt7__cxx1112basic_stringIcSt11char_traitsIcESaIcEEESH_St4lessISH_EEE
FNDA:0,_ZN5amgcl10relaxation13damped_jacobiINS_7backend7builtinINS_13static_matrixIdLi4ELi4EEEEEE6paramsC2ERKN5boost13property_tree11basic_ptreeINSt7__cxx1112basic_stringIcSt11char_traitsIcESaIcEEESH_St4lessISH_EEE
FNDA:0,_ZN5amgcl10relaxation13damped_jacobiINS_7backend7builtinIdEEE6paramsC2ERKN5boost13property_tree11basic_ptreeINSt7__cxx1112basic_stringIcSt11char_traitsIcESaIcEEESF_St4lessISF_EEE
FNDA:0,_ZNK5amgcl10relaxation13damped_jacobiINS_7backend7builtinINS_13static_matrixIdLi2ELi2EEEEEE10apply_postINS2_3crsIS5_llEENS2_11numa_vectorINS4_IdLi2ELi1EEEEESD_SD_EEvRKT_RKT0_RT1_RT2_
FNDA:0,_ZNK5amgcl10relaxation13damped_jacobiINS_7backend7builtinINS_13static_matrixIdLi2ELi2EEEEEE9apply_preINS2_3crsIS5_llEENS2_11numa_vectorINS4_IdLi2ELi1EEEEESD_SD_EEvRKT_RKT0_RT1_RT2_
FNDA:0,_ZNK5amgcl10relaxation13damped_jacobiINS_7backend7builtinINS_13static_matrixIdLi3ELi3EEEEEE10apply_postINS2_3crsIS5_llEENS2_11numa_vectorINS4_IdLi3ELi1EEEEESD_SD_EEvRKT_RKT0_RT1_RT2_
FNDA:0,_ZNK5amgcl10relaxation13damped_jacobiINS_7backend7builtinINS_13static_matrixIdLi3ELi3EEEEEE9apply_preINS2_3crsIS5_llEENS2_11numa_vectorINS4_IdLi3ELi1EEEEESD_SD_EEvRKT_RKT0_RT1_RT2_
FNDA:0,_ZNK5amgcl10relaxation13damped_jacobiINS_7backend7builtinINS_13static_matrixIdLi4ELi4EEEEEE10apply_postINS2_3crsIS5_llEENS2_11numa_vectorINS4_IdLi4ELi1EEEEESD_SD_EEvRKT_RKT0_RT1_RT2_
FNDA:0,_ZNK5amgcl10relaxation13damped_jacobiINS_7backend7builtinINS_13static_matrixIdLi4ELi4EEEEEE9apply_preINS2_3crsIS5_llEENS2_11numa_vectorINS4_IdLi4ELi1EEEEESD_SD_EEvRKT_RKT0_RT1_RT2_
FNDA:0,_ZNK5amgcl10relaxation13damped_jacobiINS_7backend7builtinIdEEE10apply_postINS2_3crsIdllEENS2_11numa_vectorIdEESA_SA_EEvRKT_RKT0_RT1_RT2_
FNDA:0,_ZNK5amgcl10relaxation13damped_jacobiINS_7backend7builtinIdEEE9apply_preINS2_3crsIdllEENS2_11numa_vectorIdEESA_SA_EEvRKT_RKT0_RT1_RT2_
FNF:12
FNH:0
DA:54,0
DA:63,0
DA:66,0
DA:67,0
DA:69,0
DA:70,0
DA:87,0
DA:92,0
DA:104,0
DA:109,0
DA:110,0
DA:121,0
DA:126,0
DA:127,0
LF:14
LH:0
end_of_record
TN:
SF:/root/Kratos/external_libraries/amgcl/relaxation/detail/ilu_solve.hpp
FN:146,_ZN5amgcl10relaxation6detail9ilu_solveINS_7backend7builtinINS_13static_matrixIdLi2ELi2EEEEEE6paramsC2ERKN5boost13property_tree11basic_ptreeINSt7__cxx1112basic_stringIcSt11char_traitsIcESaIcEEESI_St4lessISI_EEE
FN:146,_ZN5amgcl10relaxation6detail9ilu_solveINS_7backend7builtinINS_13static_matrixIdLi3ELi3EEEEEE6paramsC2ERKN5boost13property_tree11basic_ptreeINSt7__cxx1112basic_stringIcSt11char_traitsIcESaIcEEESI_St4lessISI_EEE
FN:146,_ZN5amgcl10relaxation6detail9ilu_solveINS_7backend7builtinINS_13static_matrixIdLi4ELi4EEEEEE6paramsC2ERKN5boost13property_tree11basic_ptreeINSt7__cxx1112basic_stringIcSt11char_traitsIcESaIcEEESI_St4lessISI_EEE
FN:146,_ZN5amgcl10relaxation6detail9ilu_solveINS_7backend7builtinIdEEE6paramsC2ERKN5boost13property_tree11basic_ptreeINSt7__cxx1112basic_stringIcSt11char_traitsIcESaIcEEESG_St4lessISG_EEE
FN:158,_ZN5amgcl10relaxation6detail9ilu_solveINS_7backend7builtinINS_13static_matrixIdLi2ELi2EEEEEEC2ESt10shared_ptrINS3_3crsIS6_llEEESC_S9_INS3_11numa_vectorIS6_EEERKNS8_6paramsERKNS_6detail12empty_paramsE
FN:158,_ZN5amgcl10relaxation6detail9ilu_solveINS_7backend7builtinINS_13static_matrixIdLi3ELi3EEEEEEC2ESt10shared_ptrINS3_3crsIS6_llEEESC_S9_INS3_11numa_vectorIS6_EEERKNS8_6paramsERKNS_6detail12empty_paramsE
FN:158,_ZN5amgcl10relaxation6detail9ilu_solveINS_7backend7builtinINS_13static_matrixIdLi4ELi4EEEEEEC2ESt10shared_ptrINS3_3crsIS6_llEEESC_S9_INS3_11numa_vectorIS6_EEERKNS8_6paramsERKNS_6detail12empty_paramsE
FN:158,_ZN5amgcl10relaxation6detail9ilu_solveINS_7backend7builtinIdEEEC2ESt10shared_ptrINS3_3crsIdllEEESA_S7_INS3_11numa_vectorIdEEERKNS6_6paramsERKNS_6detail12empty_paramsE
FN:173,_ZN5amgcl10relaxation6detail9ilu_solveINS_7backend7builtinINS_13static_matrixIdLi2ELi2EEEEEE5solveINS3_11numa_vectorINS5_IdLi2ELi1EEEEEEEvRT_
FN:173,_ZN5amgcl10relaxation6detail9ilu_solveINS_7backend7builtinINS_13static_matrixIdLi3ELi3EEEEEE5solveINS3_11numa_vectorINS5_IdLi3ELi1EEEEEEEvRT_
FN:173,_ZN5amgcl10relaxation6detail9ilu_solveINS_7backend7builtinINS_13static_matrixIdLi4ELi4EEEEEE5solveINS3_11numa_vectorINS5_IdLi4ELi1EEEEEEEvRT_
FN:173,_ZN5amgcl10relaxation6detail9ilu_solveINS_7backend7builtinIdEEE5solveINS3_11numa_vectorIdEEEEvRT_
FN:180,_ZNK5amgcl10relaxation6detail9ilu_solveINS_7backend7builtinINS_13static_matrixIdLi2ELi2EEEEEE5bytesEv
FN:180,_ZNK5amgcl10relaxation6detail9ilu_solveINS_7backend7builtinINS_13static_matrixIdLi3ELi3EEEEEE5bytesEv
FN:180,_ZNK5amgcl10relaxation6detail9ilu_solveINS_7backend7builtinINS_13static_matrixIdLi4ELi4EEEEEE5bytesEv
FN:180,_ZNK5amgcl10relaxation6detail9ilu_solveINS_7backend7builtinIdEEE5bytesEv
FN:216,_ZN5amgcl10relaxation6detail9ilu_solveINS_7backend7builtinINS_13static_matrixIdLi2ELi2EEEEEE11serial_initESt10shared_ptrINS3_3crsIS6_llEEESC_S9_INS3_11numa_vectorIS6_EEE
FN:216,_ZN5amgcl10relaxation6detail9ilu_solveINS_7backend7builtinINS_13static_matrixIdLi3ELi3EEEEEE11serial_initESt10shared_ptrINS3_3crsIS6_llEEESC_S9_INS3_11numa_vectorIS6_EEE
FN:216,_ZN5amgcl10relaxation6detail9ilu_solveINS_7backend7builtinINS_13static_matrixIdLi4ELi4EEEEEE11serial_initESt10shared_ptrINS3_3crsIS6_llEEESC_S9_INS3_11numa_vectorIS6_EEE
FN:216,_ZN5amgcl10relaxation6detail9ilu_solveINS_7backend7builtinIdEEE11serial_initESt10shared_ptrINS3_3crsIdllEEESA_S7_INS3_11numa_vectorIdEEE
FN:228,_ZN5amgcl10relaxation6detail9ilu_solveINS_7backend7builtinINS_13static_matrixIdLi2ELi2EEEEEE12serial_solveINS3_11numa_vectorINS5_IdLi2ELi1EEEEEEEvRT_
FN:228,_ZN5amgcl10relaxation6detail9ilu_solveINS_7backend7builtinINS_13static_matrixIdLi3ELi3EEEEEE12serial_solveINS3_11numa_vectorINS5_IdLi3ELi1EEEEEEEvRT_
FN:228,_ZN5amgcl10relaxation6detail9ilu_solveINS_7backend7builtinINS_13static_matrixIdLi4ELi4EEEEEE12serial_solveINS3_11numa_vectorINS5_IdLi4ELi1EEEEEEEvRT_
FN:228,_ZN5amgcl10relaxation6detail9ilu_solveINS_7backend7builtinIdEEE12serial_solveINS3_11numa_vectorIdEEEEvRT_
FN:273,_ZN5amgcl10relaxation6detail9ilu_solveINS_7backend7builtinINS_13static_matrixIdLi2ELi2EEEEEE10sptr_solveILb0EEC2INS3_3crsIS6_llEEEERKT_PKS6_
FN:273,_ZN5amgcl10relaxation6detail9ilu_solveINS_7backend7builtinINS_13static_matrixIdLi2ELi2EEEEEE10sptr_solveILb1EEC2INS3_3crsIS6_llEEEERKT_PKS6_
FN:273,_ZN5amgcl10relaxation6detail9ilu_solveINS_7backend7builtinINS_13static_matrixIdLi3ELi3EEEEEE10sptr_solveILb0EEC2INS3_3crsIS6_llEEEERKT_PKS6_
FN:273,_ZN5amgcl10relaxation6detail9ilu_solveINS_7backend7builtinINS_13static_matrixIdLi3ELi3EEEEEE10sptr_solveILb1EEC2INS3_3crsIS6_llEEEERKT_PKS6_
FN:273,_ZN5amgcl10relaxation6detail9ilu_solveINS_7backend7builtinINS_13static_matrixIdLi4ELi4EEEEEE10sptr_solveILb0EEC2INS3_3crsIS6_llEEEERKT_PKS6_
FN:273,_ZN5amgcl10relaxation6detail9ilu_solveINS_7backend7builtinINS_13static_matrixIdLi4ELi4EEEEEE10sptr_solveILb1EEC2INS3_3crsIS6_llEEEERKT_PKS6_
FN:273,_ZN5amgcl10relaxation6detail9ilu_solveINS_7backend7builtinIdEEE10sptr_solveILb0EEC2INS3_3crsIdllEEEERKT_PKd
FN:273,_ZN5amgcl10relaxation6detail9ilu_solveINS_7backend7builtinIdEEE10sptr_solveILb1EEC2INS3_3crsIdllEEEERKT_PKd
FN:415,_ZNK5amgcl10relaxation6detail9ilu_solveINS_7backend7builtinINS_13static_matrixIdLi2ELi2EEEEEE10sptr_solveILb0EE5bytesEv
FN:415,_ZNK5amgcl10relaxation6detail9ilu_solveINS_7backend7builtinINS_13static_matrixIdLi2ELi2EEEEEE10sptr_solveILb1EE5bytesEv
FN:415,_ZNK5amgcl10relaxation6detail9ilu_solveINS_7backend7builtinINS_13static_matrixIdLi3ELi3EEEEEE10sptr_solveILb0EE5bytesEv
FN:415,_ZNK5amgcl10relaxation6detail9ilu_solveINS_7backend7builtinINS_13static_matrixIdLi3ELi3EEEEEE10sptr_solveILb1EE5bytesEv
FN:415,_ZNK5amgcl10relaxation6detail9ilu_solveINS_7backend7builtinINS_13static_matrixIdLi4ELi4EEEEEE10sptr_solveILb0EE5bytesEv
FN:415,_ZNK5amgcl10relaxation6detail9ilu_solveINS_7backend7builtinINS_13static_matrixIdLi4ELi4EEEEEE10sptr_solveILb1EE5bytesEv
FN:415,_ZNK5amgcl10relaxation6detail9ilu_solveINS_7backend7builtinIdEEE10sptr_solveILb0EE5bytesEv
FN:415,_ZNK5amgcl10relaxation6detail9ilu_solveINS_7backend7builtinIdEEE10sptr_solveILb1EE5bytesEv
FN:435,_ZN5amgcl10relaxation6detail9ilu_solveINS_7backend7builtinINS_13static_matrixIdLi2ELi2EEEEEE13parallel_initESt10shared_ptrINS3_3crsIS6_llEEESC_S9_INS3_11numa_vectorIS6_EEE
FN:435,_ZN5amgcl10relaxation6detail9ilu_solveINS_7backend7builtinINS_13static_matrixIdLi3ELi3EEEEEE13parallel_initESt10shared_ptrINS3_3crsIS6_llEEESC_S9_INS3_11numa_vectorIS6_EEE
FN:435,_ZN5amgcl10relaxation6detail9ilu_solveINS_7backend7builtinINS_13static_matrixIdLi4ELi4EEEEEE13parallel_initESt10shared_ptrINS3_3crsIS6_llEEESC_S9_INS3_11numa_vectorIS6_EEE
FN:435,_ZN5amgcl10relaxation6detail9ilu_solveINS_7backend7builtinIdEEE13parallel_initESt10shared_ptrINS3_3crsIdllEEESA_S7_INS3_11numa_vectorIdEEE
FN:446,_ZN5amgcl10relaxation6detail9ilu_solveINS_7backend7builtinINS_13static_matrixIdLi2ELi2EEEEEE14parallel_solveINS3_11numa_vectorINS5_IdLi2ELi1EEEEEEEvRT_
FN:446,_ZN5amgcl10relaxation6detail9ilu_solveINS_7backend7builtinINS_13static_matrixIdLi3ELi3EEEEEE14parallel_solveINS3_11numa_vectorINS5_IdLi3ELi1EEEEEEEvRT_
FN:446,_ZN5amgcl10relaxation6detail9ilu_solveINS_7backend7builtinINS_13static_matrixIdLi4ELi4EEEEEE14parallel_solveINS3_11numa_vectorINS5_IdLi4ELi1EEEEEEEvRT_
FN:446,_ZN5amgcl10relaxation6detail9ilu_solveINS_7backend7builtinIdEEE14parallel_solveINS3_11numa_vectorIdEEEEvRT_
FNDA:0,_ZN5amgcl10relaxation6detail9ilu_solveINS_7backend7builtinINS_13static_matrixIdLi2ELi2EEEEEE10sptr_solveILb0EEC2INS3_3crsIS6_llEEEERKT_PKS6_
FNDA:0,_ZN5amgcl10relaxation6detail9ilu_solveINS_7backend7builtinINS_13static_matrixIdLi2ELi2EEEEEE10sptr_solveILb1EEC2INS3_3crsIS6_llEEEERKT_PKS6_
FNDA:0,_ZN5amgcl10relaxation6detail9ilu_solveINS_7backend7builtinINS_13static_matrixIdLi2ELi2EEEEEE11serial_initESt10shared_ptrINS3_3crsIS6_llEEESC_S9_INS3_11numa_vectorIS6_EEE
FNDA:0,_ZN5amgcl10relaxation6detail9ilu_solveINS_7backend7builtinINS_13static_matrixIdLi2ELi2EEEEEE12serial_solveINS3_11numa_vectorINS5_IdLi2ELi1EEEEEEEvRT_
FNDA:0,_ZN5amgcl10relaxation6detail9ilu_solveINS_7backend7builtinINS_13static_matrixIdLi2ELi2EEEEEE13parallel_initESt10shared_ptrINS3_3crsIS6_llEEESC_S9_INS3_11numa_vectorIS6_EEE
FNDA:0,_ZN5amgcl10relaxation6detail9ilu_solveINS_7backend7builtinINS_13static_matrixIdLi2ELi2EEEEEE14parallel_solveINS3_11numa_vectorINS5_IdLi2ELi1EEEEEEEvRT_
FNDA:0,_ZN5amgcl10relaxation6detail9ilu_solveINS_7backend7builtinINS_13static_matrixIdLi2ELi2EEEEEE5solveINS3_11numa_vectorINS5_IdLi2ELi1EEEEEEEvRT_
FNDA:0,_ZN5amgcl10relaxation6detail9ilu_solveINS_7backend7builtinINS_13static_matrixIdLi2ELi2EEEEEE6paramsC2ERKN5boost13property_tree11basic_ptreeINSt7__cxx1112basic_stringIcSt11char_traitsIcESaIcEEESI_St4lessISI_EEE
FNDA:0,_ZN5amgcl10relaxation6detail9ilu_solveINS_7backend7builtinINS_13static_matrixIdLi2ELi2EEEEEEC2ESt10shared_ptrINS3_3crsIS6_llEEESC_S9_INS3_11numa_vectorIS6_EEERKNS8_6paramsERKNS_6detail12empty_paramsE
FNDA:0,_ZN5amgcl10relaxation6detail9ilu_solveINS_7backend7builtinINS_13static_matrixIdLi3ELi3EEEEEE10sptr_solveILb0EEC2INS3_3crsIS6_llEEEERKT_PKS6_
FNDA:0,_ZN5amgcl10relaxation6detail9ilu_solveINS_7backend7builtinINS_13static_matrixIdLi3ELi3EEEEEE10sptr_solveILb1EEC2INS3_3crsIS6_llEEEERKT_PKS6_
FNDA:0,_ZN5amgcl10relaxation6detail9ilu_solveINS_7backend7builtinINS_13static_matrixIdLi3ELi3EEEEEE11serial_initESt10shared_ptrINS3_3crsIS6_llEEESC_S9_INS3_11numa_vectorIS6_EEE
FNDA:0,_ZN5amgcl10relaxation6detail9ilu_solveINS_7backend7builtinINS_13static_matrixIdLi3ELi3EEEEEE12serial_solveINS3_11numa_vectorINS5_IdLi3ELi1EEEEEEEvRT_
FNDA:0,_ZN5amgcl10relaxation6detail9ilu_solveINS_7backend7builtinINS_13static_matrixIdLi3ELi3EEEEEE13parallel_initESt10shared_ptrINS3_3crsIS6_llEEESC_S9_INS3_11numa_vectorIS6_EEE
FNDA:0,_ZN5amgcl10relaxation6detail9ilu_solveINS_7backend7builtinINS_13static_matrixIdLi3ELi3EEEEEE14parallel_solveINS3_11numa_vectorINS5_IdLi3ELi1EEEEEEEvRT_
FNDA:0,_ZN5amgcl10relaxation6detail9ilu_solveINS_7backend7builtinINS_13static_matrixIdLi3ELi3EEEEEE5solveINS3_11numa_vectorINS5_IdLi3ELi1EEEEEEEvRT_
FNDA:0,_ZN5amgcl10relaxation6detail9ilu_solveINS_7backend7builtinINS_13static_matrixIdLi3ELi3EEEEEE6paramsC2ERKN5boost13property_tree11basic_ptreeINSt7__cxx1112basic_stringIcSt11char_traitsIcESaIcEEESI_St4lessISI_EEE
FNDA:0,_ZN5amgcl10relaxation6detail9ilu_solveINS_7backend7builtinINS_13static_matrixIdLi3ELi3EEEEEEC2ESt10shared_ptrINS3_3crsIS6_llEEESC_S9_INS3_11numa_vectorIS6_EEERKNS8_6paramsERKNS_6detail12empty_paramsE
FNDA:0,_ZN5amgcl10relaxation6detail9ilu_solveINS_7backend7builtinINS_13static_matrixIdLi4ELi4EEEEEE10sptr_solveILb0EEC2INS3_3crsIS6_llEEEERKT_PKS6_
FNDA:0,_ZN5amgcl10relaxation6detail9ilu_solveINS_7backend7builtinINS_13static_matrixIdLi4ELi4EEEEEE10sptr_solveILb1EEC2INS3_3crsIS6_llEEEERKT_PKS6_
FNDA:0,_ZN5amgcl10relaxation6detail9ilu_solveINS_7backend7builtinINS_13static_matrixIdLi4ELi4EEEEEE11serial_initESt10shared_ptrINS3_3crsIS6_llEEESC_S9_INS3_11numa_vectorIS6_EEE
FNDA:0,_ZN5amgcl10relaxation6detail9ilu_solveINS_7backend7builtinINS_13static_matrixIdLi4ELi4EEEEEE12serial_solveINS3_11numa_vectorINS5_IdLi4ELi1EEEEEEEvRT_
FNDA:0,_ZN5amgcl10relaxation6detail9ilu_solveINS_7backend7builtinINS_13static_matrixIdLi4ELi4EEEEEE13parallel_initESt10shared_ptrINS3_3crsIS6_llEEESC_S9_INS3_11numa_vectorIS6_EEE
FNDA:0,_ZN5amgcl10relaxation6detail9ilu_solveINS_7backend7builtinINS_13static_matrixIdLi4ELi4EEEEEE14parallel_solveINS3_11numa_vectorINS5_IdLi4ELi1EEEEEEEvRT_
FNDA:0,_ZN5amgcl10relaxation6detail9ilu_solveINS_7backend7builtinINS_13static_matrixIdLi4ELi4EEEEEE5solveINS3_11numa_vectorINS5_IdLi4ELi1EEEEEEEvRT_
FNDA:0,_ZN5amgcl10relaxation6detail9ilu_solveINS_7backend7builtinINS_13static_matrixIdLi4ELi4EEEEEE6paramsC2ERKN5boost13property_tree11basic_ptreeINSt7__cxx1112basic_stringIcSt11char_traitsIcESaIcEEESI_St4lessISI_EEE
FNDA:0,_ZN5amgcl10relaxation6detail9ilu_solveINS_7backend7builtinINS_13static_matrixIdLi4ELi4EEEEEEC2ESt10shared_ptrINS3_3crsIS6_llEEESC_S9_INS3_11numa_vectorIS6_EEERKNS8_6paramsERKNS_6detail12empty_paramsE
FNDA:0,_ZN5amgcl10relaxation6detail9ilu_solveINS_7backend7builtinIdEEE10sptr_solveILb0EEC2INS3_3crsIdllEEEERKT_PKd
FNDA:0,_ZN5amgcl10relaxation6detail9ilu_solveINS_7backend7builtinIdEEE10sptr_solveILb1EEC2INS3_3crsIdllEEEERKT_PKd
FNDA:0,_ZN5amgcl10relaxation6detail9ilu_solveINS_7backend7builtinIdEEE11serial_initESt10shared_ptrINS3_3crsIdllEEESA_S7_INS3_11numa_vectorIdEEE
FNDA:0,_ZN5amgcl10relaxation6detail9ilu_solveINS_7backend7builtinIdEEE12serial_solveINS3_11numa_vectorIdEEEEvRT_
FNDA:0,_ZN5amgcl10relaxation6detail9ilu_solveINS_7backend7builtinIdEEE13parallel_initESt10shared_ptrINS3_3crsIdllEEESA_S7_INS3_11numa_vectorIdEEE
FNDA:0,_ZN5amgcl10relaxation6detail9ilu_solveINS_7backend7builtinIdEEE14parallel_solveINS3_11numa_vectorIdEEEEvRT_
FNDA:0,_ZN5amgcl10relaxation6detail9ilu_solveINS_7backend7builtinIdEEE5solveINS3_11numa_vectorIdEEEEvRT_
FNDA:0,_ZN5amgcl10relaxation6detail9ilu_solveINS_7backend7builtinIdEEE6paramsC2ERKN5boost13property_tree11basic_ptreeINSt7__cxx1112basic_stringIcSt11char_traitsIcESaIcEEESG_St4lessISG_EEE
FNDA:0,_ZN5amgcl10relaxation6detail9ilu_solveINS_7backend7builtinIdEEEC2ESt10shared_ptrINS3_3crsIdllEEESA_S7_INS3_11numa_vectorIdEEERKNS6_6paramsERKNS_6detail12empty_paramsE
FNDA:0,_ZNK5amgcl10relaxation6detail9ilu_solveINS_7backend7builtinINS_13static_matrixIdLi2ELi2EEEEEE10sptr_solveILb0EE5bytesEv
FNDA:0,_ZNK5amgcl10relaxation6detail9ilu_solveINS_7backend7builtinINS_13static_matrixIdLi2ELi2EEEEEE10sptr_solveILb1EE5bytesEv
FNDA:0,_ZNK5amgcl10relaxation6detail9ilu_solveINS_7backend7builtinINS_13static_matrixIdLi2ELi2EEEEEE5bytesEv
FNDA:0,_ZNK5amgcl10relaxation6detail9ilu_solveINS_7backend7builtinINS_13static_matrixIdLi3ELi3EEEEEE10sptr_solveILb0EE5bytesEv
FNDA:0,_ZNK5amgcl10relaxation6detail9ilu_solveINS_7backend7builtinINS_13static_matrixIdLi3ELi3EEEEEE10sptr_solveILb1EE5bytesEv
FNDA:0,_ZNK5amgcl10relaxation6detail9ilu_solveINS_7backend7builtinINS_13static_matrixIdLi3ELi3EEEEEE5bytesEv
FNDA:0,_ZNK5amgcl10relaxation6detail9ilu_solveINS_7backend7builtinINS_13static_matrixIdLi4ELi4EEEEEE10sptr_solveILb0EE5bytesEv
FNDA:0,_ZNK5amgcl10relaxation6detail9ilu_solveINS_7backend7builtinINS_13static_matrixIdLi4ELi4EEEEEE10sptr_solveILb1EE5bytesEv
FNDA:0,_ZNK5amgcl10relaxation6detail9ilu_solveINS_7backend7builtinINS_13static_matrixIdLi4ELi4EEEEEE5bytesEv
FNDA:0,_ZNK5amgcl10relaxation6detail9ilu_solveINS_7backend7builtinIdEEE10sptr_solveILb0EE5bytesEv
FNDA:0,_ZNK5amgcl10relaxation6detail9ilu_solveINS_7backend7builtinIdEEE10sptr_solveILb1EE5bytesEv
FNDA:0,_ZNK5amgcl10relaxation6detail9ilu_solveINS_7backend7builtinIdEEE5bytesEv
FNF:48
FNH:0
DA:143,0
DA:146,0
DA:147,0
DA:149,0
DA:150,0
DA:158,0
DA:164,0
DA:166,0
DA:167,0
DA:169,0
DA:170,0
DA:173,0
DA:174,0
DA:175,0
DA:177,0
DA:178,0
DA:180,0
DA:183,0
DA:184,0
DA:185,0
DA:187,0
DA:188,0
DA:190,0
DA:196,0
DA:216,0
DA:225,0
DA:228,0
DA:235,0
DA:236,0
DA:237,0
DA:240,0
DA:241,0
DA:242,0
DA:243,0
DA:245,0
DA:273,0
DA:274,0
DA:275,0
DA:277,0
DA:278,0
DA:280,0
DA:281,0
DA:285,0
DA:289,0
DA:290,0
DA:292,0
DA:293,0
DA:295,0
DA:296,0
DA:301,0
DA:303,0
DA:304,0
DA:308,0
DA:309,0
DA:311,0
DA:312,0
DA:317,0
DA:318,0
DA:320,0
DA:348,0
DA:350,0
DA:384,0
DA:388,0
DA:415,0
DA:418,0
DA:419,0
DA:420,0
DA:421,0
DA:422,0
DA:423,0
DA:425,0
DA:428,0
DA:435,0
DA:441,0
DA:442,0
DA:443,0
DA:446,0
DA:449,0
LF:78
LH:0
end_of_record
TN:
SF:/root/Kratos/external_libraries/amgcl/relaxation/gauss_seidel.hpp
FN:67,_ZN5amgcl10relaxation12gauss_seidelINS_7backend7builtinINS_13static_matrixIdLi2ELi2EEEEEE6paramsC2ERKN5boost13property_tree11basic_ptreeINSt7__cxx1112basic_stringIcSt11char_traitsIcESaIcEEESH_St4lessISH_EEE
FN:67,_ZN5amgcl10relaxation12gauss_seidelINS_7backend7builtinINS_13static_matrixIdLi3ELi3EEEEEE6paramsC2ERKN5boost13property_tree11basic_ptreeINSt7__cxx1112basic_stringIcSt11char_traitsIcESaIcEEESH_St4lessISH_EEE
FN:67,_ZN5amgcl10relaxation12gauss_seidelINS_7backend7builtinINS_13static_matrixIdLi4ELi4EEEEEE6paramsC2ERKN5boost13property_tree11basic_ptreeINSt7__cxx1112basic_stringIcSt11char_traitsIcESaIcEEESH_St4lessISH_EEE
FN:67,_ZN5amgcl10relaxation12gauss_seidelINS_7backend7builtinIdEEE6paramsC2ERKN5boost13property_tree11basic_ptreeINSt7__cxx1112basic_stringIcSt11char_traitsIcESaIcEEESF_St4lessISF_EEE
FN:83,_ZN5amgcl10relaxation12gauss_seidelINS_7backend7builtinINS_13static_matrixIdLi2ELi2EEEEEEC2INS2_3crsIS5_llEEEERKT_RKNS7_6paramsERKNS_6detail12empty_paramsE
FN:83,_ZN5amgcl10relaxation12gauss_seidelINS_7backend7builtinINS_13static_matrixIdLi3ELi3EEEEEEC2INS2_3crsIS5_llEEEERKT_RKNS7_6paramsERKNS_6detail12empty_paramsE
FN:83,_ZN5amgcl10relaxation12gauss_seidelINS_7backend7builtinINS_13static_matrixIdLi4ELi4EEEEEEC2INS2_3crsIS5_llEEEERKT_RKNS7_6paramsERKNS_6detail12empty_paramsE
FN:83,_ZN5amgcl10relaxation12gauss_seidelINS_7backend7builtinIdEEEC2INS2_3crsIdllEEEERKT_RKNS5_6paramsERKNS_6detail12empty_paramsE
FN:94,_ZNK5amgcl10relaxation12gauss_seidelINS_7backend7builtinINS_13static_matrixIdLi2ELi2EEEEEE9apply_preINS2_3crsIS5_llEENS2_11numa_vectorINS4_IdLi2ELi1EEEEESD_SD_EEvRKT_RKT0_RT1_RT2_
FN:94,_ZNK5amgcl10relaxation12gauss_seidelINS_7backend7builtinINS_13static_matrixIdLi3ELi3EEEEEE9apply_preINS2_3crsIS5_llEENS2_11numa_vectorINS4_IdLi3ELi1EEEEESD_SD_EEvRKT_RKT0_RT1_RT2_
FN:94,_ZNK5amgcl10relaxation12gauss_seidelINS_7backend7builtinINS_13static_matrixIdLi4ELi4EEEEEE9apply_preINS2_3crsIS5_llEENS2_11numa_vectorINS4_IdLi4ELi1EEEEESD_SD_EEvRKT_RKT0_RT1_RT2_
FN:94,_ZNK5amgcl10relaxation12gauss_seidelINS_7backend7builtinIdEEE9apply_preINS2_3crsIdllEENS2_11numa_vectorIdEESA_SA_EEvRKT_RKT0_RT1_RT2_
FN:106,_ZNK5amgcl10relaxation12gauss_seidelINS_7backend7builtinINS_13static_matrixIdLi2ELi2EEEEEE10apply_postINS2_3crsIS5_llEENS2_11numa_vectorINS4_IdLi2ELi1EEEEESD_SD_EEvRKT_RKT0_RT1_RT2_
FN:106,_ZNK5amgcl10relaxation12gauss_seidelINS_7backend7builtinINS_13static_matrixIdLi3ELi3EEEEEE10apply_postINS2_3crsIS5_llEENS2_11numa_vectorINS4_IdLi3ELi1EEEEESD_SD_EEvRKT_RKT0_RT1_RT2_
FN:106,_ZNK5amgcl10relaxation12gauss_seidelINS_7backend7builtinINS_13static_matrixIdLi4ELi4EEEEEE10apply_postINS2_3crsIS5_llEENS2_11numa_vectorINS4_IdLi4ELi1EEEEESD_SD_EEvRKT_RKT0_RT1_RT2_
FN:106,_ZNK5amgcl10relaxation12gauss_seidelINS_7backend7builtinIdEEE10apply_postINS2_3crsIdllEENS2_11numa_vectorIdEESA_SA_EEvRKT_RKT0_RT1_RT2_
FN:117,_ZNK5amgcl10relaxation12gauss_seidelINS_7backend7builtinINS_13static_matrixIdLi2ELi2EEEEEE5applyINS2_3crsIS5_llEENS2_11numa_vectorINS4_IdLi2ELi1EEEEESD_EEvRKT_RKT0_RT1_
FN:117,_ZNK5amgcl10relaxation12gauss_seidelINS_7backend7builtinINS_13static_matrixIdLi3ELi3EEEEEE5applyINS2_3crsIS5_llEENS2_11numa_vectorINS4_IdLi3ELi1EEEEESD_EEvRKT_RKT0_RT1_
FN:117,_ZNK5amgcl10relaxation12gauss_seidelINS_7backend7builtinINS_13static_matrixIdLi4ELi4EEEEEE5applyINS2_3crsIS5_llEENS2_11numa_vectorINS4_IdLi4ELi1EEEEESD_EEvRKT_RKT0_RT1_
FN:117,_ZNK5amgcl10relaxation12gauss_seidelINS_7backend7builtinIdEEE5applyINS2_3crsIdllEENS2_11numa_vectorIdEESA_EEvRKT_RKT0_RT1_
FN:129,_ZNK5amgcl10relaxation12gauss_seidelINS_7backend7builtinINS_13static_matrixIdLi2ELi2EEEEEE5bytesEv
FN:129,_ZNK5amgcl10relaxation12gauss_seidelINS_7backend7builtinINS_13static_matrixIdLi3ELi3EEEEEE5bytesEv
FN:129,_ZNK5amgcl10relaxation12gauss_seidelINS_7backend7builtinINS_13static_matrixIdLi4ELi4EEEEEE5bytesEv
FN:129,_ZNK5amgcl10relaxation12gauss_seidelINS_7backend7builtinIdEEE5bytesEv
FN:154,_ZN5amgcl10relaxation12gauss_seidelINS_7backend7builtinINS_13static_matrixIdLi2ELi2EEEEEE12serial_sweepINS2_3crsIS5_llEENS2_11numa_vectorINS4_IdLi2ELi1EEEEESD_EEvRKT_RKT0_RT1_b
FN:154,_ZN5amgcl10relaxation12gauss_seidelINS_7backend7builtinINS_13static_matrixIdLi3ELi3EEEEEE12serial_sweepINS2_3crsIS5_llEENS2_11numa_vectorINS4_IdLi3ELi1EEEEESD_EEvRKT_RKT0_RT1_b
FN:154,_ZN5amgcl10relaxation12gauss_seidelINS_7backend7builtinINS_13static_matrixIdLi4ELi4EEEEEE12serial_sweepINS2_3crsIS5_llEENS2_11numa_vectorINS4_IdLi4ELi1EEEEESD_EEvRKT_RKT0_RT1_b
FN:154,_ZN5amgcl10relaxation12gauss_seidelINS_7backend7builtinIdEEE12serial_sweepINS2_3crsIdllEENS2_11numa_vectorIdEESA_EEvRKT_RKT0_RT1_b
FN:205,_ZN5amgcl10relaxation12gauss_seidelINS_7backend7builtinINS_13static_matrixIdLi2ELi2EEEEEE14parallel_sweepILb0EEC2INS2_3crsIS5_llEEEERKT_
FN:205,_ZN5amgcl10relaxation12gauss_seidelINS_7backend7builtinINS_13static_matrixIdLi2ELi2EEEEEE14parallel_sweepILb1EEC2INS2_3crsIS5_llEEEERKT_
FN:205,_ZN5amgcl10relaxation12gauss_seidelINS_7backend7builtinINS_13static_matrixIdLi3ELi3EEEEEE14parallel_sweepILb0EEC2INS2_3crsIS5_llEEEERKT_
FN:205,_ZN5amgcl10relaxation12gauss_seidelINS_7backend7builtinINS_13static_matrixIdLi3ELi3EEEEEE14parallel_sweepILb1EEC2INS2_3crsIS5_llEEEERKT_
FN:205,_ZN5amgcl10relaxation12gauss_seidelINS_7backend7builtinINS_13static_matrixIdLi4ELi4EEEEEE14parallel_sweepILb0EEC2INS2_3crsIS5_llEEEERKT_
FN:205,_ZN5amgcl10relaxation12gauss_seidelINS_7backend7builtinINS_13static_matrixIdLi4ELi4EEEEEE14parallel_sweepILb1EEC2INS2_3crsIS5_llEEEERKT_
FN:205,_ZN5amgcl10relaxation12gauss_seidelINS_7backend7builtinIdEEE14parallel_sweepILb0EEC2INS2_3crsIdllEEEERKT_
FN:205,_ZN5amgcl10relaxation12gauss_seidelINS_7backend7builtinIdEEE14parallel_sweepILb1EEC2INS2_3crsIdllEEEERKT_
FN:357,_ZNK5amgcl10relaxation12gauss_seidelINS_7backend7builtinINS_13static_matrixIdLi2ELi2EEEEEE14parallel_sweepILb0EE5bytesEv
FN:357,_ZNK5amgcl10relaxation12gauss_seidelINS_7backend7builtinINS_13static_matrixIdLi2ELi2EEEEEE14parallel_sweepILb1EE5bytesEv
FN:357,_ZNK5amgcl10relaxation12gauss_seidelINS_7backend7builtinINS_13static_matrixIdLi3ELi3EEEEEE14parallel_sweepILb0EE5bytesEv
FN:357,_ZNK5amgcl10relaxation12gauss_seidelINS_7backend7builtinINS_13static_matrixIdLi3ELi3EEEEEE14parallel_sweepILb1EE5bytesEv
FN:357,_ZNK5amgcl10relaxation12gauss_seidelINS_7backend7builtinINS_13static_matrixIdLi4ELi4EEEEEE14parallel_sweepILb0EE5bytesEv
FN:357,_ZNK5amgcl10relaxation12gauss_seidelINS_7backend7builtinINS_13static_matrixIdLi4ELi4EEEEEE14parallel_sweepILb1EE5bytesEv
FN:357,_ZNK5amgcl10relaxation12gauss_seidelINS_7backend7builtinIdEEE14parallel_sweepILb0EE5bytesEv
FN:357,_ZNK5amgcl10relaxation12gauss_seidelINS_7backend7builtinIdEEE14parallel_sweepILb1EE5bytesEv
FNDA:0,_ZN5amgcl10relaxation12gauss_seidelINS_7backend7builtinINS_13static_matrixIdLi2ELi2EEEEEE12serial_sweepINS2_3crsIS5_llEENS2_11numa_vectorINS4_IdLi2ELi1EEEEESD_EEvRKT_RKT0_RT1_b
FNDA:0,_ZN5amgcl10relaxation12gauss_seidelINS_7backend7builtinINS_13static_matrixIdLi2ELi2EEEEEE14parallel_sweepILb0EEC2INS2_3crsIS5_llEEEERKT_
FNDA:0,_ZN5amgcl10relaxation12gauss_seidelINS_7backend7builtinINS_13static_matrixIdLi2ELi2EEEEEE14parallel_sweepILb1EEC2INS2_3crsIS5_llEEEERKT_
FNDA:0,_ZN5amgcl10relaxation12gauss_seidelINS_7backend7builtinINS_13static_matrixIdLi2ELi2EEEEEE6paramsC2ERKN5boost13property_tree11basic_ptreeINSt7__cxx1112basic_stringIcSt11char_traitsIcESaIcEEESH_St4lessISH_EEE
FNDA:0,_ZN5amgcl10relaxation12gauss_seidelINS_7backend7builtinINS_13static_matrixIdLi2ELi2EEEEEEC2INS2_3crsIS5_llEEEERKT_RKNS7_6paramsERKNS_6detail12empty_paramsE
FNDA:0,_ZN5amgcl10relaxation12gauss_seidelINS_7backend7builtinINS_13static_matrixIdLi3ELi3EEEEEE12serial_sweepINS2_3crsIS5_llEENS2_11numa_vectorINS4_IdLi3ELi1EEEEESD_EEvRKT_RKT0_RT1_b
FNDA:0,_ZN5amgcl10relaxation12gauss_seidelINS_7backend7builtinINS_13static_matrixIdLi3ELi3EEEEEE14parallel_sweepILb0EEC2INS2_3crsIS5_llEEEERKT_
FNDA:0,_ZN5amgcl10relaxation12gauss_seidelINS_7backend7builtinINS_13static_matrixIdLi3ELi3EEEEEE14parallel_sweepILb1EEC2INS2_3crsIS5_llEEEERKT_
FNDA:0,_ZN5amgcl10relaxation12gauss_seidelINS_7backend7builtinINS_13static_matrixIdLi3ELi3EEEEEE6paramsC2ERKN5boost13property_tree11basic_ptreeINSt7__cxx1112basic_stringIcSt11char_traitsIcESaIcEEESH_St4lessISH_EEE
FNDA:0,_ZN5amgcl10relaxation12gauss_seidelINS_7backend7builtinINS_13static_matrixIdLi3ELi3EEEEEEC2INS2_3crsIS5_llEEEERKT_RKNS7_6paramsERKNS_6detail12empty_paramsE
FNDA:0,_ZN5amgcl10relaxation12gauss_seidelINS_7backend7builtinINS_13static_matrixIdLi4ELi4EEEEEE12serial_sweepINS2_3crsIS5_llEENS2_11numa_vectorINS4_IdLi4ELi1EEEEESD_EEvRKT_RKT0_RT1_b
FNDA:0,_ZN5amgcl10relaxation12gauss_seidelINS_7backend7builtinINS_13static_matrixIdLi4ELi4EEEEEE14parallel_sweepILb0EEC2INS2_3crsIS5_llEEEERKT_
FNDA:0,_ZN5amgcl10relaxation12gauss_seidelINS_7backend7builtinINS_13static_matrixIdLi4ELi4EEEEEE14parallel_sweepILb1EEC2INS2_3crsIS5_llEEEERKT_
FNDA:0,_ZN5amgcl10relaxation12gauss_seidelINS_7backend7builtinINS_13static_matrixIdLi4ELi4EEEEEE6paramsC2ERKN5boost13property_tree11basic_ptreeINSt7__cxx1112basic_stringIcSt11char_traitsIcESaIcEEESH_St4lessISH_EEE
FNDA:0,_ZN5amgcl10relaxation12gauss_seidelINS_7backend7builtinINS_13static_matrixIdLi4ELi4EEEEEEC2INS2_3crsIS5_llEEEERKT_RKNS7_6paramsERKNS_6detail12empty_paramsE
FNDA:0,_ZN5amgcl10relaxation12gauss_seidelINS_7backend7builtinIdEEE12serial_sweepINS2_3crsIdllEENS2_11numa_vectorIdEESA_EEvRKT_RKT0_RT1_b
FNDA:0,_ZN5amgcl10relaxation12gauss_seidelINS_7backend7builtinIdEEE14parallel_sweepILb0EEC2INS2_3crsIdllEEEERKT_
FNDA:0,_ZN5amgcl10relaxation12gauss_seidelINS_7backend7builtinIdEEE14parallel_sweepILb1EEC2INS2_3crsIdllEEEERKT_
FNDA:0,_ZN5amgcl10relaxation12gauss_seidelINS_7backend7builtinIdEEE6paramsC2ERKN5boost13property_tree11basic_ptreeINSt7__cxx1112basic_stringIcSt11char_traitsIcESaIcEEESF_St4lessISF_EEE
FNDA:0,_ZN5amgcl10relaxation12gauss_seidelINS_7backend7builtinIdEEEC2INS2_3crsIdllEEEERKT_RKNS5_6paramsERKNS_6detail12empty_paramsE
FNDA:0,_ZNK5amgcl10relaxation12gauss_seidelINS_7backend7builtinINS_13static_matrixIdLi2ELi2EEEEEE10apply_postINS2_3crsIS5_llEENS2_11numa_vectorINS4_IdLi2ELi1EEEEESD_SD_EEvRKT_RKT0_RT1_RT2_
FNDA:0,_ZNK5amgcl10relaxation12gauss_seidelINS_7backend7builtinINS_13static_matrixIdLi2ELi2EEEEEE14parallel_sweepILb0EE5bytesEv
FNDA:0,_ZNK5amgcl10relaxation12gauss_seidelINS_7backend7builtinINS_13static_matrixIdLi2ELi2EEEEEE14parallel_sweepILb1EE5bytesEv
FNDA:0,_ZNK5amgcl10relaxation12gauss_seidelINS_7backend7builtinINS_13static_matrixIdLi2ELi2EEEEEE5applyINS2_3crsIS5_llEENS2_11numa_vectorINS4_IdLi2ELi1EEEEESD_EEvRKT_RKT0_RT1_
FNDA:0,_ZNK5amgcl10relaxation12gauss_seidelINS_7backend7builtinINS_13static_matrixIdLi2ELi2EEEEEE5bytesEv
FNDA:0,_ZNK5amgcl10relaxation12gauss_seidelINS_7backend7builtinINS_13static_matrixIdLi2ELi2EEEEEE9apply_preINS2_3crsIS5_llEENS2_11numa_vectorINS4_IdLi2ELi1EEEEESD_SD_EEvRKT_RKT0_RT1_RT2_
FNDA:0,_ZNK5amgcl10relaxation12gauss_seidelINS_7backend7builtinINS_13static_matrixIdLi3ELi3EEEEEE10apply_postINS2_3crsIS5_llEENS2_11numa_vectorINS4_IdLi3ELi1EEEEESD_SD_EEvRKT_RKT0_RT1_RT2_
FNDA:0,_ZNK5amgcl10relaxation12gauss_seidelINS_7backend7builtinINS_13static_matrixIdLi3ELi3EEEEEE14parallel_sweepILb0EE5bytesEv
FNDA:0,_ZNK5amgcl10relaxation12gauss_seidelINS_7backend7builtinINS_13static_matrixIdLi3ELi3EEEEEE14parallel_sweepILb1EE5bytesEv
FNDA:0,_ZNK5amgcl10relaxation12gauss_seidelINS_7backend7builtinINS_13static_matrixIdLi3ELi3EEEEEE5applyINS2_3crsIS5_llEENS2_11numa_vectorINS4_IdLi3ELi1EEEEESD_EEvRKT_RKT0_RT1_
FNDA:0,_ZNK5amgcl10relaxation12gauss_seidelINS_7backend7builtinINS_13static_matrixIdLi3ELi3EEEEEE5bytesEv
FNDA:0,_ZNK5amgcl10relaxation12gauss_seidelINS_7backend7builtinINS_13static_matrixIdLi3ELi3EEEEEE9apply_preINS2_3crsIS5_llEENS2_11numa_vectorINS4_IdLi3ELi1EEEEESD_SD_EEvRKT_RKT0_RT1_RT2_
FNDA:0,_ZNK5amgcl10relaxation12gauss_seidelINS_7backend7builtinINS_13static_matrixIdLi4ELi4EEEEEE10apply_postINS2_3crsIS5_llEENS2_11numa_vectorINS4_IdLi4ELi1EEEEESD_SD_EEvRKT_RKT0_RT1_RT2_
FNDA:0,_ZNK5amgcl10relaxation12gauss_seidelINS_7backend7builtinINS_13static_matrixIdLi4ELi4EEEEEE14parallel_sweepILb0EE5bytesEv
FNDA:0,_ZNK5amgcl10relaxation12gauss_seidelINS_7backend7builtinINS_13static_matrixIdLi4ELi4EEEEEE14parallel_sweepILb1EE5bytesEv
FNDA:0,_ZNK5amgcl10relaxation12gauss_seidelINS_7backend7builtinINS_13static_matrixIdLi4ELi4EEEEEE5applyINS2_3crsIS5_llEENS2_11numa_vectorINS4_IdLi4ELi1EEEEESD_EEvRKT_RKT0_RT1_
FNDA:0,_ZNK5amgcl10relaxation12gauss_seidelINS_7backend7builtinINS_13static_matrixIdLi4ELi4EEEEEE5bytesEv
FNDA:0,_ZNK5amgcl10relaxation12gauss_seidelINS_7backend7builtinINS_13static_matrixIdLi4ELi4EEEEEE9apply_preINS2_3crsIS5_llEENS2_11numa_vectorINS4_IdLi4ELi1EEEEESD_SD_EEvRKT_RKT0_RT1_RT2_
FNDA:0,_ZNK5amgcl10relaxation12gauss_seidelINS_7backend7builtinIdEEE10apply_postINS2_3crsIdllEENS2_11numa_vectorIdEESA_SA_EEvRKT_RKT0_RT1_RT2_
FNDA:0,_ZNK5amgcl10relaxation12gauss_seidelINS_7backend7builtinIdEEE14parallel_sweepILb0EE5bytesEv
FNDA:0,_ZNK5amgcl10relaxation12gauss_seidelINS_7backend7builtinIdEEE14parallel_sweepILb1EE5bytesEv
FNDA:0,_ZNK5amgcl10relaxation12gauss_seidelINS_7backend7builtinIdEEE5applyINS2_3crsIdllEENS2_11numa_vectorIdEESA_EEvRKT_RKT0_RT1_
FNDA:0,_ZNK5amgcl10relaxation12gauss_seidelINS_7backend7builtinIdEEE5bytesEv
FNDA:0,_ZNK5amgcl10relaxation12gauss_seidelINS_7backend7builtinIdEEE9apply_preINS2_3crsIdllEENS2_11numa_vectorIdEESA_SA_EEvRKT_RKT0_RT1_RT2_
FNF:44
FNH:0
DA:64,0
DA:67,0
DA:68,0
DA:70,0
DA:71,0
DA:83,0
DA:84,0
DA:86,0
DA:87,0
DA:88,0
DA:90,0
DA:94,0
DA:98,0
DA:99,0
DA:102,0
DA:106,0
DA:110,0
DA:111,0
DA:114,0
DA:117,0
DA:120,0
DA:121,0
DA:122,0
DA:127,0
DA:129,0
DA:131,0
DA:132,0
DA:133,0
DA:139,0
DA:154,0
DA:160,0
DA:162,0
DA:163,0
DA:164,0
DA:166,0
DA:169,0
DA:171,0
DA:175,0
DA:176,0
DA:178,0
DA:181,0
DA:183,0
DA:205,0
DA:206,0
DA:207,0
DA:209,0
DA:210,0
DA:212,0
DA:213,0
DA:216,0
DA:220,0
DA:221,0
DA:223,0
DA:226,0
DA:227,0
DA:229,0
DA:232,0
DA:235,0
DA:236,0
DA:241,0
DA:243,0
DA:244,0
DA:248,0
DA:249,0
DA:251,0
DA:252,0
DA:257,0
DA:258,0
DA:260,0
DA:288,0
DA:319,0
DA:323,0
DA:355,0
DA:357,0
DA:360,0
DA:361,0
DA:362,0
DA:363,0
DA:364,0
DA:365,0
DA:368,0
LF:81
LH:0
end_of_record
TN:
SF:/root/Kratos/external_libraries/amgcl/relaxation/ilu0.hpp
FN:71,_ZN5amgcl10relaxation4ilu0INS_7backend7builtinINS_13static_matrixIdLi2ELi2EEEEEE6paramsC2ERKN5boost13property_tree11basic_ptreeINSt7__cxx1112basic_stringIcSt11char_traitsIcESaIcEEESH_St4lessISH_EEE
FN:71,_ZN5amgcl10relaxation4ilu0INS_7backend7builtinINS_13static_matrixIdLi3ELi3EEEEEE6paramsC2ERKN5boost13property_tree11basic_ptreeINSt7__cxx1112basic_stringIcSt11char_traitsIcESaIcEEESH_St4lessISH_EEE
FN:71,_ZN5amgcl10relaxation4ilu0INS_7backend7builtinINS_13static_matrixIdLi4ELi4EEEEEE6paramsC2ERKN5boost13property_tree11basic_ptreeINSt7__cxx1112basic_stringIcSt11char_traitsIcESaIcEEESH_St4lessISH_EEE
FN:71,_ZN5amgcl10relaxation4ilu0INS_7backend7builtinIdEEE6paramsC2ERKN5boost13property_tree11basic_ptreeINSt7__cxx1112basic_stringIcSt11char_traitsIcESaIcEEESF_St4lessISF_EEE
FN:87,_ZN5amgcl10relaxation4ilu0INS_7backend7builtinINS_13static_matrixIdLi2ELi2EEEEEEC2INS2_3crsIS5_llEEEERKT_RKNS7_6paramsERKNS_6detail12empty_paramsE
FN:87,_ZN5amgcl10relaxation4ilu0INS_7backend7builtinINS_13static_matrixIdLi3ELi3EEEEEEC2INS2_3crsIS5_llEEEERKT_RKNS7_6paramsERKNS_6detail12empty_paramsE
FN:87,_ZN5amgcl10relaxation4ilu0INS_7backend7builtinINS_13static_matrixIdLi4ELi4EEEEEEC2INS2_3crsIS5_llEEEERKT_RKNS7_6paramsERKNS_6detail12empty_paramsE
FN:87,_ZN5amgcl10relaxation4ilu0INS_7backend7builtinIdEEEC2INS2_3crsIdllEEEERKT_RKNS5_6paramsERKNS_6detail12empty_paramsE
FN:181,_ZNK5amgcl10relaxation4ilu0INS_7backend7builtinINS_13static_matrixIdLi2ELi2EEEEEE9apply_preINS2_3crsIS5_llEENS2_11numa_vectorINS4_IdLi2ELi1EEEEESD_SD_EEvRKT_RKT0_RT1_RT2_
FN:181,_ZNK5amgcl10relaxation4ilu0INS_7backend7builtinINS_13static_matrixIdLi3ELi3EEEEEE9apply_preINS2_3crsIS5_llEENS2_11numa_vectorINS4_IdLi3ELi1EEEEESD_SD_EEvRKT_RKT0_RT1_RT2_
FN:181,_ZNK5amgcl10relaxation4ilu0INS_7backend7builtinINS_13static_matrixIdLi4ELi4EEEEEE9apply_preINS2_3crsIS5_llEENS2_11numa_vectorINS4_IdLi4ELi1EEEEESD_SD_EEvRKT_RKT0_RT1_RT2_
FN:181,_ZNK5amgcl10relaxation4ilu0INS_7backend7builtinIdEEE9apply_preINS2_3crsIdllEENS2_11numa_vectorIdEESA_SA_EEvRKT_RKT0_RT1_RT2_
FN:192,_ZNK5amgcl10relaxation4ilu0INS_7backend7builtinINS_13static_matrixIdLi2ELi2EEEEEE10apply_postINS2_3crsIS5_llEENS2_11numa_vectorINS4_IdLi2ELi1EEEEESD_SD_EEvRKT_RKT0_RT1_RT2_
FN:192,_ZNK5amgcl10relaxation4ilu0INS_7backend7builtinINS_13static_matrixIdLi3ELi3EEEEEE10apply_postINS2_3crsIS5_llEENS2_11numa_vectorINS4_IdLi3ELi1EEEEESD_SD_EEvRKT_RKT0_RT1_RT2_
FN:192,_ZNK5amgcl10relaxation4ilu0INS_7backend7builtinINS_13static_matrixIdLi4ELi4EEEEEE10apply_postINS2_3crsIS5_llEENS2_11numa_vectorINS4_IdLi4ELi1EEEEESD_SD_EEvRKT_RKT0_RT1_RT2_
FN:192,_ZNK5amgcl10relaxation4ilu0INS_7backend7builtinIdEEE10apply_postINS2_3crsIdllEENS2_11numa_vectorIdEESA_SA_EEvRKT_RKT0_RT1_RT2_
FN:203,_ZNK5amgcl10relaxation4ilu0INS_7backend7builtinINS_13static_matrixIdLi2ELi2EEEEEE5applyINS2_3crsIS5_llEENS2_11numa_vectorINS4_IdLi2ELi1EEEEESD_EEvRKT_RKT0_RT1_
FN:203,_ZNK5amgcl10relaxation4ilu0INS_7backend7builtinINS_13static_matrixIdLi3ELi3EEEEEE5applyINS2_3crsIS5_llEENS2_11numa_vectorINS4_IdLi3ELi1EEEEESD_EEvRKT_RKT0_RT1_
FN:203,_ZNK5amgcl10relaxation4ilu0INS_7backend7builtinINS_13static_matrixIdLi4ELi4EEEEEE5applyINS2_3crsIS5_llEENS2_11numa_vectorINS4_IdLi4ELi1EEEEESD_EEvRKT_RKT0_RT1_
FN:203,_ZNK5amgcl10relaxation4ilu0INS_7backend7builtinIdEEE5applyINS2_3crsIdllEENS2_11numa_vectorIdEESA_EEvRKT_RKT0_RT1_
FNDA:0,_ZN5amgcl10relaxation4ilu0INS_7backend7builtinINS_13static_matrixIdLi2ELi2EEEEEE6paramsC2ERKN5boost13property_tree11basic_ptreeINSt7__cxx1112basic_stringIcSt11char_traitsIcESaIcEEESH_St4lessISH_EEE
FNDA:0,_ZN5amgcl10relaxation4ilu0INS_7backend7builtinINS_13static_matrixIdLi2ELi2EEEEEEC2INS2_3crsIS5_llEEEERKT_RKNS7_6paramsERKNS_6detail12empty_paramsE
FNDA:0,_ZN5amgcl10relaxation4ilu0INS_7backend7builtinINS_13static_matrixIdLi3ELi3EEEEEE6paramsC2ERKN5boost13property_tree11basic_ptreeINSt7__cxx1112basic_stringIcSt11char_traitsIcESaIcEEESH_St4lessISH_EEE
FNDA:0,_ZN5amgcl10relaxation4ilu0INS_7backend7builtinINS_13static_matrixIdLi3ELi3EEEEEEC2INS2_3crsIS5_llEEEERKT_RKNS7_6paramsERKNS_6detail12empty_paramsE
FNDA:0,_ZN5amgcl10relaxation4ilu0INS_7backend7builtinINS_13static_matrixIdLi4ELi4EEEEEE6paramsC2ERKN5boost13property_tree11basic_ptreeINSt7__cxx1112basic_stringIcSt11char_traitsIcESaIcEEESH_St4lessISH_EEE
FNDA:0,_ZN5amgcl10relaxation4ilu0INS_7backend7builtinINS_13static_matrixIdLi4ELi4EEEEEEC2INS2_3crsIS5_llEEEERKT_RKNS7_6paramsERKNS_6detail12empty_paramsE
FNDA:0,_ZN5amgcl10relaxation4ilu0INS_7backend7builtinIdEEE6paramsC2ERKN5boost13property_tree11basic_ptreeINSt7__cxx1112basic_stringIcSt11char_traitsIcESaIcEEESF_St4lessISF_EEE
FNDA:0,_ZN5amgcl10relaxation4ilu0INS_7backend7builtinIdEEEC2INS2_3crsIdllEEEERKT_RKNS5_6paramsERKNS_6detail12empty_paramsE
FNDA:0,_ZNK5amgcl10relaxation4ilu0INS_7backend7builtinINS_13static_matrixIdLi2ELi2EEEEEE10apply_postINS2_3crsIS5_llEENS2_11numa_vectorINS4_IdLi2ELi1EEEEESD_SD_EEvRKT_RKT0_RT1_RT2_
FNDA:0,_ZNK5amgcl10relaxation4ilu0INS_7backend7builtinINS_13static_matrixIdLi2ELi2EEEEEE5applyINS2_3crsIS5_llEENS2_11numa_vectorINS4_IdLi2ELi1EEEEESD_EEvRKT_RKT0_RT1_
FNDA:0,_ZNK5amgcl10relaxation4ilu0INS_7backend7builtinINS_13static_matrixIdLi2ELi2EEEEEE9apply_preINS2_3crsIS5_llEENS2_11numa_vectorINS4_IdLi2ELi1EEEEESD_SD_EEvRKT_RKT0_RT1_RT2_
FNDA:0,_ZNK5amgcl10relaxation4ilu0INS_7backend7builtinINS_13static_matrixIdLi3ELi3EEEEEE10apply_postINS2_3crsIS5_llEENS2_11numa_vectorINS4_IdLi3ELi1EEEEESD_SD_EEvRKT_RKT0_RT1_RT2_
FNDA:0,_ZNK5amgcl10relaxation4ilu0INS_7backend7builtinINS_13static_matrixIdLi3ELi3EEEEEE5applyINS2_3crsIS5_llEENS2_11numa_vectorINS4_IdLi3ELi1EEEEESD_EEvRKT_RKT0_RT1_
FNDA:0,_ZNK5amgcl10relaxation4ilu0INS_7backend7builtinINS_13static_matrixIdLi3ELi3EEEEEE9apply_preINS2_3crsIS5_llEENS2_11numa_vectorINS4_IdLi3ELi1EEEEESD_SD_EEvRKT_RKT0_RT1_RT2_
FNDA:0,_ZNK5amgcl10relaxation4ilu0INS_7backend7builtinINS_13static_matrixIdLi4ELi4EEEEEE10apply_postINS2_3crsIS5_llEENS2_11numa_vectorINS4_IdLi4ELi1EEEEESD_SD_EEvRKT_RKT0_RT1_RT2_
FNDA:0,_ZNK5amgcl10relaxation4ilu0INS_7backend7builtinINS_13static_matrixIdLi4ELi4EEEEEE5applyINS2_3crsIS5_llEENS2_11numa_vectorINS4_IdLi4ELi1EEEEESD_EEvRKT_RKT0_RT1_
FNDA:0,_ZNK5amgcl10relaxation4ilu0INS_7backend7builtinINS_13static_matrixIdLi4ELi4EEEEEE9apply_preINS2_3crsIS5_llEENS2_11numa_vectorINS4_IdLi4ELi1EEEEESD_SD_EEvRKT_RKT0_RT1_RT2_
FNDA:0,_ZNK5amgcl10relaxation4ilu0INS_7backend7builtinIdEEE10apply_postINS2_3crsIdllEENS2_11numa_vectorIdEESA_SA_EEvRKT_RKT0_RT1_RT2_
FNDA:0,_ZNK5amgcl10relaxation4ilu0INS_7backend7builtinIdEEE5applyINS2_3crsIdllEENS2_11numa_vectorIdEESA_EEvRKT_RKT0_RT1_
FNDA:0,_ZNK5amgcl10relaxation4ilu0INS_7backend7builtinIdEEE9apply_preINS2_3crsIdllEENS2_11numa_vectorIdEESA_SA_EEvRKT_RKT0_RT1_RT2_
FNF:20
FNH:0
DA:51,0
DA:68,0
DA:71,0
DA:72,0
DA:73,0
DA:75,0
DA:76,0
DA:87,0
DA:88,0
DA:91,0
DA:95,0
DA:96,0
DA:97,0
DA:99,0
DA:100,0
DA:101,0
DA:102,0
DA:103,0
DA:104,0
DA:111,0
DA:112,0
DA:117,0
DA:119,0
DA:121,0
DA:122,0
DA:123,0
DA:125,0
DA:126,0
DA:127,0
DA:129,0
DA:130,0
DA:131,0
DA:132,0
DA:133,0
DA:134,0
DA:135,0
DA:136,0
DA:138,0
DA:139,0
DA:140,0
DA:141,0
DA:145,0
DA:146,0
DA:148,0
DA:149,0
DA:152,0
DA:153,0
DA:154,0
DA:156,0
DA:157,0
DA:161,0
DA:162,0
DA:165,0
DA:166,0
DA:167,0
DA:172,0
DA:173,0
DA:176,0
DA:177,0
DA:181,0
DA:186,0
DA:187,0
DA:188,0
DA:192,0
DA:197,0
DA:198,0
DA:199,0
DA:203,0
DA:206,0
DA:207,0
DA:210,0
LF:71
LH:0
end_of_record
TN:
SF:/root/Kratos/external_libraries/amgcl/relaxation/iluk.hpp
FN:73,_ZN5amgcl10relaxation4ilukINS_7backend7builtinINS_13static_matrixIdLi2ELi2EEEEEE6paramsC2ERKN5boost13property_tree11basic_ptreeINSt7__cxx1112basic_stringIcSt11char_traitsIcESaIcEEESH_St4lessISH_EEE
FN:73,_ZN5amgcl10relaxation4ilukINS_7backend7builtinINS_13static_matrixIdLi3ELi3EEEEEE6paramsC2ERKN5boost13property_tree11basic_ptreeINSt7__cxx1112basic_stringIcSt11char_traitsIcESaIcEEESH_St4lessISH_EEE
FN:73,_ZN5amgcl10relaxation4ilukINS_7backend7builtinINS_13static_matrixIdLi4ELi4EEEEEE6paramsC2ERKN5boost13property_tree11basic_ptreeINSt7__cxx1112basic_stringIcSt11char_traitsIcESaIcEEESH_St4lessISH_EEE
FN:73,_ZN5amgcl10relaxation4ilukINS_7backend7builtinIdEEE6paramsC2ERKN5boost13property_tree11basic_ptreeINSt7__cxx1112basic_stringIcSt11char_traitsIcESaIcEEESF_St4lessISF_EEE
FN:91,_ZN5amgcl10relaxation4ilukINS_7backend7builtinINS_13static_matrixIdLi2ELi2EEEEEEC2INS2_3crsIS5_llEEEERKT_RKNS7_6paramsERKNS_6detail12empty_paramsE
FN:91,_ZN5amgcl10relaxation4ilukINS_7backend7builtinINS_13static_matrixIdLi3ELi3EEEEEEC2INS2_3crsIS5_llEEEERKT_RKNS7_6paramsERKNS_6detail12empty_paramsE
FN:91,_ZN5amgcl10relaxation4ilukINS_7backend7builtinINS_13static_matrixIdLi4ELi4EEEEEEC2INS2_3crsIS5_llEEEERKT_RKNS7_6paramsERKNS_6detail12empty_paramsE
FN:91,_ZN5amgcl10relaxation4ilukINS_7backend7builtinIdEEEC2INS2_3crsIdllEEEERKT_RKNS5_6paramsERKNS_6detail12empty_paramsE
FN:158,_ZNK5amgcl10relaxation4ilukINS_7backend7builtinINS_13static_matrixIdLi2ELi2EEEEEE9apply_preINS2_3crsIS5_llEENS2_11numa_vectorINS4_IdLi2ELi1EEEEESD_SD_EEvRKT_RKT0_RT1_RT2_
FN:158,_ZNK5amgcl10relaxation4ilukINS_7backend7builtinINS_13static_matrixIdLi3ELi3EEEEEE9apply_preINS2_3crsIS5_llEENS2_11numa_vectorINS4_IdLi3ELi1EEEEESD_SD_EEvRKT_RKT0_RT1_RT2_
FN:158,_ZNK5amgcl10relaxation4ilukINS_7backend7builtinINS_13static_matrixIdLi4ELi4EEEEEE9apply_preINS2_3crsIS5_llEENS2_11numa_vectorINS4_IdLi4ELi1EEEEESD_SD_EEvRKT_RKT0_RT1_RT2_
FN:158,_ZNK5amgcl10relaxation4ilukINS_7backend7builtinIdEEE9apply_preINS2_3crsIdllEENS2_11numa_vectorIdEESA_SA_EEvRKT_RKT0_RT1_RT2_
FN:169,_ZNK5amgcl10relaxation4ilukINS_7backend7builtinINS_13static_matrixIdLi2ELi2EEEEEE10apply_postINS2_3crsIS5_llEENS2_11numa_vectorINS4_IdLi2ELi1EEEEESD_SD_EEvRKT_RKT0_RT1_RT2_
FN:169,_ZNK5amgcl10relaxation4ilukINS_7backend7builtinINS_13static_matrixIdLi3ELi3EEEEEE10apply_postINS2_3crsIS5_llEENS2_11numa_vectorINS4_IdLi3ELi1EEEEESD_SD_EEvRKT_RKT0_RT1_RT2_
FN:169,_ZNK5amgcl10relaxation4ilukINS_7backend7builtinINS_13static_matrixIdLi4ELi4EEEEEE10apply_postINS2_3crsIS5_llEENS2_11numa_vectorINS4_IdLi4ELi1EEEEESD_SD_EEvRKT_RKT0_RT1_RT2_
FN:169,_ZNK5amgcl10relaxation4ilukINS_7backend7builtinIdEEE10apply_postINS2_3crsIdllEENS2_11numa_vectorIdEESA_SA_EEvRKT_RKT0_RT1_RT2_
FN:179,_ZNK5amgcl10relaxation4ilukINS_7backend7builtinINS_13static_matrixIdLi2ELi2EEEEEE5applyINS2_3crsIS5_llEENS2_11numa_vectorINS4_IdLi2ELi1EEEEESD_EEvRKT_RKT0_RT1_
FN:179,_ZNK5amgcl10relaxation4ilukINS_7backend7builtinINS_13static_matrixIdLi3ELi3EEEEEE5applyINS2_3crsIS5_llEENS2_11numa_vectorINS4_IdLi3ELi1EEEEESD_EEvRKT_RKT0_RT1_
FN:179,_ZNK5amgcl10relaxation4ilukINS_7backend7builtinINS_13static_matrixIdLi4ELi4EEEEEE5applyINS2_3crsIS5_llEENS2_11numa_vectorINS4_IdLi4ELi1EEEEESD_EEvRKT_RKT0_RT1_
FN:179,_ZNK5amgcl10relaxation4ilukINS_7backend7builtinIdEEE5applyINS2_3crsIdllEENS2_11numa_vectorIdEESA_EEvRKT_RKT0_RT1_
FN:213,_ZNK5amgcl10relaxation4ilukINS_7backend7builtinINS_13static_matrixIdLi2ELi2EEEEEE13sparse_vector12comp_indicesclEii
FN:213,_ZNK5amgcl10relaxation4ilukINS_7backend7builtinINS_13static_matrixIdLi3ELi3EEEEEE13sparse_vector12comp_indicesclEii
FN:213,_ZNK5amgcl10relaxation4ilukINS_7backend7builtinINS_13static_matrixIdLi4ELi4EEEEEE13sparse_vector12comp_indicesclEii
FN:213,_ZNK5amgcl10relaxation4ilukINS_7backend7builtinIdEEE13sparse_vector12comp_indicesclEii
FN:230,_ZN5amgcl10relaxation4ilukINS_7backend7builtinINS_13static_matrixIdLi2ELi2EEEEEE13sparse_vectorC2Emi
FN:230,_ZN5amgcl10relaxation4ilukINS_7backend7builtinINS_13static_matrixIdLi3ELi3EEEEEE13sparse_vectorC2Emi
FN:230,_ZN5amgcl10relaxation4ilukINS_7backend7builtinINS_13static_matrixIdLi4ELi4EEEEEE13sparse_vectorC2Emi
FN:230,_ZN5amgcl10relaxation4ilukINS_7backend7builtinIdEEE13sparse_vectorC2Emi
FN:234,_ZN5amgcl10relaxation4ilukINS_7backend7builtinINS_13static_matrixIdLi2ELi2EEEEEE13sparse_vector3addElRKS5_i
FN:234,_ZN5amgcl10relaxation4ilukINS_7backend7builtinINS_13static_matrixIdLi3ELi3EEEEEE13sparse_vector3addElRKS5_i
FN:234,_ZN5amgcl10relaxation4ilukINS_7backend7builtinINS_13static_matrixIdLi4ELi4EEEEEE13sparse_vector3addElRKS5_i
FN:234,_ZN5amgcl10relaxation4ilukINS_7backend7builtinIdEEE13sparse_vector3addElRKdi
FN:257,_ZN5amgcl10relaxation4ilukINS_7backend7builtinINS_13static_matrixIdLi2ELi2EEEEEE13sparse_vector12next_nonzeroEv
FN:257,_ZN5amgcl10relaxation4ilukINS_7backend7builtinINS_13static_matrixIdLi3ELi3EEEEEE13sparse_vector12next_nonzeroEv
FN:257,_ZN5amgcl10relaxation4ilukINS_7backend7builtinINS_13static_matrixIdLi4ELi4EEEEEE13sparse_vector12next_nonzeroEv
FN:257,_ZN5amgcl10relaxation4ilukINS_7backend7builtinIdEEE13sparse_vector12next_nonzeroEv
FN:263,_ZN5amgcl10relaxation4ilukINS_7backend7builtinINS_13static_matrixIdLi2ELi2EEEEEE13sparse_vector4sortEv
FN:263,_ZN5amgcl10relaxation4ilukINS_7backend7builtinINS_13static_matrixIdLi3ELi3EEEEEE13sparse_vector4sortEv
FN:263,_ZN5amgcl10relaxation4ilukINS_7backend7builtinINS_13static_matrixIdLi4ELi4EEEEEE13sparse_vector4sortEv
FN:263,_ZN5amgcl10relaxation4ilukINS_7backend7builtinIdEEE13sparse_vector4sortEv
FN:267,_ZN5amgcl10relaxation4ilukINS_7backend7builtinINS_13static_matrixIdLi2ELi2EEEEEE13sparse_vector5resetEl
FN:267,_ZN5amgcl10relaxation4ilukINS_7backend7builtinINS_13static_matrixIdLi3ELi3EEEEEE13sparse_vector5resetEl
FN:267,_ZN5amgcl10relaxation4ilukINS_7backend7builtinINS_13static_matrixIdLi4ELi4EEEEEE13sparse_vector5resetEl
FN:267,_ZN5amgcl10relaxation4ilukINS_7backend7builtinIdEEE13sparse_vector5resetEl
FNDA:0,_ZN5amgcl10relaxation4ilukINS_7backend7builtinINS_13static_matrixIdLi2ELi2EEEEEE13sparse_vector12next_nonzeroEv
FNDA:0,_ZN5amgcl10relaxation4ilukINS_7backend7builtinINS_13static_matrixIdLi2ELi2EEEEEE13sparse_vector3addElRKS5_i
FNDA:0,_ZN5amgcl10relaxation4ilukINS_7backend7builtinINS_13static_matrixIdLi2ELi2EEEEEE13sparse_vector4sortEv
FNDA:0,_ZN5amgcl10relaxation4ilukINS_7backend7builtinINS_13static_matrixIdLi2ELi2EEEEEE13sparse_vector5resetEl
FNDA:0,_ZN5amgcl10relaxation4ilukINS_7backend7builtinINS_13static_matrixIdLi2ELi2EEEEEE13sparse_vectorC2Emi
FNDA:0,_ZN5amgcl10relaxation4ilukINS_7backend7builtinINS_13static_matrixIdLi2ELi2EEEEEE6paramsC2ERKN5boost13property_tree11basic_ptreeINSt7__cxx1112basic_stringIcSt11char_traitsIcESaIcEEESH_St4lessISH_EEE
FNDA:0,_ZN5amgcl10relaxation4ilukINS_7backend7builtinINS_13static_matrixIdLi2ELi2EEEEEEC2INS2_3crsIS5_llEEEERKT_RKNS7_6paramsERKNS_6detail12empty_paramsE
FNDA:0,_ZN5amgcl10relaxation4ilukINS_7backend7builtinINS_13static_matrixIdLi3ELi3EEEEEE13sparse_vector12next_nonzeroEv
FNDA:0,_ZN5amgcl10relaxation4ilukINS_7backend7builtinINS_13static_matrixIdLi3ELi3EEEEEE13sparse_vector3addElRKS5_i
FNDA:0,_ZN5amgcl10relaxation4ilukINS_7backend7builtinINS_13static_matrixIdLi3ELi3EEEEEE13sparse_vector4sortEv
FNDA:0,_ZN5amgcl10relaxation4ilukINS_7backend7builtinINS_13static_matrixIdLi3ELi3EEEEEE13sparse_vector5resetEl
FNDA:0,_ZN5amgcl10relaxation4ilukINS_7backend7builtinINS_13static_matrixIdLi3ELi3EEEEEE13sparse_vectorC2Emi
FNDA:0,_ZN5amgcl10relaxation4ilukINS_7backend7builtinINS_13static_matrixIdLi3ELi3EEEEEE6paramsC2ERKN5boost13property_tree11basic_ptreeINSt7__cxx1112basic_stringIcSt11char_traitsIcESaIcEEESH_St4lessISH_EEE
FNDA:0,_ZN5amgcl10relaxation4ilukINS_7backend7builtinINS_13static_matrixIdLi3ELi3EEEEEEC2INS2_3crsIS5_llEEEERKT_RKNS7_6paramsERKNS_6detail12empty_paramsE
FNDA:0,_ZN5amgcl10relaxation4ilukINS_7backend7builtinINS_13static_matrixIdLi4ELi4EEEEEE13sparse_vector12next_nonzeroEv
FNDA:0,_ZN5amgcl10relaxation4ilukINS_7backend7builtinINS_13static_matrixIdLi4ELi4EEEEEE13sparse_vector3addElRKS5_i
FNDA:0,_ZN5amgcl10relaxation4ilukINS_7backend7builtinINS_13static_matrixIdLi4ELi4EEEEEE13sparse_vector4sortEv
FNDA:0,_ZN5amgcl10relaxation4ilukINS_7backend7builtinINS_13static_matrixIdLi4ELi4EEEEEE13sparse_vector5resetEl
FNDA:0,_ZN5amgcl10relaxation4ilukINS_7backend7builtinINS_13static_matrixIdLi4ELi4EEEEEE13sparse_vectorC2Emi
FNDA:0,_ZN5amgcl10relaxation4ilukINS_7backend7builtinINS_13static_matrixIdLi4ELi4EEEEEE6paramsC2ERKN5boost13property_tree11basic_ptreeINSt7__cxx1112basic_stringIcSt11char_traitsIcESaIcEEESH_St4lessISH_EEE
FNDA:0,_ZN5amgcl10relaxation4ilukINS_7backend7builtinINS_13static_matrixIdLi4ELi4EEEEEEC2INS2_3crsIS5_llEEEERKT_RKNS7_6paramsERKNS_6detail12empty_paramsE
FNDA:0,_ZN5amgcl10relaxation4ilukINS_7backend7builtinIdEEE13sparse_vector12next_nonzeroEv
FNDA:0,_ZN5amgcl10relaxation4ilukINS_7backend7builtinIdEEE13sparse_vector3addElRKdi
FNDA:0,_ZN5amgcl10relaxation4ilukINS_7backend7builtinIdEEE13sparse_vector4sortEv
FNDA:0,_ZN5amgcl10relaxation4ilukINS_7backend7builtinIdEEE13sparse_vector5resetEl
FNDA:0,_ZN5amgcl10relaxation4ilukINS_7backend7builtinIdEEE13sparse_vectorC2Emi
FNDA:0,_ZN5amgcl10relaxation4ilukINS_7backend7builtinIdEEE6paramsC2ERKN5boost13property_tree11basic_ptreeINSt7__cxx1112basic_stringIcSt11char_traitsIcESaIcEEESF_St4lessISF_EEE
FNDA:0,_ZN5amgcl10relaxation4ilukINS_7backend7builtinIdEEEC2INS2_3crsIdllEEEERKT_RKNS5_6paramsERKNS_6detail12empty_paramsE
FNDA:0,_ZNK5amgcl10relaxation4ilukINS_7backend7builtinINS_13static_matrixIdLi2ELi2EEEEEE10apply_postINS2_3crsIS5_llEENS2_11numa_vectorINS4_IdLi2ELi1EEEEESD_SD_EEvRKT_RKT0_RT1_RT2_
FNDA:0,_ZNK5amgcl10relaxation4ilukINS_7backend7builtinINS_13static_matrixIdLi2ELi2EEEEEE13sparse_vector12comp_indicesclEii
FNDA:0,_ZNK5amgcl10relaxation4ilukINS_7backend7builtinINS_13static_matrixIdLi2ELi2EEEEEE5applyINS2_3crsIS5_llEENS2_11numa_vectorINS4_IdLi2ELi1EEEEESD_EEvRKT_RKT0_RT1_
FNDA:0,_ZNK5amgcl10relaxation4ilukINS_7backend7builtinINS_13static_matrixIdLi2ELi2EEEEEE9apply_preINS2_3crsIS5_llEENS2_11numa_vectorINS4_IdLi2ELi1EEEEESD_SD_EEvRKT_RKT0_RT1_RT2_
FNDA:0,_ZNK5amgcl10relaxation4ilukINS_7backend7builtinINS_13static_matrixIdLi3ELi3EEEEEE10apply_postINS2_3crsIS5_llEENS2_11numa_vectorINS4_IdLi3ELi1EEEEESD_SD_EEvRKT_RKT0_RT1_RT2_
FNDA:0,_ZNK5amgcl10relaxation4ilukINS_7backend7builtinINS_13static_matrixIdLi3ELi3EEEEEE13sparse_vector12comp_indicesclEii
FNDA:0,_ZNK5amgcl10relaxation4ilukINS_7backend7builtinINS_13static_matrixIdLi3ELi3EEEEEE5applyINS2_3crsIS5_llEENS2_11numa_vectorINS4_IdLi3ELi1EEEEESD_EEvRKT_RKT0_RT1_
FNDA:0,_ZNK5amgcl10relaxation4ilukINS_7backend7builtinINS_13static_matrixIdLi3ELi3EEEEEE9apply_preINS2_3crsIS5_llEENS2_11numa_vectorINS4_IdLi3ELi1EEEEESD_SD_EEvRKT_RKT0_RT1_RT2_
FNDA:0,_ZNK5amgcl10relaxation4ilukINS_7backend7builtinINS_13static_matrixIdLi4ELi4EEEEEE10apply_postINS2_3crsIS5_llEENS2_11numa_vectorINS4_IdLi4ELi1EEEEESD_SD_EEvRKT_RKT0_RT1_RT2_
FNDA:0,_ZNK5amgcl10relaxation4ilukINS_7backend7builtinINS_13static_matrixIdLi4ELi4EEEEEE13sparse_vector12comp_indicesclEii
FNDA:0,_ZNK5amgcl10relaxation4ilukINS_7backend7builtinINS_13static_matrixIdLi4ELi4EEEEEE5applyINS2_3crsIS5_llEENS2_11numa_vectorINS4_IdLi4ELi1EEEEESD_EEvRKT_RKT0_RT1_
FNDA:0,_ZNK5amgcl10relaxation4ilukINS_7backend7builtinINS_13static_matrixIdLi4ELi4EEEEEE9apply_preINS2_3crsIS5_llEENS2_11numa_vectorINS4_IdLi4ELi1EEEEESD_SD_EEvRKT_RKT0_RT1_RT2_
FNDA:0,_ZNK5amgcl10relaxation4ilukINS_7backend7builtinIdEEE10apply_postINS2_3crsIdllEENS2_11numa_vectorIdEESA_SA_EEvRKT_RKT0_RT1_RT2_
FNDA:0,_ZNK5amgcl10relaxation4ilukINS_7backend7builtinIdEEE13sparse_vector12comp_indicesclEii
FNDA:0,_ZNK5amgcl10relaxation4ilukINS_7backend7builtinIdEEE5applyINS2_3crsIdllEENS2_11numa_vectorIdEESA_EEvRKT_RKT0_RT1_
FNDA:0,_ZNK5amgcl10relaxation4ilukINS_7backend7builtinIdEEE9apply_preINS2_3crsIdllEENS2_11numa_vectorIdEESA_SA_EEvRKT_RKT0_RT1_RT2_
FNF:44
FNH:0
DA:49,0
DA:70,0
DA:73,0
DA:74,0
DA:75,0
DA:76,0
DA:78,0
DA:79,0
DA:91,0
DA:92,0
DA:96,0
DA:100,0
DA:101,0
DA:102,0
DA:104,0
DA:105,0
DA:106,0
DA:108,0
DA:110,0
DA:112,0
DA:114,0
DA:115,0
DA:117,0
DA:118,0
DA:121,0
DA:122,0
DA:123,0
DA:125,0
DA:126,0
DA:127,0
DA:131,0
DA:133,0
DA:134,0
DA:135,0
DA:136,0
DA:137,0
DA:138,0
DA:140,0
DA:141,0
DA:142,0
DA:146,0
DA:147,0
DA:150,0
DA:153,0
DA:154,0
DA:158,0
DA:163,0
DA:164,0
DA:165,0
DA:169,0
DA:174,0
DA:175,0
DA:176,0
DA:179,0
DA:182,0
DA:183,0
DA:186,0
DA:199,0
DA:200,0
DA:203,0
DA:211,0
DA:213,0
DA:214,0
DA:230,0
DA:231,0
DA:232,0
DA:234,0
DA:235,0
DA:236,0
DA:237,0
DA:238,0
DA:239,0
DA:240,0
DA:244,0
DA:245,0
DA:247,0
DA:257,0
DA:258,0
DA:259,0
DA:260,0
DA:263,0
DA:264,0
DA:265,0
DA:267,0
DA:268,0
DA:269,0
DA:270,0
DA:271,0
LF:88
LH:0
end_of_record
TN:
SF:/root/Kratos/external_libraries/amgcl/relaxation/ilut.hpp
FN:83,_ZN5amgcl10relaxation4ilutINS_7backend7builtinINS_13static_matrixIdLi2ELi2EEEEEE6paramsC2ERKN5boost13property_tree11basic_ptreeINSt7__cxx1112basic_stringIcSt11char_traitsIcESaIcEEESH_St4lessISH_EEE
FN:83,_ZN5amgcl10relaxation4ilutINS_7backend7builtinINS_13static_matrixIdLi3ELi3EEEEEE6paramsC2ERKN5boost13property_tree11basic_ptreeINSt7__cxx1112basic_stringIcSt11char_traitsIcESaIcEEESH_St4lessISH_EEE
FN:83,_ZN5amgcl10relaxation4ilutINS_7backend7builtinINS_13static_matrixIdLi4ELi4EEEEEE6paramsC2ERKN5boost13property_tree11basic_ptreeINSt7__cxx1112basic_stringIcSt11char_traitsIcESaIcEEESH_St4lessISH_EEE
FN:83,_ZN5amgcl10relaxation4ilutINS_7backend7builtinIdEEE6paramsC2ERKN5boost13property_tree11basic_ptreeINSt7__cxx1112basic_stringIcSt11char_traitsIcESaIcEEESF_St4lessISF_EEE
FN:103,_ZN5amgcl10relaxation4ilutINS_7backend7builtinINS_13static_matrixIdLi2ELi2EEEEEEC2INS2_3crsIS5_llEEEERKT_RKNS7_6paramsERKNS_6detail12empty_paramsE
FN:103,_ZN5amgcl10relaxation4ilutINS_7backend7builtinINS_13static_matrixIdLi3ELi3EEEEEEC2INS2_3crsIS5_llEEEERKT_RKNS7_6paramsERKNS_6detail12empty_paramsE
FN:103,_ZN5amgcl10relaxation4ilutINS_7backend7builtinINS_13static_matrixIdLi4ELi4EEEEEEC2INS2_3crsIS5_llEEEERKT_RKNS7_6paramsERKNS_6detail12empty_paramsE
FN:103,_ZN5amgcl10relaxation4ilutINS_7backend7builtinIdEEEC2INS2_3crsIdllEEEERKT_RKNS5_6paramsERKNS_6detail12empty_paramsE
FN:183,_ZNK5amgcl10relaxation4ilutINS_7backend7builtinINS_13static_matrixIdLi2ELi2EEEEEE9apply_preINS2_3crsIS5_llEENS2_11numa_vectorINS4_IdLi2ELi1EEEEESD_SD_EEvRKT_RKT0_RT1_RT2_
FN:183,_ZNK5amgcl10relaxation4ilutINS_7backend7builtinINS_13static_matrixIdLi3ELi3EEEEEE9apply_preINS2_3crsIS5_llEENS2_11numa_vectorINS4_IdLi3ELi1EEEEESD_SD_EEvRKT_RKT0_RT1_RT2_
FN:183,_ZNK5amgcl10relaxation4ilutINS_7backend7builtinINS_13static_matrixIdLi4ELi4EEEEEE9apply_preINS2_3crsIS5_llEENS2_11numa_vectorINS4_IdLi4ELi1EEEEESD_SD_EEvRKT_RKT0_RT1_RT2_
FN:183,_ZNK5amgcl10relaxation4ilutINS_7backend7builtinIdEEE9apply_preINS2_3crsIdllEENS2_11numa_vectorIdEESA_SA_EEvRKT_RKT0_RT1_RT2_
FN:194,_ZNK5amgcl10relaxation4ilutINS_7backend7builtinINS_13static_matrixIdLi2ELi2EEEEEE10apply_postINS2_3crsIS5_llEENS2_11numa_vectorINS4_IdLi2ELi1EEEEESD_SD_EEvRKT_RKT0_RT1_RT2_
FN:194,_ZNK5amgcl10relaxation4ilutINS_7backend7builtinINS_13static_matrixIdLi3ELi3EEEEEE10apply_postINS2_3crsIS5_llEENS2_11numa_vectorINS4_IdLi3ELi1EEEEESD_SD_EEvRKT_RKT0_RT1_RT2_
FN:194,_ZNK5amgcl10relaxation4ilutINS_7backend7builtinINS_13static_matrixIdLi4ELi4EEEEEE10apply_postINS2_3crsIS5_llEENS2_11numa_vectorINS4_IdLi4ELi1EEEEESD_SD_EEvRKT_RKT0_RT1_RT2_
FN:194,_ZNK5amgcl10relaxation4ilutINS_7backend7builtinIdEEE10apply_postINS2_3crsIdllEENS2_11numa_vectorIdEESA_SA_EEvRKT_RKT0_RT1_RT2_
FN:204,_ZNK5amgcl10relaxation4ilutINS_7backend7builtinINS_13static_matrixIdLi2ELi2EEEEEE5applyINS2_3crsIS5_llEENS2_11numa_vectorINS4_IdLi2ELi1EEEEESD_EEvRKT_RKT0_RT1_
FN:204,_ZNK5amgcl10relaxation4ilutINS_7backend7builtinINS_13static_matrixIdLi3ELi3EEEEEE5applyINS2_3crsIS5_llEENS2_11numa_vectorINS4_IdLi3ELi1EEEEESD_EEvRKT_RKT0_RT1_
FN:204,_ZNK5amgcl10relaxation4ilutINS_7backend7builtinINS_13static_matrixIdLi4ELi4EEEEEE5applyINS2_3crsIS5_llEENS2_11numa_vectorINS4_IdLi4ELi1EEEEESD_EEvRKT_RKT0_RT1_
FN:204,_ZNK5amgcl10relaxation4ilutINS_7backend7builtinIdEEE5applyINS2_3crsIdllEENS2_11numa_vectorIdEESA_EEvRKT_RKT0_RT1_
FN:249,_ZN5amgcl10relaxation4ilutINS_7backend7builtinINS_13static_matrixIdLi2ELi2EEEEEE13sparse_vectorC2Em
FN:249,_ZN5amgcl10relaxation4ilutINS_7backend7builtinINS_13static_matrixIdLi3ELi3EEEEEE13sparse_vectorC2Em
FN:249,_ZN5amgcl10relaxation4ilutINS_7backend7builtinINS_13static_matrixIdLi4ELi4EEEEEE13sparse_vectorC2Em
FN:249,_ZN5amgcl10relaxation4ilutINS_7backend7builtinIdEEE13sparse_vectorC2Em
FN:258,_ZN5amgcl10relaxation4ilutINS_7backend7builtinINS_13static_matrixIdLi2ELi2EEEEEE13sparse_vectorixEl
FN:258,_ZN5amgcl10relaxation4ilutINS_7backend7builtinINS_13static_matrixIdLi3ELi3EEEEEE13sparse_vectorixEl
FN:258,_ZN5amgcl10relaxation4ilutINS_7backend7builtinINS_13static_matrixIdLi4ELi4EEEEEE13sparse_vectorixEl
FN:258,_ZN5amgcl10relaxation4ilutINS_7backend7builtinIdEEE13sparse_vectorixEl
FN:276,_ZN5amgcl10relaxation4ilutINS_7backend7builtinINS_13static_matrixIdLi2ELi2EEEEEE13sparse_vector12next_nonzeroEv
FN:276,_ZN5amgcl10relaxation4ilutINS_7backend7builtinINS_13static_matrixIdLi3ELi3EEEEEE13sparse_vector12next_nonzeroEv
FN:276,_ZN5amgcl10relaxation4ilutINS_7backend7builtinINS_13static_matrixIdLi4ELi4EEEEEE13sparse_vector12next_nonzeroEv
FN:276,_ZN5amgcl10relaxation4ilutINS_7backend7builtinIdEEE13sparse_vector12next_nonzeroEv
FN:309,_ZNK5amgcl10relaxation4ilutINS_7backend7builtinINS_13static_matrixIdLi2ELi2EEEEEE13sparse_vector10by_abs_valclERKNS8_7nonzeroESC_
FN:309,_ZNK5amgcl10relaxation4ilutINS_7backend7builtinINS_13static_matrixIdLi3ELi3EEEEEE13sparse_vector10by_abs_valclERKNS8_7nonzeroESC_
FN:309,_ZNK5amgcl10relaxation4ilutINS_7backend7builtinINS_13static_matrixIdLi4ELi4EEEEEE13sparse_vector10by_abs_valclERKNS8_7nonzeroESC_
FN:323,_ZN5amgcl10relaxation4ilutINS_7backend7builtinINS_13static_matrixIdLi2ELi2EEEEEE13sparse_vector7move_toEiidRlRNS2_3crsIS5_llEES9_SC_RNS2_11numa_vectorIS5_EE
FN:323,_ZN5amgcl10relaxation4ilutINS_7backend7builtinINS_13static_matrixIdLi3ELi3EEEEEE13sparse_vector7move_toEiidRlRNS2_3crsIS5_llEES9_SC_RNS2_11numa_vectorIS5_EE
FN:323,_ZN5amgcl10relaxation4ilutINS_7backend7builtinINS_13static_matrixIdLi4ELi4EEEEEE13sparse_vector7move_toEiidRlRNS2_3crsIS5_llEES9_SC_RNS2_11numa_vectorIS5_EE
FN:323,_ZN5amgcl10relaxation4ilutINS_7backend7builtinIdEEE13sparse_vector7move_toEiidRlRNS2_3crsIdllEES7_SA_RNS2_11numa_vectorIdEE
FNDA:0,_ZN5amgcl10relaxation4ilutINS_7backend7builtinINS_13static_matrixIdLi2ELi2EEEEEE13sparse_vector12next_nonzeroEv
FNDA:0,_ZN5amgcl10relaxation4ilutINS_7backend7builtinINS_13static_matrixIdLi2ELi2EEEEEE13sparse_vector7move_toEiidRlRNS2_3crsIS5_llEES9_SC_RNS2_11numa_vectorIS5_EE
FNDA:0,_ZN5amgcl10relaxation4ilutINS_7backend7builtinINS_13static_matrixIdLi2ELi2EEEEEE13sparse_vectorC2Em
FNDA:0,_ZN5amgcl10relaxation4ilutINS_7backend7builtinINS_13static_matrixIdLi2ELi2EEEEEE13sparse_vectorixEl
FNDA:0,_ZN5amgcl10relaxation4ilutINS_7backend7builtinINS_13static_matrixIdLi2ELi2EEEEEE6paramsC2ERKN5boost13property_tree11basic_ptreeINSt7__cxx1112basic_stringIcSt11char_traitsIcESaIcEEESH_St4lessISH_EEE
FNDA:0,_ZN5amgcl10relaxation4ilutINS_7backend7builtinINS_13static_matrixIdLi2ELi2EEEEEEC2INS2_3crsIS5_llEEEERKT_RKNS7_6paramsERKNS_6detail12empty_paramsE
FNDA:0,_ZN5amgcl10relaxation4ilutINS_7backend7builtinINS_13static_matrixIdLi3ELi3EEEEEE13sparse_vector12next_nonzeroEv
FNDA:0,_ZN5amgcl10relaxation4ilutINS_7backend7builtinINS_13static_matrixIdLi3ELi3EEEEEE13sparse_vector7move_toEiidRlRNS2_3crsIS5_llEES9_SC_RNS2_11numa_vectorIS5_EE
FNDA:0,_ZN5amgcl10relaxation4ilutINS_7backend7builtinINS_13static_matrixIdLi3ELi3EEEEEE13sparse_vectorC2Em
FNDA:0,_ZN5amgcl10relaxation4ilutINS_7backend7builtinINS_13static_matrixIdLi3ELi3EEEEEE13sparse_vectorixEl
FNDA:0,_ZN5amgcl10relaxation4ilutINS_7backend7builtinINS_13static_matrixIdLi3ELi3EEEEEE6paramsC2ERKN5boost13property_tree11basic_ptreeINSt7__cxx1112basic_stringIcSt11char_traitsIcESaIcEEESH_St4lessISH_EEE
FNDA:0,_ZN5amgcl10relaxation4ilutINS_7backend7builtinINS_13static_matrixIdLi3ELi3EEEEEEC2INS2_3crsIS5_llEEEERKT_RKNS7_6paramsERKNS_6detail12empty_paramsE
FNDA:0,_ZN5amgcl10relaxation4ilutINS_7backend7builtinINS_13static_matrixIdLi4ELi4EEEEEE13sparse_vector12next_nonzeroEv
FNDA:0,_ZN5amgcl10relaxation4ilutINS_7backend7builtinINS_13static_matrixIdLi4ELi4EEEEEE13sparse_vector7move_toEiidRlRNS2_3crsIS5_llEES9_SC_RNS2_11numa_vectorIS5_EE
FNDA:0,_ZN5amgcl10relaxation4ilutINS_7backend7builtinINS_13static_matrixIdLi4ELi4EEEEEE13sparse_vectorC2Em
FNDA:0,_ZN5amgcl10relaxation4ilutINS_7backend7builtinINS_13static_matrixIdLi4ELi4EEEEEE13sparse_vectorixEl
FNDA:0,_ZN5amgcl10relaxation4ilutINS_7backend7builtinINS_13static_matrixIdLi4ELi4EEEEEE6paramsC2ERKN5boost13property_tree11basic_ptreeINSt7__cxx1112basic_stringIcSt11char_traitsIcESaIcEEESH_St4lessISH_EEE
FNDA:0,_ZN5amgcl10relaxation4ilutINS_7backend7builtinINS_13static_matrixIdLi4ELi4EEEEEEC2INS2_3crsIS5_llEEEERKT_RKNS7_6paramsERKNS_6detail12empty_paramsE
FNDA:0,_ZN5amgcl10relaxation4ilutINS_7backend7builtinIdEEE13sparse_vector12next_nonzeroEv
FNDA:0,_ZN5amgcl10relaxation4ilutINS_7backend7builtinIdEEE13sparse_vector7move_toEiidRlRNS2_3crsIdllEES7_SA_RNS2_11numa_vectorIdEE
FNDA:0,_ZN5amgcl10relaxation4ilutINS_7backend7builtinIdEEE13sparse_vectorC2Em
FNDA:0,_ZN5amgcl10relaxation4ilutINS_7backend7builtinIdEEE13sparse_vectorixEl
FNDA:0,_ZN5amgcl10relaxation4ilutINS_7backend7builtinIdEEE6paramsC2ERKN5boost13property_tree11basic_ptreeINSt7__cxx1112basic_stringIcSt11char_traitsIcESaIcEEESF_St4lessISF_EEE
FNDA:0,_ZN5amgcl10relaxation4ilutINS_7backend7builtinIdEEEC2INS2_3crsIdllEEEERKT_RKNS5_6paramsERKNS_6detail12empty_paramsE
FNDA:0,_ZNK5amgcl10relaxation4ilutINS_7backend7builtinINS_13static_matrixIdLi2ELi2EEEEEE10apply_postINS2_3crsIS5_llEENS2_11numa_vectorINS4_IdLi2ELi1EEEEESD_SD_EEvRKT_RKT0_RT1_RT2_
FNDA:0,_ZNK5amgcl10relaxation4ilutINS_7backend7builtinINS_13static_matrixIdLi2ELi2EEEEEE13sparse_vector10by_abs_valclERKNS8_7nonzeroESC_
FNDA:0,_ZNK5amgcl10relaxation4ilutINS_7backend7builtinINS_13static_matrixIdLi2ELi2EEEEEE5applyINS2_3crsIS5_llEENS2_11numa_vectorINS4_IdLi2ELi1EEEEESD_EEvRKT_RKT0_RT1_
FNDA:0,_ZNK5amgcl10relaxation4ilutINS_7backend7builtinINS_13static_matrixIdLi2ELi2EEEEEE9apply_preINS2_3crsIS5_llEENS2_11numa_vectorINS4_IdLi2ELi1EEEEESD_SD_EEvRKT_RKT0_RT1_RT2_
FNDA:0,_ZNK5amgcl10relaxation4ilutINS_7backend7builtinINS_13static_matrixIdLi3ELi3EEEEEE10apply_postINS2_3crsIS5_llEENS2_11numa_vectorINS4_IdLi3ELi1EEEEESD_SD_EEvRKT_RKT0_RT1_RT2_
FNDA:0,_ZNK5amgcl10relaxation4ilutINS_7backend7builtinINS_13static_matrixIdLi3ELi3EEEEEE13sparse_vector10by_abs_valclERKNS8_7nonzeroESC_
FNDA:0,_ZNK5amgcl10relaxation4ilutINS_7backend7builtinINS_13static_matrixIdLi3ELi3EEEEEE5applyINS2_3crsIS5_llEENS2_11numa_vectorINS4_IdLi3ELi1EEEEESD_EEvRKT_RKT0_RT1_
FNDA:0,_ZNK5amgcl10relaxation4ilutINS_7backend7builtinINS_13static_matrixIdLi3ELi3EEEEEE9apply_preINS2_3crsIS5_llEENS2_11numa_vectorINS4_IdLi3ELi1EEEEESD_SD_EEvRKT_RKT0_RT1_RT2_
FNDA:0,_ZNK5amgcl10relaxation4ilutINS_7backend7builtinINS_13static_matrixIdLi4ELi4EEEEEE10apply_postINS2_3crsIS5_llEENS2_11numa_vectorINS4_IdLi4ELi1EEEEESD_SD_EEvRKT_RKT0_RT1_RT2_
FNDA:0,_ZNK5amgcl10relaxation4ilutINS_7backend7builtinINS_13static_matrixIdLi4ELi4EEEEEE13sparse_vector10by_abs_valclERKNS8_7nonzeroESC_
FNDA:0,_ZNK5amgcl10relaxation4ilutINS_7backend7builtinINS_13static_matrixIdLi4ELi4EEEEEE5applyINS2_3crsIS5_llEENS2_11numa_vectorINS4_IdLi4ELi1EEEEESD_EEvRKT_RKT0_RT1_
FNDA:0,_ZNK5amgcl10relaxation4ilutINS_7backend7builtinINS_13static_matrixIdLi4ELi4EEEEEE9apply_preINS2_3crsIS5_llEENS2_11numa_vectorINS4_IdLi4ELi1EEEEESD_SD_EEvRKT_RKT0_RT1_RT2_
FNDA:0,_ZNK5amgcl10relaxation4ilutINS_7backend7builtinIdEEE10apply_postINS2_3crsIdllEENS2_11numa_vectorIdEESA_SA_EEvRKT_RKT0_RT1_RT2_
FNDA:0,_ZNK5amgcl10relaxation4ilutINS_7backend7builtinIdEEE5applyINS2_3crsIdllEENS2_11numa_vectorIdEESA_EEvRKT_RKT0_RT1_
FNDA:0,_ZNK5amgcl10relaxation4ilutINS_7backend7builtinIdEEE9apply_preINS2_3crsIdllEENS2_11numa_vectorIdEESA_SA_EEvRKT_RKT0_RT1_RT2_
FNF:39
FNH:0
DA:56,0
DA:80,0
DA:83,0
DA:84,0
DA:85,0
DA:86,0
DA:87,0
DA:89,0
DA:90,0
DA:103,0
DA:104,0
DA:106,0
DA:110,0
DA:111,0
DA:112,0
DA:115,0
DA:116,0
DA:117,0
DA:118,0
DA:119,0
DA:120,0
DA:123,0
DA:124,0
DA:130,0
DA:131,0
DA:133,0
DA:135,0
DA:137,0
DA:138,0
DA:145,0
DA:146,0
DA:147,0
DA:149,0
DA:150,0
DA:152,0
DA:154,0
DA:155,0
DA:156,0
DA:157,0
DA:159,0
DA:160,0
DA:161,0
DA:165,0
DA:166,0
DA:167,0
DA:171,0
DA:172,0
DA:175,0
DA:176,0
DA:178,0
DA:179,0
DA:183,0
DA:188,0
DA:189,0
DA:190,0
DA:194,0
DA:199,0
DA:200,0
DA:201,0
DA:204,0
DA:207,0
DA:208,0
DA:211,0
DA:225,0
DA:226,0
DA:232,0
DA:235,0
DA:249,0
DA:250,0
DA:251,0
DA:258,0
DA:259,0
DA:260,0
DA:261,0
DA:262,0
DA:263,0
DA:265,0
DA:276,0
DA:277,0
DA:278,0
DA:279,0
DA:290,0
DA:300,0
DA:307,0
DA:309,0
DA:310,0
DA:311,0
DA:313,0
DA:319,0
DA:323,0
DA:333,0
DA:336,0
DA:339,0
DA:342,0
DA:343,0
DA:345,0
DA:346,0
DA:349,0
DA:350,0
DA:353,0
DA:354,0
DA:355,0
DA:357,0
DA:361,0
DA:363,0
DA:367,0
DA:368,0
DA:369,0
DA:371,0
DA:375,0
DA:377,0
LF:111
LH:0
end_of_record
TN:
SF:/root/Kratos/external_libraries/amgcl/relaxation/runtime.hpp
FN:92,_ZN5amgcl7runtime10relaxationrsERSiRNS1_4typeE
FN:128,_ZN5amgcl7runtime10relaxation7wrapperINS_7backend7builtinINS_13static_matrixIdLi2ELi2EEEEEEC2INS3_3crsIS6_llEEEERKT_N5boost13property_tree11basic_ptreeINSt7__cxx1112basic_stringIcSt11char_traitsIcESaIcEEESN_St4lessISN_EEERKNS_6detail12empty_paramsE
FN:128,_ZN5amgcl7runtime10relaxation7wrapperINS_7backend7builtinINS_13static_matrixIdLi3ELi3EEEEEEC2INS3_3crsIS6_llEEEERKT_N5boost13property_tree11basic_ptreeINSt7__cxx1112basic_stringIcSt11char_traitsIcESaIcEEESN_St4lessISN_EEERKNS_6detail12empty_paramsE
FN:128,_ZN5amgcl7runtime10relaxation7wrapperINS_7backend7builtinINS_13static_matrixIdLi4ELi4EEEEEEC2INS3_3crsIS6_llEEEERKT_N5boost13property_tree11basic_ptreeINSt7__cxx1112basic_stringIcSt11char_traitsIcESaIcEEESN_St4lessISN_EEERKNS_6detail12empty_paramsE
FN:128,_ZN5amgcl7runtime10relaxation7wrapperINS_7backend7builtinIdEEEC2INS3_3crsIdllEEEERKT_N5boost13property_tree11basic_ptreeINSt7__cxx1112basic_stringIcSt11char_traitsIcESaIcEEESL_St4lessISL_EEERKNS_6detail12empty_paramsE
FN:158,_ZN5amgcl7runtime10relaxation7wrapperINS_7backend7builtinINS_13static_matrixIdLi2ELi2EEEEEED2Ev
FN:158,_ZN5amgcl7runtime10relaxation7wrapperINS_7backend7builtinINS_13static_matrixIdLi3ELi3EEEEEED2Ev
FN:158,_ZN5amgcl7runtime10relaxation7wrapperINS_7backend7builtinINS_13static_matrixIdLi4ELi4EEEEEED2Ev
FN:158,_ZN5amgcl7runtime10relaxation7wrapperINS_7backend7builtinIdEEED2Ev
FN:180,_ZNK5amgcl7runtime10relaxation7wrapperINS_7backend7builtinINS_13static_matrixIdLi2ELi2EEEEEE9apply_preINS3_3crsIS6_llEENS3_11numa_vectorINS5_IdLi2ELi1EEEEESE_SE_EEvRKT_RKT0_RT1_RT2_
FN:180,_ZNK5amgcl7runtime10relaxation7wrapperINS_7backend7builtinINS_13static_matrixIdLi3ELi3EEEEEE9apply_preINS3_3crsIS6_llEENS3_11numa_vectorINS5_IdLi3ELi1EEEEESE_SE_EEvRKT_RKT0_RT1_RT2_
FN:180,_ZNK5amgcl7runtime10relaxation7wrapperINS_7backend7builtinINS_13static_matrixIdLi4ELi4EEEEEE9apply_preINS3_3crsIS6_llEENS3_11numa_vectorINS5_IdLi4ELi1EEEEESE_SE_EEvRKT_RKT0_RT1_RT2_
FN:180,_ZNK5amgcl7runtime10relaxation7wrapperINS_7backend7builtinIdEEE9apply_preINS3_3crsIdllEENS3_11numa_vectorIdEESB_SB_EEvRKT_RKT0_RT1_RT2_
FN:208,_ZNK5amgcl7runtime10relaxation7wrapperINS_7backend7builtinINS_13static_matrixIdLi2ELi2EEEEEE10apply_postINS3_3crsIS6_llEENS3_11numa_vectorINS5_IdLi2ELi1EEEEESE_SE_EEvRKT_RKT0_RT1_RT2_
FN:208,_ZNK5amgcl7runtime10relaxation7wrapperINS_7backend7builtinINS_13static_matrixIdLi3ELi3EEEEEE10apply_postINS3_3crsIS6_llEENS3_11numa_vectorINS5_IdLi3ELi1EEEEESE_SE_EEvRKT_RKT0_RT1_RT2_
FN:208,_ZNK5amgcl7runtime10relaxation7wrapperINS_7backend7builtinINS_13static_matrixIdLi4ELi4EEEEEE10apply_postINS3_3crsIS6_llEENS3_11numa_vectorINS5_IdLi4ELi1EEEEESE_SE_EEvRKT_RKT0_RT1_RT2_
FN:208,_ZNK5amgcl7runtime10relaxation7wrapperINS_7backend7builtinIdEEE10apply_postINS3_3crsIdllEENS3_11numa_vectorIdEESB_SB_EEvRKT_RKT0_RT1_RT2_
FN:236,_ZNK5amgcl7runtime10relaxation7wrapperINS_7backend7builtinINS_13static_matrixIdLi2ELi2EEEEEE5applyINS3_3crsIS6_llEENS3_11numa_vectorINS5_IdLi2ELi1EEEEESE_EEvRKT_RKT0_RT1_
FN:236,_ZNK5amgcl7runtime10relaxation7wrapperINS_7backend7builtinINS_13static_matrixIdLi3ELi3EEEEEE5applyINS3_3crsIS6_llEENS3_11numa_vectorINS5_IdLi3ELi1EEEEESE_EEvRKT_RKT0_RT1_
FN:236,_ZNK5amgcl7runtime10relaxation7wrapperINS_7backend7builtinINS_13static_matrixIdLi4ELi4EEEEEE5applyINS3_3crsIS6_llEENS3_11numa_vectorINS5_IdLi4ELi1EEEEESE_EEvRKT_RKT0_RT1_
FN:236,_ZNK5amgcl7runtime10relaxation7wrapperINS_7backend7builtinIdEEE5applyINS3_3crsIdllEENS3_11numa_vectorIdEESB_EEvRKT_RKT0_RT1_
FN:261,_ZNK5amgcl7runtime10relaxation7wrapperINS_7backend7builtinINS_13static_matrixIdLi2ELi2EEEEEE5bytesEv
FN:261,_ZNK5amgcl7runtime10relaxation7wrapperINS_7backend7builtinINS_13static_matrixIdLi3ELi3EEEEEE5bytesEv
FN:261,_ZNK5amgcl7runtime10relaxation7wrapperINS_7backend7builtinINS_13static_matrixIdLi4ELi4EEEEEE5bytesEv
FN:261,_ZNK5amgcl7runtime10relaxation7wrapperINS_7backend7builtinIdEEE5bytesEv
FN:289,_ZN5amgcl7runtime10relaxation7wrapperINS_7backend7builtinINS_13static_matrixIdLi2ELi2EEEEEE16call_constructorINS_10relaxation12gauss_seidelENS3_3crsIS6_llEEEENSt9enable_ifIXsrNS3_23relaxation_is_supportedIS7_T_vEE5valueEPvE4typeERKT0_RKN5boost13property_tree11basic_ptreeINSt7__cxx1112basic_stringIcSt11char_traitsIcESaIcEEESW_St4lessISW_EEERKNS_6detail12empty_paramsE
FN:289,_ZN5amgcl7runtime10relaxation7wrapperINS_7backend7builtinINS_13static_matrixIdLi2ELi2EEEEEE16call_constructorINS_10relaxation13damped_jacobiENS3_3crsIS6_llEEEENSt9enable_ifIXsrNS3_23relaxation_is_supportedIS7_T_vEE5valueEPvE4typeERKT0_RKN5boost13property_tree11basic_ptreeINSt7__cxx1112basic_stringIcSt11char_traitsIcESaIcEEESW_St4lessISW_EEERKNS_6detail12empty_paramsE
FN:289,_ZN5amgcl7runtime10relaxation7wrapperINS_7backend7builtinINS_13static_matrixIdLi2ELi2EEEEEE16call_constructorINS_10relaxation4ilu0ENS3_3crsIS6_llEEEENSt9enable_ifIXsrNS3_23relaxation_is_supportedIS7_T_vEE5valueEPvE4typeERKT0_RKN5boost13property_tree11basic_ptreeINSt7__cxx1112basic_stringIcSt11char_traitsIcESaIcEEESW_St4lessISW_EEERKNS_6detail12empty_paramsE
FN:289,_ZN5amgcl7runtime10relaxation7wrapperINS_7backend7builtinINS_13static_matrixIdLi2ELi2EEEEEE16call_constructorINS_10relaxation4ilukENS3_3crsIS6_llEEEENSt9enable_ifIXsrNS3_23relaxation_is_supportedIS7_T_vEE5valueEPvE4typeERKT0_RKN5boost13property_tree11basic_ptreeINSt7__cxx1112basic_stringIcSt11char_traitsIcESaIcEEESW_St4lessISW_EEERKNS_6detail12empty_paramsE
FN:289,_ZN5amgcl7runtime10relaxation7wrapperINS_7backend7builtinINS_13static_matrixIdLi2ELi2EEEEEE16call_constructorINS_10relaxation4ilutENS3_3crsIS6_llEEEENSt9enable_ifIXsrNS3_23relaxation_is_supportedIS7_T_vEE5valueEPvE4typeERKT0_RKN5boost13property_tree11basic_ptreeINSt7__cxx1112basic_stringIcSt11char_traitsIcESaIcEEESW_St4lessISW_EEERKNS_6detail12empty_paramsE
FN:289,_ZN5amgcl7runtime10relaxation7wrapperINS_7backend7builtinINS_13static_matrixIdLi2ELi2EEEEEE16call_constructorINS_10relaxation5spai0ENS3_3crsIS6_llEEEENSt9enable_ifIXsrNS3_23relaxation_is_supportedIS7_T_vEE5valueEPvE4typeERKT0_RKN5boost13property_tree11basic_ptreeINSt7__cxx1112basic_stringIcSt11char_traitsIcESaIcEEESW_St4lessISW_EEERKNS_6detail12empty_paramsE
FN:289,_ZN5amgcl7runtime10relaxation7wrapperINS_7backend7builtinINS_13static_matrixIdLi2ELi2EEEEEE16call_constructorINS_10relaxation9chebyshevENS3_3crsIS6_llEEEENSt9enable_ifIXsrNS3_23relaxation_is_supportedIS7_T_vEE5valueEPvE4typeERKT0_RKN5boost13property_tree11basic_ptreeINSt7__cxx1112basic_stringIcSt11char_traitsIcESaIcEEESW_St4lessISW_EEERKNS_6detail12empty_paramsE
FN:289,_ZN5amgcl7runtime10relaxation7wrapperINS_7backend7builtinINS_13static_matrixIdLi3ELi3EEEEEE16call_constructorINS_10relaxation12gauss_seidelENS3_3crsIS6_llEEEENSt9enable_ifIXsrNS3_23relaxation_is_supportedIS7_T_vEE5valueEPvE4typeERKT0_RKN5boost13property_tree11basic_ptreeINSt7__cxx1112basic_stringIcSt11char_traitsIcESaIcEEESW_St4lessISW_EEERKNS_6detail12empty_paramsE
FN:289,_ZN5amgcl7runtime10relaxation7wrapperINS_7backend7builtinINS_13static_matrixIdLi3ELi3EEEEEE16call_constructorINS_10relaxation13damped_jacobiENS3_3crsIS6_llEEEENSt9enable_ifIXsrNS3_23relaxation_is_supportedIS7_T_vEE5valueEPvE4typeERKT0_RKN5boost13property_tree11basic_ptreeINSt7__cxx1112basic_stringIcSt11char_traitsIcESaIcEEESW_St4lessISW_EEERKNS_6detail12empty_paramsE
FN:289,_ZN5amgcl7runtime10relaxation7wrapperINS_7backend7builtinINS_13static_matrixIdLi3ELi3EEEEEE16call_constructorINS_10relaxation4ilu0ENS3_3crsIS6_llEEEENSt9enable_ifIXsrNS3_23relaxation_is_supportedIS7_T_vEE5valueEPvE4typeERKT0_RKN5boost13property_tree11basic_ptreeINSt7__cxx1112basic_stringIcSt11char_traitsIcESaIcEEESW_St4lessISW_EEERKNS_6detail12empty_paramsE
FN:289,_ZN5amgcl7runtime10relaxation7wrapperINS_7backend7builtinINS_13static_matrixIdLi3ELi3EEEEEE16call_constructorINS_10relaxation4ilukENS3_3crsIS6_llEEEENSt9enable_ifIXsrNS3_23relaxation_is_supportedIS7_T_vEE5valueEPvE4typeERKT0_RKN5boost13property_tree11basic_ptreeINSt7__cxx1112basic_stringIcSt11char_traitsIcESaIcEEESW_St4lessISW_EEERKNS_6detail12empty_paramsE
FN:289,_ZN5amgcl7runtime10relaxation7wrapperINS_7backend7builtinINS_13static_matrixIdLi3ELi3EEEEEE16call_constructorINS_10relaxation4ilutENS3_3crsIS6_llEEEENSt9enable_ifIXsrNS3_23relaxation_is_supportedIS7_T_vEE5valueEPvE4typeERKT0_RKN5boost13property_tree11basic_ptreeINSt7__cxx1112basic_stringIcSt11char_traitsIcESaIcEEESW_St4lessISW_EEERKNS_6detail12empty_paramsE
FN:289,_ZN5amgcl7runtime10relaxation7wrapperINS_7backend7builtinINS_13static_matrixIdLi3ELi3EEEEEE16call_constructorINS_10relaxation5spai0ENS3_3crsIS6_llEEEENSt9enable_ifIXsrNS3_23relaxation_is_supportedIS7_T_vEE5valueEPvE4typeERKT0_RKN5boost13property_tree11basic_ptreeINSt7__cxx1112basic_stringIcSt11char_traitsIcESaIcEEESW_St4lessISW_EEERKNS_6detail12empty_paramsE
FN:289,_ZN5amgcl7runtime10relaxation7wrapperINS_7backend7builtinINS_13static_matrixIdLi3ELi3EEEEEE16call_constructorINS_10relaxation9chebyshevENS3_3crsIS6_llEEEENSt9enable_ifIXsrNS3_23relaxation_is_supportedIS7_T_vEE5valueEPvE4typeERKT0_RKN5boost13property_tree11basic_ptreeINSt7__cxx1112basic_stringIcSt11char_traitsIcESaIcEEESW_St4lessISW_EEERKNS_6detail12empty_paramsE
FN:289,_ZN5amgcl7runtime10relaxation7wrapperINS_7backend7builtinINS_13static_matrixIdLi4ELi4EEEEEE16call_constructorINS_10relaxation12gauss_seidelENS3_3crsIS6_llEEEENSt9enable_ifIXsrNS3_23relaxation_is_supportedIS7_T_vEE5valueEPvE4typeERKT0_RKN5boost13property_tree11basic_ptreeINSt7__cxx1112basic_stringIcSt11char_traitsIcESaIcEEESW_St4lessISW_EEERKNS_6detail12empty_paramsE
FN:289,_ZN5amgcl7runtime10relaxation7wrapperINS_7backend7builtinINS_13static_matrixIdLi4ELi4EEEEEE16call_constructorINS_10relaxation13damped_jacobiENS3_3crsIS6_llEEEENSt9enable_ifIXsrNS3_23relaxation_is_supportedIS7_T_vEE5valueEPvE4typeERKT0_RKN5boost13property_tree11basic_ptreeINSt7__cxx1112basic_stringIcSt11char_traitsIcESaIcEEESW_St4lessISW_EEERKNS_6detail12empty_paramsE
FN:289,_ZN5amgcl7runtime10relaxation7wrapperINS_7backend7builtinINS_13static_matrixIdLi4ELi4EEEEEE16call_constructorINS_10relaxation4ilu0ENS3_3crsIS6_llEEEENSt9enable_ifIXsrNS3_23relaxation_is_supportedIS7_T_vEE5valueEPvE4typeERKT0_RKN5boost13property_tree11basic_ptreeINSt7__cxx1112basic_stringIcSt11char_traitsIcESaIcEEESW_St4lessISW_EEERKNS_6detail12empty_paramsE
FN:289,_ZN5amgcl7runtime10relaxation7wrapperINS_7backend7builtinINS_13static_matrixIdLi4ELi4EEEEEE16call_constructorINS_10relaxation4ilukENS3_3crsIS6_llEEEENSt9enable_ifIXsrNS3_23relaxation_is_supportedIS7_T_vEE5valueEPvE4typeERKT0_RKN5boost13property_tree11basic_ptreeINSt7__cxx1112basic_stringIcSt11char_traitsIcESaIcEEESW_St4lessISW_EEERKNS_6detail12empty_paramsE
FN:289,_ZN5amgcl7runtime10relaxation7wrapperINS_7backend7builtinINS_13static_matrixIdLi4ELi4EEEEEE16call_constructorINS_10relaxation4ilutENS3_3crsIS6_llEEEENSt9enable_ifIXsrNS3_23relaxation_is_supportedIS7_T_vEE5valueEPvE4typeERKT0_RKN5boost13property_tree11basic_ptreeINSt7__cxx1112basic_stringIcSt11char_traitsIcESaIcEEESW_St4lessISW_EEERKNS_6detail12empty_paramsE
FN:289,_ZN5amgcl7runtime10relaxation7wrapperINS_7backend7builtinINS_13static_matrixIdLi4ELi4EEEEEE16call_constructorINS_10relaxation5spai0ENS3_3crsIS6_llEEEENSt9enable_ifIXsrNS3_23relaxation_is_supportedIS7_T_vEE5valueEPvE4typeERKT0_RKN5boost13property_tree11basic_ptreeINSt7__cxx1112basic_stringIcSt11char_traitsIcESaIcEEESW_St4lessISW_EEERKNS_6detail12empty_paramsE
FN:289,_ZN5amgcl7runtime10relaxation7wrapperINS_7backend7builtinINS_13static_matrixIdLi4ELi4EEEEEE16call_constructorINS_10relaxation9chebyshevENS3_3crsIS6_llEEEENSt9enable_ifIXsrNS3_23relaxation_is_supportedIS7_T_vEE5valueEPvE4typeERKT0_RKN5boost13property_tree11basic_ptreeINSt7__cxx1112basic_stringIcSt11char_traitsIcESaIcEEESW_St4lessISW_EEERKNS_6detail12empty_paramsE
FN:289,_ZN5amgcl7runtime10relaxation7wrapperINS_7backend7builtinIdEEE16call_constructorINS_10relaxation12gauss_seidelENS3_3crsIdllEEEENSt9enable_ifIXsrNS3_23relaxation_is_supportedIS5_T_vEE5valueEPvE4typeERKT0_RKN5boost13property_tree11basic_ptreeINSt7__cxx1112basic_stringIcSt11char_traitsIcESaIcEEESU_St4lessISU_EEERKNS_6detail12empty_paramsE
FN:289,_ZN5amgcl7runtime10relaxation7wrapperINS_7backend7builtinIdEEE16call_constructorINS_10relaxation13damped_jacobiENS3_3crsIdllEEEENSt9enable_ifIXsrNS3_23relaxation_is_supportedIS5_T_vEE5valueEPvE4typeERKT0_RKN5boost13property_tree11basic_ptreeINSt7__cxx1112basic_stringIcSt11char_traitsIcESaIcEEESU_St4lessISU_EEERKNS_6detail12empty_paramsE
FN:289,_ZN5amgcl7runtime10relaxation7wrapperINS_7backend7builtinIdEEE16call_constructorINS_10relaxation4ilu0ENS3_3crsIdllEEEENSt9enable_ifIXsrNS3_23relaxation_is_supportedIS5_T_vEE5valueEPvE4typeERKT0_RKN5boost13property_tree11basic_ptreeINSt7__cxx1112basic_stringIcSt11char_traitsIcESaIcEEESU_St4lessISU_EEERKNS_6detail12empty_paramsE
FN:289,_ZN5amgcl7runtime10relaxation7wrapperINS_7backend7builtinIdEEE16call_constructorINS_10relaxation4ilukENS3_3crsIdllEEEENSt9enable_ifIXsrNS3_23relaxation_is_supportedIS5_T_vEE5valueEPvE4typeERKT0_RKN5boost13property_tree11basic_ptreeINSt7__cxx1112basic_stringIcSt11char_traitsIcESaIcEEESU_St4lessISU_EEERKNS_6detail12empty_paramsE
FN:289,_ZN5amgcl7runtime10relaxation7wrapperINS_7backend7builtinIdEEE16call_constructorINS_10relaxation4ilutENS3_3crsIdllEEEENSt9enable_ifIXsrNS3_23relaxation_is_supportedIS5_T_vEE5valueEPvE4typeERKT0_RKN5boost13property_tree11basic_ptreeINSt7__cxx1112basic_stringIcSt11char_traitsIcESaIcEEESU_St4lessISU_EEERKNS_6detail12empty_paramsE
FN:289,_ZN5amgcl7runtime10relaxation7wrapperINS_7backend7builtinIdEEE16call_constructorINS_10relaxation5spai0ENS3_3crsIdllEEEENSt9enable_ifIXsrNS3_23relaxation_is_supportedIS5_T_vEE5valueEPvE4typeERKT0_RKN5boost13property_tree11basic_ptreeINSt7__cxx1112basic_stringIcSt11char_traitsIcESaIcEEESU_St4lessISU_EEERKNS_6detail12empty_paramsE
FN:289,_ZN5amgcl7runtime10relaxation7wrapperINS_7backend7builtinIdEEE16call_constructorINS_10relaxation5spai1ENS3_3crsIdllEEEENSt9enable_ifIXsrNS3_23relaxation_is_supportedIS5_T_vEE5valueEPvE4typeERKT0_RKN5boost13property_tree11basic_ptreeINSt7__cxx1112basic_stringIcSt11char_traitsIcESaIcEEESU_St4lessISU_EEERKNS_6detail12empty_paramsE
FN:289,_ZN5amgcl7runtime10relaxation7wrapperINS_7backend7builtinIdEEE16call_constructorINS_10relaxation9chebyshevENS3_3crsIdllEEEENSt9enable_ifIXsrNS3_23relaxation_is_supportedIS5_T_vEE5valueEPvE4typeERKT0_RKN5boost13property_tree11basic_ptreeINSt7__cxx1112basic_stringIcSt11char_traitsIcESaIcEEESU_St4lessISU_EEERKNS_6detail12empty_paramsE
FN:300,_ZN5amgcl7runtime10relaxation7wrapperINS_7backend7builtinINS_13static_matrixIdLi2ELi2EEEEEE16call_constructorINS_10relaxation5spai1ENS3_3crsIS6_llEEEENSt9enable_ifIXntsrNS3_23relaxation_is_supportedIS7_T_vEE5valueEPvE4typeERKT0_RKN5boost13property_tree11basic_ptreeINSt7__cxx1112basic_stringIcSt11char_traitsIcESaIcEEESW_St4lessISW_EEERKNS_6detail12empty_paramsE
FN:300,_ZN5amgcl7runtime10relaxation7wrapperINS_7backend7builtinINS_13static_matrixIdLi3ELi3EEEEEE16call_constructorINS_10relaxation5spai1ENS3_3crsIS6_llEEEENSt9enable_ifIXntsrNS3_23relaxation_is_supportedIS7_T_vEE5valueEPvE4typeERKT0_RKN5boost13property_tree11basic_ptreeINSt7__cxx1112basic_stringIcSt11char_traitsIcESaIcEEESW_St4lessISW_EEERKNS_6detail12empty_paramsE
FN:300,_ZN5amgcl7runtime10relaxation7wrapperINS_7backend7builtinINS_13static_matrixIdLi4ELi4EEEEEE16call_constructorINS_10relaxation5spai1ENS3_3crsIS6_llEEEENSt9enable_ifIXntsrNS3_23relaxation_is_supportedIS7_T_vEE5valueEPvE4typeERKT0_RKN5boost13property_tree11basic_ptreeINSt7__cxx1112basic_stringIcSt11char_traitsIcESaIcEEESW_St4lessISW_EEERKNS_6detail12empty_paramsE
FN:321,_ZNK5amgcl7runtime10relaxation7wrapperINS_7backend7builtinINS_13static_matrixIdLi2ELi2EEEEEE14call_apply_preINS_10relaxation5spai1ENS3_3crsIS6_llEENS3_11numa_vectorINS5_IdLi2ELi1EEEEESG_SG_EENSt9enable_ifIXntsrNS3_23relaxation_is_supportedIS7_T_vEE5valueEvE4typeERKT0_RKT1_RT2_RT3_
FN:321,_ZNK5amgcl7runtime10relaxation7wrapperINS_7backend7builtinINS_13static_matrixIdLi3ELi3EEEEEE14call_apply_preINS_10relaxation5spai1ENS3_3crsIS6_llEENS3_11numa_vectorINS5_IdLi3ELi1EEEEESG_SG_EENSt9enable_ifIXntsrNS3_23relaxation_is_supportedIS7_T_vEE5valueEvE4typeERKT0_RKT1_RT2_RT3_
FN:321,_ZNK5amgcl7runtime10relaxation7wrapperINS_7backend7builtinINS_13static_matrixIdLi4ELi4EEEEEE14call_apply_preINS_10relaxation5spai1ENS3_3crsIS6_llEENS3_11numa_vectorINS5_IdLi4ELi1EEEEESG_SG_EENSt9enable_ifIXntsrNS3_23relaxation_is_supportedIS7_T_vEE5valueEvE4typeERKT0_RKT1_RT2_RT3_
FN:341,_ZNK5amgcl7runtime10relaxation7wrapperINS_7backend7builtinINS_13static_matrixIdLi2ELi2EEEEEE15call_apply_postINS_10relaxation5spai1ENS3_3crsIS6_llEENS3_11numa_vectorINS5_IdLi2ELi1EEEEESG_SG_EENSt9enable_ifIXntsrNS3_23relaxation_is_supportedIS7_T_vEE5valueEvE4typeERKT0_RKT1_RT2_RT3_
FN:341,_ZNK5amgcl7runtime10relaxation7wrapperINS_7backend7builtinINS_13static_matrixIdLi3ELi3EEEEEE15call_apply_postINS_10relaxation5spai1ENS3_3crsIS6_llEENS3_11numa_vectorINS5_IdLi3ELi1EEEEESG_SG_EENSt9enable_ifIXntsrNS3_23relaxation_is_supportedIS7_T_vEE5valueEvE4typeERKT0_RKT1_RT2_RT3_
FN:341,_ZNK5amgcl7runtime10relaxation7wrapperINS_7backend7builtinINS_13static_matrixIdLi4ELi4EEEEEE15call_apply_postINS_10relaxation5spai1ENS3_3crsIS6_llEENS3_11numa_vectorINS5_IdLi4ELi1EEEEESG_SG_EENSt9enable_ifIXntsrNS3_23relaxation_is_supportedIS7_T_vEE5valueEvE4typeERKT0_RKT1_RT2_RT3_
FN:361,_ZNK5amgcl7runtime10relaxation7wrapperINS_7backend7builtinINS_13static_matrixIdLi2ELi2EEEEEE10call_applyINS_10relaxation5spai1ENS3_3crsIS6_llEENS3_11numa_vectorINS5_IdLi2ELi1EEEEESG_EENSt9enable_ifIXntsrNS3_23relaxation_is_supportedIS7_T_vEE5valueEvE4typeERKT0_RKT1_RT2_
FN:361,_ZNK5amgcl7runtime10relaxation7wrapperINS_7backend7builtinINS_13static_matrixIdLi3ELi3EEEEEE10call_applyINS_10relaxation5spai1ENS3_3crsIS6_llEENS3_11numa_vectorINS5_IdLi3ELi1EEEEESG_EENSt9enable_ifIXntsrNS3_23relaxation_is_supportedIS7_T_vEE5valueEvE4typeERKT0_RKT1_RT2_
FN:361,_ZNK5amgcl7runtime10relaxation7wrapperINS_7backend7builtinINS_13static_matrixIdLi4ELi4EEEEEE10call_applyINS_10relaxation5spai1ENS3_3crsIS6_llEENS3_11numa_vectorINS5_IdLi4ELi1EEEEESG_EENSt9enable_ifIXntsrNS3_23relaxation_is_supportedIS7_T_vEE5valueEvE4typeERKT0_RKT1_RT2_
FNDA:0,_ZN5amgcl7runtime10relaxation7wrapperINS_7backend7builtinINS_13static_matrixIdLi2ELi2EEEEEE16call_constructorINS_10relaxation12gauss_seidelENS3_3crsIS6_llEEEENSt9enable_ifIXsrNS3_23relaxation_is_supportedIS7_T_vEE5valueEPvE4typeERKT0_RKN5boost13property_tree11basic_ptreeINSt7__cxx1112basic_stringIcSt11char_traitsIcESaIcEEESW_St4lessISW_EEERKNS_6detail12empty_paramsE
FNDA:0,_ZN5amgcl7runtime10relaxation7wrapperINS_7backend7builtinINS_13static_matrixIdLi2ELi2EEEEEE16call_constructorINS_10relaxation13damped_jacobiENS3_3crsIS6_llEEEENSt9enable_ifIXsrNS3_23relaxation_is_supportedIS7_T_vEE5valueEPvE4typeERKT0_RKN5boost13property_tree11basic_ptreeINSt7__cxx1112basic_stringIcSt11char_traitsIcESaIcEEESW_St4lessISW_EEERKNS_6detail12empty_paramsE
FNDA:0,_ZN5amgcl7runtime10relaxation7wrapperINS_7backend7builtinINS_13static_matrixIdLi2ELi2EEEEEE16call_constructorINS_10relaxation4ilu0ENS3_3crsIS6_llEEEENSt9enable_ifIXsrNS3_23relaxation_is_supportedIS7_T_vEE5valueEPvE4typeERKT0_RKN5boost13property_tree11basic_ptreeINSt7__cxx1112basic_stringIcSt11char_traitsIcESaIcEEESW_St4lessISW_EEERKNS_6detail12empty_paramsE
FNDA:0,_ZN5amgcl7runtime10relaxation7wrapperINS_7backend7builtinINS_13static_matrixIdLi2ELi2EEEEEE16call_constructorINS_10relaxation4ilukENS3_3crsIS6_llEEEENSt9enable_ifIXsrNS3_23relaxation_is_supportedIS7_T_vEE5valueEPvE4typeERKT0_RKN5boost13property_tree11basic_ptreeINSt7__cxx1112basic_stringIcSt11char_traitsIcESaIcEEESW_St4lessISW_EEERKNS_6detail12empty_paramsE
FNDA:0,_ZN5amgcl7runtime10relaxation7wrapperINS_7backend7builtinINS_13static_matrixIdLi2ELi2EEEEEE16call_constructorINS_10relaxation4ilutENS3_3crsIS6_llEEEENSt9enable_ifIXsrNS3_23relaxation_is_supportedIS7_T_vEE5valueEPvE4typeERKT0_RKN5boost13property_tree11basic_ptreeINSt7__cxx1112basic_stringIcSt11char_traitsIcESaIcEEESW_St4lessISW_EEERKNS_6detail12empty_paramsE
FNDA:0,_ZN5amgcl7runtime10relaxation7wrapperINS_7backend7builtinINS_13static_matrixIdLi2ELi2EEEEEE16call_constructorINS_10relaxation5spai0ENS3_3crsIS6_llEEEENSt9enable_ifIXsrNS3_23relaxation_is_supportedIS7_T_vEE5valueEPvE4typeERKT0_RKN5boost13property_tree11basic_ptreeINSt7__cxx1112basic_stringIcSt11char_traitsIcESaIcEEESW_St4lessISW_EEERKNS_6detail12empty_paramsE
FNDA:0,_ZN5amgcl7runtime10relaxation7wrapperINS_7backend7builtinINS_13static_matrixIdLi2ELi2EEEEEE16call_constructorINS_10relaxation5spai1ENS3_3crsIS6_llEEEENSt9enable_ifIXntsrNS3_23relaxation_is_supportedIS7_T_vEE5valueEPvE4typeERKT0_RKN5boost13property_tree11basic_ptreeINSt7__cxx1112basic_stringIcSt11char_traitsIcESaIcEEESW_St4lessISW_EEERKNS_6detail12empty_paramsE
FNDA:0,_ZN5amgcl7runtime10relaxation7wrapperINS_7backend7builtinINS_13static_matrixIdLi2ELi2EEEEEE16call_constructorINS_10relaxation9chebyshevENS3_3crsIS6_llEEEENSt9enable_ifIXsrNS3_23relaxation_is_supportedIS7_T_vEE5valueEPvE4typeERKT0_RKN5boost13property_tree11basic_ptreeINSt7__cxx1112basic_stringIcSt11char_traitsIcESaIcEEESW_St4lessISW_EEERKNS_6detail12empty_paramsE
FNDA:0,_ZN5amgcl7runtime10relaxation7wrapperINS_7backend7builtinINS_13static_matrixIdLi2ELi2EEEEEEC2INS3_3crsIS6_llEEEERKT_N5boost13property_tree11basic_ptreeINSt7__cxx1112basic_stringIcSt11char_traitsIcESaIcEEESN_St4lessISN_EEERKNS_6detail12empty_paramsE
FNDA:0,_ZN5amgcl7runtime10relaxation7wrapperINS_7backend7builtinINS_13static_matrixIdLi2ELi2EEEEEED2Ev
FNDA:0,_ZN5amgcl7runtime10relaxation7wrapperINS_7backend7builtinINS_13static_matrixIdLi3ELi3EEEEEE16call_constructorINS_10relaxation12gauss_seidelENS3_3crsIS6_llEEEENSt9enable_ifIXsrNS3_23relaxation_is_supportedIS7_T_vEE5valueEPvE4typeERKT0_RKN5boost13property_tree11basic_ptreeINSt7__cxx1112basic_stringIcSt11char_traitsIcESaIcEEESW_St4lessISW_EEERKNS_6detail12empty_paramsE
FNDA:0,_ZN5amgcl7runtime10relaxation7wrapperINS_7backend7builtinINS_13static_matrixIdLi3ELi3EEEEEE16call_constructorINS_10relaxation13damped_jacobiENS3_3crsIS6_llEEEENSt9enable_ifIXsrNS3_23relaxation_is_supportedIS7_T_vEE5valueEPvE4typeERKT0_RKN5boost13property_tree11basic_ptreeINSt7__cxx1112basic_stringIcSt11char_traitsIcESaIcEEESW_St4lessISW_EEERKNS_6detail12empty_paramsE
FNDA:0,_ZN5amgcl7runtime10relaxation7wrapperINS_7backend7builtinINS_13static_matrixIdLi3ELi3EEEEEE16call_constructorINS_10relaxation4ilu0ENS3_3crsIS6_llEEEENSt9enable_ifIXsrNS3_23relaxation_is_supportedIS7_T_vEE5valueEPvE4typeERKT0_RKN5boost13property_tree11basic_ptreeINSt7__cxx1112basic_stringIcSt11char_traitsIcESaIcEEESW_St4lessISW_EEERKNS_6detail12empty_paramsE
FNDA:0,_ZN5amgcl7runtime10relaxation7wrapperINS_7backend7builtinINS_13static_matrixIdLi3ELi3EEEEEE16call_constructorINS_10relaxation4ilukENS3_3crsIS6_llEEEENSt9enable_ifIXsrNS3_23relaxation_is_supportedIS7_T_vEE5valueEPvE4typeERKT0_RKN5boost13property_tree11basic_ptreeINSt7__cxx1112basic_stringIcSt11char_traitsIcESaIcEEESW_St4lessISW_EEERKNS_6detail12empty_paramsE
FNDA:0,_ZN5amgcl7runtime10relaxation7wrapperINS_7backend7builtinINS_13static_matrixIdLi3ELi3EEEEEE16call_constructorINS_10relaxation4ilutENS3_3crsIS6_llEEEENSt9enable_ifIXsrNS3_23relaxation_is_supportedIS7_T_vEE5valueEPvE4typeERKT0_RKN5boost13property_tree11basic_ptreeINSt7__cxx1112basic_stringIcSt11char_traitsIcESaIcEEESW_St4lessISW_EEERKNS_6detail12empty_paramsE
FNDA:0,_ZN5amgcl7runtime10relaxation7wrapperINS_7backend7builtinINS_13static_matrixIdLi3ELi3EEEEEE16call_constructorINS_10relaxation5spai0ENS3_3crsIS6_llEEEENSt9enable_ifIXsrNS3_23relaxation_is_supportedIS7_T_vEE5valueEPvE4typeERKT0_RKN5boost13property_tree11basic_ptreeINSt7__cxx1112basic_stringIcSt11char_traitsIcESaIcEEESW_St4lessISW_EEERKNS_6detail12empty_paramsE
FNDA:0,_ZN5amgcl7runtime10relaxation7wrapperINS_7backend7builtinINS_13static_matrixIdLi3ELi3EEEEEE16call_constructorINS_10relaxation5spai1ENS3_3crsIS6_llEEEENSt9enable_ifIXntsrNS3_23relaxation_is_supportedIS7_T_vEE5valueEPvE4typeERKT0_RKN5boost13property_tree11basic_ptreeINSt7__cxx1112basic_stringIcSt11char_traitsIcESaIcEEESW_St4lessISW_EEERKNS_6detail12empty_paramsE
FNDA:0,_ZN5amgcl7runtime10relaxation7wrapperINS_7backend7builtinINS_13static_matrixIdLi3ELi3EEEEEE16call_constructorINS_10relaxation9chebyshevENS3_3crsIS6_llEEEENSt9enable_ifIXsrNS3_23relaxation_is_supportedIS7_T_vEE5valueEPvE4typeERKT0_RKN5boost13property_tree11basic_ptreeINSt7__cxx1112basic_stringIcSt11char_traitsIcESaIcEEESW_St4lessISW_EEERKNS_6detail12empty_paramsE
FNDA:0,_ZN5amgcl7runtime10relaxation7wrapperINS_7backend7builtinINS_13static_matrixIdLi3ELi3EEEEEEC2INS3_3crsIS6_llEEEERKT_N5boost13property_tree11basic_ptreeINSt7__cxx1112basic_stringIcSt11char_traitsIcESaIcEEESN_St4lessISN_EEERKNS_6detail12empty_paramsE
FNDA:0,_ZN5amgcl7runtime10relaxation7wrapperINS_7backend7builtinINS_13static_matrixIdLi3ELi3EEEEEED2Ev
FNDA:0,_ZN5amgcl7runtime10relaxation7wrapperINS_7backend7builtinINS_13static_matrixIdLi4ELi4EEEEEE16call_constructorINS_10relaxation12gauss_seidelENS3_3crsIS6_llEEEENSt9enable_ifIXsrNS3_23relaxation_is_supportedIS7_T_vEE5valueEPvE4typeERKT0_RKN5boost13property_tree11basic_ptreeINSt7__cxx1112basic_stringIcSt11char_traitsIcESaIcEEESW_St4lessISW_EEERKNS_6detail12empty_paramsE
FNDA:0,_ZN5amgcl7runtime10relaxation7wrapperINS_7backend7builtinINS_13static_matrixIdLi4ELi4EEEEEE16call_constructorINS_10relaxation13damped_jacobiENS3_3crsIS6_llEEEENSt9enable_ifIXsrNS3_23relaxation_is_supportedIS7_T_vEE5valueEPvE4typeERKT0_RKN5boost13property_tree11basic_ptreeINSt7__cxx1112basic_stringIcSt11char_traitsIcESaIcEEESW_St4lessISW_EEERKNS_6detail12empty_paramsE
FNDA:0,_ZN5amgcl7runtime10relaxation7wrapperINS_7backend7builtinINS_13static_matrixIdLi4ELi4EEEEEE16call_constructorINS_10relaxation4ilu0ENS3_3crsIS6_llEEEENSt9enable_ifIXsrNS3_23relaxation_is_supportedIS7_T_vEE5valueEPvE4typeERKT0_RKN5boost13property_tree11basic_ptreeINSt7__cxx1112basic_stringIcSt11char_traitsIcESaIcEEESW_St4lessISW_EEERKNS_6detail12empty_paramsE
FNDA:0,_ZN5amgcl7runtime10relaxation7wrapperINS_7backend7builtinINS_13static_matrixIdLi4ELi4EEEEEE16call_constructorINS_10relaxation4ilukENS3_3crsIS6_llEEEENSt9enable_ifIXsrNS3_23relaxation_is_supportedIS7_T_vEE5valueEPvE4typeERKT0_RKN5boost13property_tree11basic_ptreeINSt7__cxx1112basic_stringIcSt11char_traitsIcESaIcEEESW_St4lessISW_EEERKNS_6detail12empty_paramsE
FNDA:0,_ZN5amgcl7runtime10relaxation7wrapperINS_7backend7builtinINS_13static_matrixIdLi4ELi4EEEEEE16call_constructorINS_10relaxation4ilutENS3_3crsIS6_llEEEENSt9enable_ifIXsrNS3_23relaxation_is_supportedIS7_T_vEE5valueEPvE4typeERKT0_RKN5boost13property_tree11basic_ptreeINSt7__cxx1112basic_stringIcSt11char_traitsIcESaIcEEESW_St4lessISW_EEERKNS_6detail12empty_paramsE
FNDA:0,_ZN5amgcl7runtime10relaxation7wrapperINS_7backend7builtinINS_13static_matrixIdLi4ELi4EEEEEE16call_constructorINS_10relaxation5spai0ENS3_3crsIS6_llEEEENSt9enable_ifIXsrNS3_23relaxation_is_supportedIS7_T_vEE5valueEPvE4typeERKT0_RKN5boost13property_tree11basic_ptreeINSt7__cxx1112basic_stringIcSt11char_traitsIcESaIcEEESW_St4lessISW_EEERKNS_6detail12empty_paramsE
FNDA:0,_ZN5amgcl7runtime10relaxation7wrapperINS_7backend7builtinINS_13static_matrixIdLi4ELi4EEEEEE16call_constructorINS_10relaxation5spai1ENS3_3crsIS6_llEEEENSt9enable_ifIXntsrNS3_23relaxation_is_supportedIS7_T_vEE5valueEPvE4typeERKT0_RKN5boost13property_tree11basic_ptreeINSt7__cxx1112basic_stringIcSt11char_traitsIcESaIcEEESW_St4lessISW_EEERKNS_6detail12empty_paramsE
FNDA:0,_ZN5amgcl7runtime10relaxation7wrapperINS_7backend7builtinINS_13static_matrixIdLi4ELi4EEEEEE16call_constructorINS_10relaxation9chebyshevENS3_3crsIS6_llEEEENSt9enable_ifIXsrNS3_23relaxation_is_supportedIS7_T_vEE5valueEPvE4typeERKT0_RKN5boost13property_tree11basic_ptreeINSt7__cxx1112basic_stringIcSt11char_traitsIcESaIcEEESW_St4lessISW_EEERKNS_6detail12empty_paramsE
FNDA:0,_ZN5amgcl7runtime10relaxation7wrapperINS_7backend7builtinINS_13static_matrixIdLi4ELi4EEEEEEC2INS3_3crsIS6_llEEEERKT_N5boost13property_tree11basic_ptreeINSt7__cxx1112basic_stringIcSt11char_traitsIcESaIcEEESN_St4lessISN_EEERKNS_6detail12empty_paramsE
FNDA:0,_ZN5amgcl7runtime10relaxation7wrapperINS_7backend7builtinINS_13static_matrixIdLi4ELi4EEEEEED2Ev
FNDA:0,_ZN5amgcl7runtime10relaxation7wrapperINS_7backend7builtinIdEEE16call_constructorINS_10relaxation12gauss_seidelENS3_3crsIdllEEEENSt9enable_ifIXsrNS3_23relaxation_is_supportedIS5_T_vEE5valueEPvE4typeERKT0_RKN5boost13property_tree11basic_ptreeINSt7__cxx1112basic_stringIcSt11char_traitsIcESaIcEEESU_St4lessISU_EEERKNS_6detail12empty_paramsE
FNDA:0,_ZN5amgcl7runtime10relaxation7wrapperINS_7backend7builtinIdEEE16call_constructorINS_10relaxation13damped_jacobiENS3_3crsIdllEEEENSt9enable_ifIXsrNS3_23relaxation_is_supportedIS5_T_vEE5valueEPvE4typeERKT0_RKN5boost13property_tree11basic_ptreeINSt7__cxx1112basic_stringIcSt11char_traitsIcESaIcEEESU_St4lessISU_EEERKNS_6detail12empty_paramsE
FNDA:0,_ZN5amgcl7runtime10relaxation7wrapperINS_7backend7builtinIdEEE16call_constructorINS_10relaxation4ilu0ENS3_3crsIdllEEEENSt9enable_ifIXsrNS3_23relaxation_is_supportedIS5_T_vEE5valueEPvE4typeERKT0_RKN5boost13property_tree11basic_ptreeINSt7__cxx1112basic_stringIcSt11char_traitsIcESaIcEEESU_St4lessISU_EEERKNS_6detail12empty_paramsE
FNDA:0,_ZN5amgcl7runtime10relaxation7wrapperINS_7backend7builtinIdEEE16call_constructorINS_10relaxation4ilukENS3_3crsIdllEEEENSt9enable_ifIXsrNS3_23relaxation_is_supportedIS5_T_vEE5valueEPvE4typeERKT0_RKN5boost13property_tree11basic_ptreeINSt7__cxx1112basic_stringIcSt11char_traitsIcESaIcEEESU_St4lessISU_EEERKNS_6detail12empty_paramsE
FNDA:0,_ZN5amgcl7runtime10relaxation7wrapperINS_7backend7builtinIdEEE16call_constructorINS_10relaxation4ilutENS3_3crsIdllEEEENSt9enable_ifIXsrNS3_23relaxation_is_supportedIS5_T_vEE5valueEPvE4typeERKT0_RKN5boost13property_tree11basic_ptreeINSt7__cxx1112basic_stringIcSt11char_traitsIcESaIcEEESU_St4lessISU_EEERKNS_6detail12empty_paramsE
FNDA:0,_ZN5amgcl7runtime10relaxation7wrapperINS_7backend7builtinIdEEE16call_constructorINS_10relaxation5spai0ENS3_3crsIdllEEEENSt9enable_ifIXsrNS3_23relaxation_is_supportedIS5_T_vEE5valueEPvE4typeERKT0_RKN5boost13property_tree11basic_ptreeINSt7__cxx1112basic_stringIcSt11char_traitsIcESaIcEEESU_St4lessISU_EEERKNS_6detail12empty_paramsE
FNDA:0,_ZN5amgcl7runtime10relaxation7wrapperINS_7backend7builtinIdEEE16call_constructorINS_10relaxation5spai1ENS3_3crsIdllEEEENSt9enable_ifIXsrNS3_23relaxation_is_supportedIS5_T_vEE5valueEPvE4typeERKT0_RKN5boost13property_tree11basic_ptreeINSt7__cxx1112basic_stringIcSt11char_traitsIcESaIcEEESU_St4lessISU_EEERKNS_6detail12empty_paramsE
FNDA:0,_ZN5amgcl7runtime10relaxation7wrapperINS_7backend7builtinIdEEE16call_constructorINS_10relaxation9chebyshevENS3_3crsIdllEEEENSt9enable_ifIXsrNS3_23relaxation_is_supportedIS5_T_vEE5valueEPvE4typeERKT0_RKN5boost13property_tree11basic_ptreeINSt7__cxx1112basic_stringIcSt11char_traitsIcESaIcEEESU_St4lessISU_EEERKNS_6detail12empty_paramsE
FNDA:0,_ZN5amgcl7runtime10relaxation7wrapperINS_7backend7builtinIdEEEC2INS3_3crsIdllEEEERKT_N5boost13property_tree11basic_ptreeINSt7__cxx1112basic_stringIcSt11char_traitsIcESaIcEEESL_St4lessISL_EEERKNS_6detail12empty_paramsE
FNDA:0,_ZN5amgcl7runtime10relaxation7wrapperINS_7backend7builtinIdEEED2Ev
FNDA:0,_ZN5amgcl7runtime10relaxationrsERSiRNS1_4typeE
FNDA:0,_ZNK5amgcl7runtime10relaxation7wrapperINS_7backend7builtinINS_13static_matrixIdLi2ELi2EEEEEE10apply_postINS3_3crsIS6_llEENS3_11numa_vectorINS5_IdLi2ELi1EEEEESE_SE_EEvRKT_RKT0_RT1_RT2_
FNDA:0,_ZNK5amgcl7runtime10relaxation7wrapperINS_7backend7builtinINS_13static_matrixIdLi2ELi2EEEEEE10call_applyINS_10relaxation5spai1ENS3_3crsIS6_llEENS3_11numa_vectorINS5_IdLi2ELi1EEEEESG_EENSt9enable_ifIXntsrNS3_23relaxation_is_supportedIS7_T_vEE5valueEvE4typeERKT0_RKT1_RT2_
FNDA:0,_ZNK5amgcl7runtime10relaxation7wrapperINS_7backend7builtinINS_13static_matrixIdLi2ELi2EEEEEE14call_apply_preINS_10relaxation5spai1ENS3_3crsIS6_llEENS3_11numa_vectorINS5_IdLi2ELi1EEEEESG_SG_EENSt9enable_ifIXntsrNS3_23relaxation_is_supportedIS7_T_vEE5valueEvE4typeERKT0_RKT1_RT2_RT3_
FNDA:0,_ZNK5amgcl7runtime10relaxation7wrapperINS_7backend7builtinINS_13static_matrixIdLi2ELi2EEEEEE15call_apply_postINS_10relaxation5spai1ENS3_3crsIS6_llEENS3_11numa_vectorINS5_IdLi2ELi1EEEEESG_SG_EENSt9enable_ifIXntsrNS3_23relaxation_is_supportedIS7_T_vEE5valueEvE4typeERKT0_RKT1_RT2_RT3_
FNDA:0,_ZNK5amgcl7runtime10relaxation7wrapperINS_7backend7builtinINS_13static_matrixIdLi2ELi2EEEEEE5applyINS3_3crsIS6_llEENS3_11numa_vectorINS5_IdLi2ELi1EEEEESE_EEvRKT_RKT0_RT1_
FNDA:0,_ZNK5amgcl7runtime10relaxation7wrapperINS_7backend7builtinINS_13static_matrixIdLi2ELi2EEEEEE5bytesEv
FNDA:0,_ZNK5amgcl7runtime10relaxation7wrapperINS_7backend7builtinINS_13static_matrixIdLi2ELi2EEEEEE9apply_preINS3_3crsIS6_llEENS3_11numa_vectorINS5_IdLi2ELi1EEEEESE_SE_EEvRKT_RKT0_RT1_RT2_
FNDA:0,_ZNK5amgcl7runtime10relaxation7wrapperINS_7backend7builtinINS_13static_matrixIdLi3ELi3EEEEEE10apply_postINS3_3crsIS6_llEENS3_11numa_vectorINS5_IdLi3ELi1EEEEESE_SE_EEvRKT_RKT0_RT1_RT2_
FNDA:0,_ZNK5amgcl7runtime10relaxation7wrapperINS_7backend7builtinINS_13static_matrixIdLi3ELi3EEEEEE10call_applyINS_10relaxation5spai1ENS3_3crsIS6_llEENS3_11numa_vectorINS5_IdLi3ELi1EEEEESG_EENSt9enable_ifIXntsrNS3_23relaxation_is_supportedIS7_T_vEE5valueEvE4typeERKT0_RKT1_RT2_
FNDA:0,_ZNK5amgcl7runtime10relaxation7wrapperINS_7backend7builtinINS_13static_matrixIdLi3ELi3EEEEEE14call_apply_preINS_10relaxation5spai1ENS3_3crsIS6_llEENS3_11numa_vectorINS5_IdLi3ELi1EEEEESG_SG_EENSt9enable_ifIXntsrNS3_23relaxation_is_supportedIS7_T_vEE5valueEvE4typeERKT0_RKT1_RT2_RT3_
FNDA:0,_ZNK5amgcl7runtime10relaxation7wrapperINS_7backend7builtinINS_13static_matrixIdLi3ELi3EEEEEE15call_apply_postINS_10relaxation5spai1ENS3_3crsIS6_llEENS3_11numa_vectorINS5_IdLi3ELi1EEEEESG_SG_EENSt9enable_ifIXntsrNS3_23relaxation_is_supportedIS7_T_vEE5valueEvE4typeERKT0_RKT1_RT2_RT3_
FNDA:0,_ZNK5amgcl7runtime10relaxation7wrapperINS_7backend7builtinINS_13static_matrixIdLi3ELi3EEEEEE5applyINS3_3crsIS6_llEENS3_11numa_vectorINS5_IdLi3ELi1EEEEESE_EEvRKT_RKT0_RT1_
FNDA:0,_ZNK5amgcl7runtime10relaxation7wrapperINS_7backend7builtinINS_13static_matrixIdLi3ELi3EEEEEE5bytesEv
FNDA:0,_ZNK5amgcl7runtime10relaxation7wrapperINS_7backend7builtinINS_13static_matrixIdLi3ELi3EEEEEE9apply_preINS3_3crsIS6_llEENS3_11numa_vectorINS5_IdLi3ELi1EEEEESE_SE_EEvRKT_RKT0_RT1_RT2_
FNDA:0,_ZNK5amgcl7runtime10relaxation7wrapperINS_7backend7builtinINS_13static_matrixIdLi4ELi4EEEEEE10apply_postINS3_3crsIS6_llEENS3_11numa_vectorINS5_IdLi4ELi1EEEEESE_SE_EEvRKT_RKT0_RT1_RT2_
FNDA:0,_ZNK5amgcl7runtime10relaxation7wrapperINS_7backend7builtinINS_13static_matrixIdLi4ELi4EEEEEE10call_applyINS_10relaxation5spai1ENS3_3crsIS6_llEENS3_11numa_vectorINS5_IdLi4ELi1EEEEESG_EENSt9enable_ifIXntsrNS3_23relaxation_is_supportedIS7_T_vEE5valueEvE4typeERKT0_RKT1_RT2_
FNDA:0,_ZNK5amgcl7runtime10relaxation7wrapperINS_7backend7builtinINS_13static_matrixIdLi4ELi4EEEEEE14call_apply_preINS_10relaxation5spai1ENS3_3crsIS6_llEENS3_11numa_vectorINS5_IdLi4ELi1EEEEESG_SG_EENSt9enable_ifIXntsrNS3_23relaxation_is_supportedIS7_T_vEE5valueEvE4typeERKT0_RKT1_RT2_RT3_
FNDA:0,_ZNK5amgcl7runtime10relaxation7wrapperINS_7backend7builtinINS_13static_matrixIdLi4ELi4EEEEEE15call_apply_postINS_10relaxation5spai1ENS3_3crsIS6_llEENS3_11numa_vectorINS5_IdLi4ELi1EEEEESG_SG_EENSt9enable_ifIXntsrNS3_23relaxation_is_supportedIS7_T_vEE5valueEvE4typeERKT0_RKT1_RT2_RT3_
FNDA:0,_ZNK5amgcl7runtime10relaxation7wrapperINS_7backend7builtinINS_13static_matrixIdLi4ELi4EEEEEE5applyINS3_3crsIS6_llEENS3_11numa_vectorINS5_IdLi4ELi1EEEEESE_EEvRKT_RKT0_RT1_
FNDA:0,_ZNK5amgcl7runtime10relaxation7wrapperINS_7backend7builtinINS_13static_matrixIdLi4ELi4EEEEEE5bytesEv
FNDA:0,_ZNK5amgcl7runtime10relaxation7wrapperINS_7backend7builtinINS_13static_matrixIdLi4ELi4EEEEEE9apply_preINS3_3crsIS6_llEENS3_11numa_vectorINS5_IdLi4ELi1EEEEESE_SE_EEvRKT_RKT0_RT1_RT2_
FNDA:0,_ZNK5amgcl7runtime10relaxation7wrapperINS_7backend7builtinIdEEE10apply_postINS3_3crsIdllEENS3_11numa_vectorIdEESB_SB_EEvRKT_RKT0_RT1_RT2_
FNDA:0,_ZNK5amgcl7runtime10relaxation7wrapperINS_7backend7builtinIdEEE5applyINS3_3crsIdllEENS3_11numa_vectorIdEESB_EEvRKT_RKT0_RT1_
FNDA:0,_ZNK5amgcl7runtime10relaxation7wrapperINS_7backend7builtinIdEEE5bytesEv
FNDA:0,_ZNK5amgcl7runtime10relaxation7wrapperINS_7backend7builtinIdEEE9apply_preINS3_3crsIdllEENS3_11numa_vectorIdEESB_SB_EEvRKT_RKT0_RT1_RT2_
FNF:66
FNH:0
DA:92,0
DA:95,0
DA:97,0
DA:98,0
DA:99,0
DA:100,0
DA:101,0
DA:102,0
DA:103,0
DA:104,0
DA:105,0
DA:106,0
DA:107,0
DA:108,0
DA:109,0
DA:110,0
DA:111,0
DA:112,0
DA:114,0
DA:115,0
DA:117,0
DA:128,0
DA:131,0
DA:133,0
DA:135,0
DA:142,0
DA:143,0
DA:144,0
DA:145,0
DA:146,0
DA:147,0
DA:148,0
DA:149,0
DA:153,0
DA:154,0
DA:156,0
DA:158,0
DA:159,0
DA:166,0
DA:167,0
DA:168,0
DA:169,0
DA:170,0
DA:171,0
DA:172,0
DA:173,0
DA:177,0
DA:180,0
DA:184,0
DA:197,0
DA:202,0
DA:203,0
DA:205,0
DA:208,0
DA:212,0
DA:225,0
DA:230,0
DA:231,0
DA:233,0
DA:236,0
DA:238,0
DA:251,0
DA:256,0
DA:257,0
DA:259,0
DA:261,0
DA:262,0
DA:268,0
DA:269,0
DA:270,0
DA:271,0
DA:272,0
DA:273,0
DA:274,0
DA:275,0
DA:279,0
DA:280,0
DA:289,0
DA:292,0
DA:300,0
DA:302,0
DA:313,0
DA:314,0
DA:321,0
DA:322,0
DA:333,0
DA:334,0
DA:341,0
DA:342,0
DA:353,0
DA:354,0
DA:361,0
DA:362,0
LF:93
LH:0
end_of_record
TN:
SF:/root/Kratos/external_libraries/amgcl/relaxation/spai0.hpp
FN:60,_ZN5amgcl10relaxation5spai0INS_7backend7builtinINS_13static_matrixIdLi2ELi2EEEEEEC2INS2_3crsIS5_llEEEERKT_RKNS_6detail12empty_paramsESH_
FN:60,_ZN5amgcl10relaxation5spai0INS_7backend7builtinINS_13static_matrixIdLi3ELi3EEEEEEC2INS2_3crsIS5_llEEEERKT_RKNS_6detail12empty_paramsESH_
FN:60,_ZN5amgcl10relaxation5spai0INS_7backend7builtinINS_13static_matrixIdLi4ELi4EEEEEEC2INS2_3crsIS5_llEEEERKT_RKNS_6detail12empty_paramsESH_
FN:60,_ZN5amgcl10relaxation5spai0INS_7backend7builtinIdEEEC2INS2_3crsIdllEEEERKT_RKNS_6detail12empty_paramsESF_
FN:86,_ZNK5amgcl10relaxation5spai0INS_7backend7builtinINS_13static_matrixIdLi2ELi2EEEEEE9apply_preINS2_3crsIS5_llEENS2_11numa_vectorINS4_IdLi2ELi1EEEEESD_SD_EEvRKT_RKT0_RT1_RT2_
FN:86,_ZNK5amgcl10relaxation5spai0INS_7backend7builtinINS_13static_matrixIdLi3ELi3EEEEEE9apply_preINS2_3crsIS5_llEENS2_11numa_vectorINS4_IdLi3ELi1EEEEESD_SD_EEvRKT_RKT0_RT1_RT2_
FN:86,_ZNK5amgcl10relaxation5spai0INS_7backend7builtinINS_13static_matrixIdLi4ELi4EEEEEE9apply_preINS2_3crsIS5_llEENS2_11numa_vectorINS4_IdLi4ELi1EEEEESD_SD_EEvRKT_RKT0_RT1_RT2_
FN:86,_ZNK5amgcl10relaxation5spai0INS_7backend7builtinIdEEE9apply_preINS2_3crsIdllEENS2_11numa_vectorIdEESA_SA_EEvRKT_RKT0_RT1_RT2_
FN:97,_ZNK5amgcl10relaxation5spai0INS_7backend7builtinINS_13static_matrixIdLi2ELi2EEEEEE10apply_postINS2_3crsIS5_llEENS2_11numa_vectorINS4_IdLi2ELi1EEEEESD_SD_EEvRKT_RKT0_RT1_RT2_
FN:97,_ZNK5amgcl10relaxation5spai0INS_7backend7builtinINS_13static_matrixIdLi3ELi3EEEEEE10apply_postINS2_3crsIS5_llEENS2_11numa_vectorINS4_IdLi3ELi1EEEEESD_SD_EEvRKT_RKT0_RT1_RT2_
FN:97,_ZNK5amgcl10relaxation5spai0INS_7backend7builtinINS_13static_matrixIdLi4ELi4EEEEEE10apply_postINS2_3crsIS5_llEENS2_11numa_vectorINS4_IdLi4ELi1EEEEESD_SD_EEvRKT_RKT0_RT1_RT2_
FN:97,_ZNK5amgcl10relaxation5spai0INS_7backend7builtinIdEEE10apply_postINS2_3crsIdllEENS2_11numa_vectorIdEESA_SA_EEvRKT_RKT0_RT1_RT2_
FNDA:0,_ZN5amgcl10relaxation5spai0INS_7backend7builtinINS_13static_matrixIdLi2ELi2EEEEEEC2INS2_3crsIS5_llEEEERKT_RKNS_6detail12empty_paramsESH_
FNDA:0,_ZN5amgcl10relaxation5spai0INS_7backend7builtinINS_13static_matrixIdLi3ELi3EEEEEEC2INS2_3crsIS5_llEEEERKT_RKNS_6detail12empty_paramsESH_
FNDA:0,_ZN5amgcl10relaxation5spai0INS_7backend7builtinINS_13static_matrixIdLi4ELi4EEEEEEC2INS2_3crsIS5_llEEEERKT_RKNS_6detail12empty_paramsESH_
FNDA:0,_ZN5amgcl10relaxation5spai0INS_7backend7builtinIdEEEC2INS2_3crsIdllEEEERKT_RKNS_6detail12empty_paramsESF_
FNDA:0,_ZNK5amgcl10relaxation5spai0INS_7backend7builtinINS_13static_matrixIdLi2ELi2EEEEEE10apply_postINS2_3crsIS5_llEENS2_11numa_vectorINS4_IdLi2ELi1EEEEESD_SD_EEvRKT_RKT0_RT1_RT2_
FNDA:0,_ZNK5amgcl10relaxation5spai0INS_7backend7builtinINS_13static_matrixIdLi2ELi2EEEEEE9apply_preINS2_3crsIS5_llEENS2_11numa_vectorINS4_IdLi2ELi1EEEEESD_SD_EEvRKT_RKT0_RT1_RT2_
FNDA:0,_ZNK5amgcl10relaxation5spai0INS_7backend7builtinINS_13static_matrixIdLi3ELi3EEEEEE10apply_postINS2_3crsIS5_llEENS2_11numa_vectorINS4_IdLi3ELi1EEEEESD_SD_EEvRKT_RKT0_RT1_RT2_
FNDA:0,_ZNK5amgcl10relaxation5spai0INS_7backend7builtinINS_13static_matrixIdLi3ELi3EEEEEE9apply_preINS2_3crsIS5_llEENS2_11numa_vectorINS4_IdLi3ELi1EEEEESD_SD_EEvRKT_RKT0_RT1_RT2_
FNDA:0,_ZNK5amgcl10relaxation5spai0INS_7backend7builtinINS_13static_matrixIdLi4ELi4EEEEEE10apply_postINS2_3crsIS5_llEENS2_11numa_vectorINS4_IdLi4ELi1EEEEESD_SD_EEvRKT_RKT0_RT1_RT2_
FNDA:0,_ZNK5amgcl10relaxation5spai0INS_7backend7builtinINS_13static_matrixIdLi4ELi4EEEEEE9apply_preINS2_3crsIS5_llEENS2_11numa_vectorINS4_IdLi4ELi1EEEEESD_SD_EEvRKT_RKT0_RT1_RT2_
FNDA:0,_ZNK5amgcl10relaxation5spai0INS_7backend7builtinIdEEE10apply_postINS2_3crsIdllEENS2_11numa_vectorIdEESA_SA_EEvRKT_RKT0_RT1_RT2_
FNDA:0,_ZNK5amgcl10relaxation5spai0INS_7backend7builtinIdEEE9apply_preINS2_3crsIdllEENS2_11numa_vectorIdEESA_SA_EEvRKT_RKT0_RT1_RT2_
FNF:12
FNH:0
DA:50,0
DA:60,0
DA:62,0
DA:64,0
DA:66,0
DA:81,0
DA:82,0
DA:86,0
DA:90,0
DA:92,0
DA:93,0
DA:97,0
DA:101,0
DA:103,0
DA:104,0
LF:15
LH:0
end_of_record
TN:
SF:/root/Kratos/external_libraries/amgcl/relaxation/spai1.hpp
FN:64,_ZN5amgcl10relaxation5spai1INS_7backend7builtinIdEEEC2INS2_3crsIdllEEEERKT_RKNS_6detail12empty_paramsESF_
FN:127,_ZNK5amgcl10relaxation5spai1INS_7backend7builtinIdEEE9apply_preINS2_3crsIdllEENS2_11numa_vectorIdEESA_SA_EEvRKT_RKT0_RT1_RT2_
FN:137,_ZNK5amgcl10relaxation5spai1INS_7backend7builtinIdEEE10apply_postINS2_3crsIdllEENS2_11numa_vectorIdEESA_SA_EEvRKT_RKT0_RT1_RT2_
FNDA:0,_ZN5amgcl10relaxation5spai1INS_7backend7builtinIdEEEC2INS2_3crsIdllEEEERKT_RKNS_6detail12empty_paramsESF_
FNDA:0,_ZNK5amgcl10relaxation5spai1INS_7backend7builtinIdEEE10apply_postINS2_3crsIdllEENS2_11numa_vectorIdEESA_SA_EEvRKT_RKT0_RT1_RT2_
FNDA:0,_ZNK5amgcl10relaxation5spai1INS_7backend7builtinIdEEE9apply_preINS2_3crsIdllEENS2_11numa_vectorIdEESA_SA_EEvRKT_RKT0_RT1_RT2_
FNF:3
FNH:0
DA:53,0
DA:64,0
DA:73,0
DA:123,0
DA:127,0
DA:133,0
DA:137,0
DA:143,0
LF:8
LH:0
end_of_record
TN:
SF:/root/Kratos/external_libraries/amgcl/reorder/cuthill_mckee.hpp
FN:81,_ZN5amgcl7reorder13cuthill_mckeeILb0EE3getINS_7backend3crsINS_13static_matrixIdLi2ELi2EEEllEESt6vectorIiSaIiEEEEvRKT_RT0_
FN:81,_ZN5amgcl7reorder13cuthill_mckeeILb0EE3getINS_7backend3crsINS_13static_matrixIdLi3ELi3EEEllEESt6vectorIiSaIiEEEEvRKT_RT0_
FN:81,_ZN5amgcl7reorder13cuthill_mckeeILb0EE3getINS_7backend3crsINS_13static_matrixIdLi4ELi4EEEllEESt6vectorIiSaIiEEEEvRKT_RT0_
FN:81,_ZN5amgcl7reorder13cuthill_mckeeILb0EE3getINS_7backend3crsISt7complexIdEllEESt6vectorIiSaIiEEEEvRKT_RT0_
FN:81,_ZN5amgcl7reorder13cuthill_mckeeILb0EE3getINS_7backend3crsIdllEESt6vectorIiSaIiEEEEvRKT_RT0_
FNDA:0,_ZN5amgcl7reorder13cuthill_mckeeILb0EE3getINS_7backend3crsINS_13static_matrixIdLi2ELi2EEEllEESt6vectorIiSaIiEEEEvRKT_RT0_
FNDA:0,_ZN5amgcl7reorder13cuthill_mckeeILb0EE3getINS_7backend3crsINS_13static_matrixIdLi3ELi3EEEllEESt6vectorIiSaIiEEEEvRKT_RT0_
FNDA:0,_ZN5amgcl7reorder13cuthill_mckeeILb0EE3getINS_7backend3crsINS_13static_matrixIdLi4ELi4EEEllEESt6vectorIiSaIiEEEEvRKT_RT0_
FNDA:0,_ZN5amgcl7reorder13cuthill_mckeeILb0EE3getINS_7backend3crsISt7complexIdEllEESt6vectorIiSaIiEEEEvRKT_RT0_
FNDA:0,_ZN5amgcl7reorder13cuthill_mckeeILb0EE3getINS_7backend3crsIdllEESt6vectorIiSaIiEEEEvRKT_RT0_
FNF:5
FNH:0
DA:81,0
DA:82,0
DA:98,0
DA:100,0
DA:101,0
DA:102,0
DA:104,0
DA:120,0
DA:121,0
DA:124,0
DA:126,0
DA:127,0
DA:128,0
DA:131,0
DA:132,0
DA:137,0
DA:140,0
DA:142,0
DA:143,0
DA:145,0
DA:147,0
DA:148,0
DA:149,0
DA:150,0
DA:152,0
DA:153,0
DA:154,0
DA:157,0
DA:161,0
DA:162,0
DA:163,0
DA:164,0
DA:166,0
DA:170,0
DA:171,0
DA:172,0
DA:173,0
DA:174,0
DA:175,0
DA:176,0
DA:177,0
DA:178,0
DA:179,0
DA:182,0
DA:185,0
LF:45
LH:0
end_of_record
TN:
SF:/root/Kratos/external_libraries/amgcl/solver/bicgstab.hpp
FN:93,_ZN5amgcl6solver8bicgstabINS_7backend7builtinINS_13static_matrixIdLi2ELi2EEEEENS0_6detail21default_inner_productEE6paramsC2ERKN5boost13property_tree11basic_ptreeINSt7__cxx1112basic_stringIcSt11char_traitsIcESaIcEEESJ_St4lessISJ_EEE
FN:93,_ZN5amgcl6solver8bicgstabINS_7backend7builtinINS_13static_matrixIdLi3ELi3EEEEENS0_6detail21default_inner_productEE6paramsC2ERKN5boost13property_tree11basic_ptreeINSt7__cxx1112basic_stringIcSt11char_traitsIcESaIcEEESJ_St4lessISJ_EEE
FN:93,_ZN5amgcl6solver8bicgstabINS_7backend7builtinINS_13static_matrixIdLi4ELi4EEEEENS0_6detail21default_inner_productEE6paramsC2ERKN5boost13property_tree11basic_ptreeINSt7__cxx1112basic_stringIcSt11char_traitsIcESaIcEEESJ_St4lessISJ_EEE
FN:93,_ZN5amgcl6solver8bicgstabINS_7backend7builtinIdEENS0_6detail21default_inner_productEE6paramsC2ERKN5boost13property_tree11basic_ptreeINSt7__cxx1112basic_stringIcSt11char_traitsIcESaIcEEESH_St4lessISH_EEE
FN:114,_ZN5amgcl6solver8bicgstabINS_7backend7builtinINS_13static_matrixIdLi2ELi2EEEEENS0_6detail21default_inner_productEEC2EmRKNS9_6paramsERKNS_6detail12empty_paramsERKS8_
FN:114,_ZN5amgcl6solver8bicgstabINS_7backend7builtinINS_13static_matrixIdLi3ELi3EEEEENS0_6detail21default_inner_productEEC2EmRKNS9_6paramsERKNS_6detail12empty_paramsERKS8_
FN:114,_ZN5amgcl6solver8bicgstabINS_7backend7builtinINS_13static_matrixIdLi4ELi4EEEEENS0_6detail21default_inner_productEEC2EmRKNS9_6paramsERKNS_6detail12empty_paramsERKS8_
FN:114,_ZN5amgcl6solver8bicgstabINS_7backend7builtinIdEENS0_6detail21default_inner_productEEC2EmRKNS7_6paramsERKNS_6detail12empty_paramsERKS6_
FN:144,_ZNK5amgcl6solver8bicgstabINS_7backend7builtinINS_13static_matrixIdLi2ELi2EEEEENS0_6detail21default_inner_productEEclINS2_3crsIS5_llEENS_7runtime14preconditionerIS6_EEN5boost14iterator_rangeIPKNS4_IdLi2ELi1EEEEERNSH_IPSI_EEEESt5tupleIJmdEERKT_RKT0_RKT1_OT2_
FN:144,_ZNK5amgcl6solver8bicgstabINS_7backend7builtinINS_13static_matrixIdLi2ELi2EEEEENS0_6detail21default_inner_productEEclINS2_3crsIS5_llEENS_7runtime14preconditionerIS6_EENS2_11numa_vectorINS4_IdLi2ELi1EEEEERSI_EESt5tupleIJmdEERKT_RKT0_RKT1_OT2_
FN:144,_ZNK5amgcl6solver8bicgstabINS_7backend7builtinINS_13static_matrixIdLi3ELi3EEEEENS0_6detail21default_inner_productEEclINS2_3crsIS5_llEENS_7runtime14preconditionerIS6_EEN5boost14iterator_rangeIPKNS4_IdLi3ELi1EEEEERNSH_IPSI_EEEESt5tupleIJmdEERKT_RKT0_RKT1_OT2_
FN:144,_ZNK5amgcl6solver8bicgstabINS_7backend7builtinINS_13static_matrixIdLi3ELi3EEEEENS0_6detail21default_inner_productEEclINS2_3crsIS5_llEENS_7runtime14preconditionerIS6_EENS2_11numa_vectorINS4_IdLi3ELi1EEEEERSI_EESt5tupleIJmdEERKT_RKT0_RKT1_OT2_
FN:144,_ZNK5amgcl6solver8bicgstabINS_7backend7builtinINS_13static_matrixIdLi4ELi4EEEEENS0_6detail21default_inner_productEEclINS2_3crsIS5_llEENS_7runtime14preconditionerIS6_EEN5boost14iterator_rangeIPKNS4_IdLi4ELi1EEEEERNSH_IPSI_EEEESt5tupleIJmdEERKT_RKT0_RKT1_OT2_
FN:144,_ZNK5amgcl6solver8bicgstabINS_7backend7builtinINS_13static_matrixIdLi4ELi4EEEEENS0_6detail21default_inner_productEEclINS2_3crsIS5_llEENS_7runtime14preconditionerIS6_EENS2_11numa_vectorINS4_IdLi4ELi1EEEEERSI_EESt5tupleIJmdEERKT_RKT0_RKT1_OT2_
FN:144,_ZNK5amgcl6solver8bicgstabINS_7backend7builtinIdEENS0_6detail21default_inner_productEEclINS2_3crsIdllEENS_10relaxation17as_preconditionerIS4_NS_7runtime10relaxation7wrapperEEENS2_11numa_vectorIdEERSI_EESt5tupleIJmdEERKT_RKT0_RKT1_OT2_
FN:144,_ZNK5amgcl6solver8bicgstabINS_7backend7builtinIdEENS0_6detail21default_inner_productEEclINS2_3crsIdllEENS_14preconditioner25schur_pressure_correctionINS_11make_solverINS_10relaxation17as_preconditionerIS4_NS_7runtime10relaxation7wrapperEEENSG_6solver7wrapperIS4_S6_EEEENSD_INS_3amgIS4_NSG_10coarsening7wrapperESI_EESM_EEEEN5boost7numeric5ublas6vectorIdNSW_15unbounded_arrayIdSaIdEEEEERS11_EESt5tupleIJmdEERKT_RKT0_RKT1_OT2_
FN:144,_ZNK5amgcl6solver8bicgstabINS_7backend7builtinIdEENS0_6detail21default_inner_productEEclINS2_3crsIdllEENS_7runtime14preconditionerIS4_EEN5boost7numeric5ublas6vectorIdNSG_15unbounded_arrayIdSaIdEEEEERSL_EESt5tupleIJmdEERKT_RKT0_RKT1_OT2_
FN:144,_ZNK5amgcl6solver8bicgstabINS_7backend7builtinIdEENS0_6detail21default_inner_productEEclINS2_3crsIdllEENS_7runtime14preconditionerIS4_EENS2_11numa_vectorIdEERSF_EESt5tupleIJmdEERKT_RKT0_RKT1_OT2_
FN:144,_ZNK5amgcl6solver8bicgstabINS_7backend7builtinIdEENS0_6detail21default_inner_productEEclINS_14preconditioner25schur_pressure_correctionINS_11make_solverINS_10relaxation17as_preconditionerIS4_NS_7runtime10relaxation7wrapperEEENSE_6solver7wrapperIS4_S6_EEEENSB_INS_3amgIS4_NSE_10coarsening7wrapperESG_EESK_EEEESP_NS2_11numa_vectorIdEERST_EESt5tupleIJmdEERKT_RKT0_RKT1_OT2_
FN:237,_ZNK5amgcl6solver8bicgstabINS_7backend7builtinINS_13static_matrixIdLi2ELi2EEEEENS0_6detail21default_inner_productEE5bytesEv
FN:237,_ZNK5amgcl6solver8bicgstabINS_7backend7builtinINS_13static_matrixIdLi3ELi3EEEEENS0_6detail21default_inner_productEE5bytesEv
FN:237,_ZNK5amgcl6solver8bicgstabINS_7backend7builtinINS_13static_matrixIdLi4ELi4EEEEENS0_6detail21default_inner_productEE5bytesEv
FN:237,_ZNK5amgcl6solver8bicgstabINS_7backend7builtinIdEENS0_6detail21default_inner_productEE5bytesEv
FNDA:0,_ZN5amgcl6solver8bicgstabINS_7backend7builtinINS_13static_matrixIdLi2ELi2EEEEENS0_6detail21default_inner_productEE6paramsC2ERKN5boost13property_tree11basic_ptreeINSt7__cxx1112basic_stringIcSt11char_traitsIcESaIcEEESJ_St4lessISJ_EEE
FNDA:0,_ZN5amgcl6solver8bicgstabINS_7backend7builtinINS_13static_matrixIdLi2ELi2EEEEENS0_6detail21default_inner_productEEC2EmRKNS9_6paramsERKNS_6detail12empty_paramsERKS8_
FNDA:0,_ZN5amgcl6solver8bicgstabINS_7backend7builtinINS_13static_matrixIdLi3ELi3EEEEENS0_6detail21default_inner_productEE6paramsC2ERKN5boost13property_tree11basic_ptreeINSt7__cxx1112basic_stringIcSt11char_traitsIcESaIcEEESJ_St4lessISJ_EEE
FNDA:0,_ZN5amgcl6solver8bicgstabINS_7backend7builtinINS_13static_matrixIdLi3ELi3EEEEENS0_6detail21default_inner_productEEC2EmRKNS9_6paramsERKNS_6detail12empty_paramsERKS8_
FNDA:0,_ZN5amgcl6solver8bicgstabINS_7backend7builtinINS_13static_matrixIdLi4ELi4EEEEENS0_6detail21default_inner_productEE6paramsC2ERKN5boost13property_tree11basic_ptreeINSt7__cxx1112basic_stringIcSt11char_traitsIcESaIcEEESJ_St4lessISJ_EEE
FNDA:0,_ZN5amgcl6solver8bicgstabINS_7backend7builtinINS_13static_matrixIdLi4ELi4EEEEENS0_6detail21default_inner_productEEC2EmRKNS9_6paramsERKNS_6detail12empty_paramsERKS8_
FNDA:0,_ZN5amgcl6solver8bicgstabINS_7backend7builtinIdEENS0_6detail21default_inner_productEE6paramsC2ERKN5boost13property_tree11basic_ptreeINSt7__cxx1112basic_stringIcSt11char_traitsIcESaIcEEESH_St4lessISH_EEE
FNDA:0,_ZN5amgcl6solver8bicgstabINS_7backend7builtinIdEENS0_6detail21default_inner_productEEC2EmRKNS7_6paramsERKNS_6detail12empty_paramsERKS6_
FNDA:0,_ZNK5amgcl6solver8bicgstabINS_7backend7builtinINS_13static_matrixIdLi2ELi2EEEEENS0_6detail21default_inner_productEE5bytesEv
FNDA:0,_ZNK5amgcl6solver8bicgstabINS_7backend7builtinINS_13static_matrixIdLi2ELi2EEEEENS0_6detail21default_inner_productEEclINS2_3crsIS5_llEENS_7runtime14preconditionerIS6_EEN5boost14iterator_rangeIPKNS4_IdLi2ELi1EEEEERNSH_IPSI_EEEESt5tupleIJmdEERKT_RKT0_RKT1_OT2_
FNDA:0,_ZNK5amgcl6solver8bicgstabINS_7backend7builtinINS_13static_matrixIdLi2ELi2EEEEENS0_6detail21default_inner_productEEclINS2_3crsIS5_llEENS_7runtime14preconditionerIS6_EENS2_11numa_vectorINS4_IdLi2ELi1EEEEERSI_EESt5tupleIJmdEERKT_RKT0_RKT1_OT2_
FNDA:0,_ZNK5amgcl6solver8bicgstabINS_7backend7builtinINS_13static_matrixIdLi3ELi3EEEEENS0_6detail21default_inner_productEE5bytesEv
FNDA:0,_ZNK5amgcl6solver8bicgstabINS_7backend7builtinINS_13static_matrixIdLi3ELi3EEEEENS0_6detail21default_inner_productEEclINS2_3crsIS5_llEENS_7runtime14preconditionerIS6_EEN5boost14iterator_rangeIPKNS4_IdLi3ELi1EEEEERNSH_IPSI_EEEESt5tupleIJmdEERKT_RKT0_RKT1_OT2_
FNDA:0,_ZNK5amgcl6solver8bicgstabINS_7backend7builtinINS_13static_matrixIdLi3ELi3EEEEENS0_6detail21default_inner_productEEclINS2_3crsIS5_llEENS_7runtime14preconditionerIS6_EENS2_11numa_vectorINS4_IdLi3ELi1EEEEERSI_EESt5tupleIJmdEERKT_RKT0_RKT1_OT2_
FNDA:0,_ZNK5amgcl6solver8bicgstabINS_7backend7builtinINS_13static_matrixIdLi4ELi4EEEEENS0_6detail21default_inner_productEE5bytesEv
FNDA:0,_ZNK5amgcl6solver8bicgstabINS_7backend7builtinINS_13static_matrixIdLi4ELi4EEEEENS0_6detail21default_inner_productEEclINS2_3crsIS5_llEENS_7runtime14preconditionerIS6_EEN5boost14iterator_rangeIPKNS4_IdLi4ELi1EEEEERNSH_IPSI_EEEESt5tupleIJmdEERKT_RKT0_RKT1_OT2_
FNDA:0,_ZNK5amgcl6solver8bicgstabINS_7backend7builtinINS_13static_matrixIdLi4ELi4EEEEENS0_6detail21default_inner_productEEclINS2_3crsIS5_llEENS_7runtime14preconditionerIS6_EENS2_11numa_vectorINS4_IdLi4ELi1EEEEERSI_EESt5tupleIJmdEERKT_RKT0_RKT1_OT2_
FNDA:0,_ZNK5amgcl6solver8bicgstabINS_7backend7builtinIdEENS0_6detail21default_inner_productEE5bytesEv
FNDA:0,_ZNK5amgcl6solver8bicgstabINS_7backend7builtinIdEENS0_6detail21default_inner_productEEclINS2_3crsIdllEENS_10relaxation17as_preconditionerIS4_NS_7runtime10relaxation7wrapperEEENS2_11numa_vectorIdEERSI_EESt5tupleIJmdEERKT_RKT0_RKT1_OT2_
FNDA:0,_ZNK5amgcl6solver8bicgstabINS_7backend7builtinIdEENS0_6detail21default_inner_productEEclINS2_3crsIdllEENS_14preconditioner25schur_pressure_correctionINS_11make_solverINS_10relaxation17as_preconditionerIS4_NS_7runtime10relaxation7wrapperEEENSG_6solver7wrapperIS4_S6_EEEENSD_INS_3amgIS4_NSG_10coarsening7wrapperESI_EESM_EEEEN5boost7numeric5ublas6vectorIdNSW_15unbounded_arrayIdSaIdEEEEERS11_EESt5tupleIJmdEERKT_RKT0_RKT1_OT2_
FNDA:0,_ZNK5amgcl6solver8bicgstabINS_7backend7builtinIdEENS0_6detail21default_inner_productEEclINS2_3crsIdllEENS_7runtime14preconditionerIS4_EEN5boost7numeric5ublas6vectorIdNSG_15unbounded_arrayIdSaIdEEEEERSL_EESt5tupleIJmdEERKT_RKT0_RKT1_OT2_
FNDA:0,_ZNK5amgcl6solver8bicgstabINS_7backend7builtinIdEENS0_6detail21default_inner_productEEclINS2_3crsIdllEENS_7runtime14preconditionerIS4_EENS2_11numa_vectorIdEERSF_EESt5tupleIJmdEERKT_RKT0_RKT1_OT2_
FNDA:0,_ZNK5amgcl6solver8bicgstabINS_7backend7builtinIdEENS0_6detail21default_inner_productEEclINS_14preconditioner25schur_pressure_correctionINS_11make_solverINS_10relaxation17as_preconditionerIS4_NS_7runtime10relaxation7wrapperEEENSE_6solver7wrapperIS4_S6_EEEENSB_INS_3amgIS4_NSE_10coarsening7wrapperESG_EESK_EEEESP_NS2_11numa_vectorIdEERST_EESt5tupleIJmdEERKT_RKT0_RKT1_OT2_
FNF:23
FNH:0
DA:86,0
DA:87,0
DA:88,0
DA:89,0
DA:93,0
DA:94,0
DA:95,0
DA:96,0
DA:97,0
DA:98,0
DA:100,0
DA:101,0
DA:114,0
DA:120,0
DA:121,0
DA:122,0
DA:123,0
DA:124,0
DA:125,0
DA:126,0
DA:127,0
DA:129,0
DA:144,0
DA:149,0
DA:150,0
DA:153,0
DA:158,0
DA:160,0
DA:166,0
DA:167,0
DA:169,0
DA:175,0
DA:180,0
DA:184,0
DA:185,0
DA:186,0
DA:189,0
DA:191,0
DA:193,0
DA:194,0
DA:196,0
DA:199,0
DA:201,0
DA:202,0
DA:204,0
DA:206,0
DA:208,0
DA:209,0
DA:211,0
DA:214,0
DA:220,0
DA:237,0
DA:239,0
DA:240,0
DA:241,0
DA:242,0
DA:243,0
DA:245,0
DA:273,0
LF:59
LH:0
end_of_record
TN:
SF:/root/Kratos/external_libraries/amgcl/solver/bicgstabl.hpp
FN:135,_ZN5amgcl6solver9bicgstablINS_7backend7builtinINS_13static_matrixIdLi2ELi2EEEEENS0_6detail21default_inner_productEE6paramsC2ERKN5boost13property_tree11basic_ptreeINSt7__cxx1112basic_stringIcSt11char_traitsIcESaIcEEESJ_St4lessISJ_EEE
FN:135,_ZN5amgcl6solver9bicgstablINS_7backend7builtinINS_13static_matrixIdLi3ELi3EEEEENS0_6detail21default_inner_productEE6paramsC2ERKN5boost13property_tree11basic_ptreeINSt7__cxx1112basic_stringIcSt11char_traitsIcESaIcEEESJ_St4lessISJ_EEE
FN:135,_ZN5amgcl6solver9bicgstablINS_7backend7builtinINS_13static_matrixIdLi4ELi4EEEEENS0_6detail21default_inner_productEE6paramsC2ERKN5boost13property_tree11basic_ptreeINSt7__cxx1112basic_stringIcSt11char_traitsIcESaIcEEESJ_St4lessISJ_EEE
FN:135,_ZN5amgcl6solver9bicgstablINS_7backend7builtinIdEENS0_6detail21default_inner_productEE6paramsC2ERKN5boost13property_tree11basic_ptreeINSt7__cxx1112basic_stringIcSt11char_traitsIcESaIcEEESH_St4lessISH_EEE
FN:160,_ZN5amgcl6solver9bicgstablINS_7backend7builtinINS_13static_matrixIdLi2ELi2EEEEENS0_6detail21default_inner_productEEC2EmRKNS9_6paramsERKNS_6detail12empty_paramsERKS8_
FN:160,_ZN5amgcl6solver9bicgstablINS_7backend7builtinINS_13static_matrixIdLi3ELi3EEEEENS0_6detail21default_inner_productEEC2EmRKNS9_6paramsERKNS_6detail12empty_paramsERKS8_
FN:160,_ZN5amgcl6solver9bicgstablINS_7backend7builtinINS_13static_matrixIdLi4ELi4EEEEENS0_6detail21default_inner_productEEC2EmRKNS9_6paramsERKNS_6detail12empty_paramsERKS8_
FN:160,_ZN5amgcl6solver9bicgstablINS_7backend7builtinIdEENS0_6detail21default_inner_productEEC2EmRKNS7_6paramsERKNS_6detail12empty_paramsERKS6_
FN:198,_ZNK5amgcl6solver9bicgstablINS_7backend7builtinINS_13static_matrixIdLi2ELi2EEEEENS0_6detail21default_inner_productEEclINS2_3crsIS5_llEENS_7runtime14preconditionerIS6_EEN5boost14iterator_rangeIPKNS4_IdLi2ELi1EEEEERNSH_IPSI_EEEESt5tupleIJmdEERKT_RKT0_RKT1_OT2_
FN:198,_ZNK5amgcl6solver9bicgstablINS_7backend7builtinINS_13static_matrixIdLi2ELi2EEEEENS0_6detail21default_inner_productEEclINS2_3crsIS5_llEENS_7runtime14preconditionerIS6_EENS2_11numa_vectorINS4_IdLi2ELi1EEEEERSI_EESt5tupleIJmdEERKT_RKT0_RKT1_OT2_
FN:198,_ZNK5amgcl6solver9bicgstablINS_7backend7builtinINS_13static_matrixIdLi3ELi3EEEEENS0_6detail21default_inner_productEEclINS2_3crsIS5_llEENS_7runtime14preconditionerIS6_EEN5boost14iterator_rangeIPKNS4_IdLi3ELi1EEEEERNSH_IPSI_EEEESt5tupleIJmdEERKT_RKT0_RKT1_OT2_
FN:198,_ZNK5amgcl6solver9bicgstablINS_7backend7builtinINS_13static_matrixIdLi3ELi3EEEEENS0_6detail21default_inner_productEEclINS2_3crsIS5_llEENS_7runtime14preconditionerIS6_EENS2_11numa_vectorINS4_IdLi3ELi1EEEEERSI_EESt5tupleIJmdEERKT_RKT0_RKT1_OT2_
FN:198,_ZNK5amgcl6solver9bicgstablINS_7backend7builtinINS_13static_matrixIdLi4ELi4EEEEENS0_6detail21default_inner_productEEclINS2_3crsIS5_llEENS_7runtime14preconditionerIS6_EEN5boost14iterator_rangeIPKNS4_IdLi4ELi1EEEEERNSH_IPSI_EEEESt5tupleIJmdEERKT_RKT0_RKT1_OT2_
FN:198,_ZNK5amgcl6solver9bicgstablINS_7backend7builtinINS_13static_matrixIdLi4ELi4EEEEENS0_6detail21default_inner_productEEclINS2_3crsIS5_llEENS_7runtime14preconditionerIS6_EENS2_11numa_vectorINS4_IdLi4ELi1EEEEERSI_EESt5tupleIJmdEERKT_RKT0_RKT1_OT2_
FN:198,_ZNK5amgcl6solver9bicgstablINS_7backend7builtinIdEENS0_6detail21default_inner_productEEclINS2_3crsIdllEENS_10relaxation17as_preconditionerIS4_NS_7runtime10relaxation7wrapperEEENS2_11numa_vectorIdEERSI_EESt5tupleIJmdEERKT_RKT0_RKT1_OT2_
FN:198,_ZNK5amgcl6solver9bicgstablINS_7backend7builtinIdEENS0_6detail21default_inner_productEEclINS2_3crsIdllEENS_14preconditioner25schur_pressure_correctionINS_11make_solverINS_10relaxation17as_preconditionerIS4_NS_7runtime10relaxation7wrapperEEENSG_6solver7wrapperIS4_S6_EEEENSD_INS_3amgIS4_NSG_10coarsening7wrapperESI_EESM_EEEEN5boost7numeric5ublas6vectorIdNSW_15unbounded_arrayIdSaIdEEEEERS11_EESt5tupleIJmdEERKT_RKT0_RKT1_OT2_
FN:198,_ZNK5amgcl6solver9bicgstablINS_7backend7builtinIdEENS0_6detail21default_inner_productEEclINS2_3crsIdllEENS_7runtime14preconditionerIS4_EEN5boost7numeric5ublas6vectorIdNSG_15unbounded_arrayIdSaIdEEEEERSL_EESt5tupleIJmdEERKT_RKT0_RKT1_OT2_
FN:198,_ZNK5amgcl6solver9bicgstablINS_7backend7builtinIdEENS0_6detail21default_inner_productEEclINS2_3crsIdllEENS_7runtime14preconditionerIS4_EENS2_11numa_vectorIdEERSF_EESt5tupleIJmdEERKT_RKT0_RKT1_OT2_
FN:198,_ZNK5amgcl6solver9bicgstablINS_7backend7builtinIdEENS0_6detail21default_inner_productEEclINS_14preconditioner25schur_pressure_correctionINS_11make_solverINS_10relaxation17as_preconditionerIS4_NS_7runtime10relaxation7wrapperEEENSE_6solver7wrapperIS4_S6_EEEENSB_INS_3amgIS4_NSE_10coarsening7wrapperESG_EESK_EEEESP_NS2_11numa_vectorIdEERST_EESt5tupleIJmdEERKT_RKT0_RKT1_OT2_
FN:418,_ZNK5amgcl6solver9bicgstablINS_7backend7builtinINS_13static_matrixIdLi2ELi2EEEEENS0_6detail21default_inner_productEE5bytesEv
FN:418,_ZNK5amgcl6solver9bicgstablINS_7backend7builtinINS_13static_matrixIdLi3ELi3EEEEENS0_6detail21default_inner_productEE5bytesEv
FN:418,_ZNK5amgcl6solver9bicgstablINS_7backend7builtinINS_13static_matrixIdLi4ELi4EEEEENS0_6detail21default_inner_productEE5bytesEv
FN:418,_ZNK5amgcl6solver9bicgstablINS_7backend7builtinIdEENS0_6detail21default_inner_productEE5bytesEv
FNDA:0,_ZN5amgcl6solver9bicgstablINS_7backend7builtinINS_13static_matrixIdLi2ELi2EEEEENS0_6detail21default_inner_productEE6paramsC2ERKN5boost13property_tree11basic_ptreeINSt7__cxx1112basic_stringIcSt11char_traitsIcESaIcEEESJ_St4lessISJ_EEE
FNDA:0,_ZN5amgcl6solver9bicgstablINS_7backend7builtinINS_13static_matrixIdLi2ELi2EEEEENS0_6detail21default_inner_productEEC2EmRKNS9_6paramsERKNS_6detail12empty_paramsERKS8_
FNDA:0,_ZN5amgcl6solver9bicgstablINS_7backend7builtinINS_13static_matrixIdLi3ELi3EEEEENS0_6detail21default_inner_productEE6paramsC2ERKN5boost13property_tree11basic_ptreeINSt7__cxx1112basic_stringIcSt11char_traitsIcESaIcEEESJ_St4lessISJ_EEE
FNDA:0,_ZN5amgcl6solver9bicgstablINS_7backend7builtinINS_13static_matrixIdLi3ELi3EEEEENS0_6detail21default_inner_productEEC2EmRKNS9_6paramsERKNS_6detail12empty_paramsERKS8_
FNDA:0,_ZN5amgcl6solver9bicgstablINS_7backend7builtinINS_13static_matrixIdLi4ELi4EEEEENS0_6detail21default_inner_productEE6paramsC2ERKN5boost13property_tree11basic_ptreeINSt7__cxx1112basic_stringIcSt11char_traitsIcESaIcEEESJ_St4lessISJ_EEE
FNDA:0,_ZN5amgcl6solver9bicgstablINS_7backend7builtinINS_13static_matrixIdLi4ELi4EEEEENS0_6detail21default_inner_productEEC2EmRKNS9_6paramsERKNS_6detail12empty_paramsERKS8_
FNDA:0,_ZN5amgcl6solver9bicgstablINS_7backend7builtinIdEENS0_6detail21default_inner_productEE6paramsC2ERKN5boost13property_tree11basic_ptreeINSt7__cxx1112basic_stringIcSt11char_traitsIcESaIcEEESH_St4lessISH_EEE
FNDA:0,_ZN5amgcl6solver9bicgstablINS_7backend7builtinIdEENS0_6detail21default_inner_productEEC2EmRKNS7_6paramsERKNS_6detail12empty_paramsERKS6_
FNDA:0,_ZNK5amgcl6solver9bicgstablINS_7backend7builtinINS_13static_matrixIdLi2ELi2EEEEENS0_6detail21default_inner_productEE5bytesEv
FNDA:0,_ZNK5amgcl6solver9bicgstablINS_7backend7builtinINS_13static_matrixIdLi2ELi2EEEEENS0_6detail21default_inner_productEEclINS2_3crsIS5_llEENS_7runtime14preconditionerIS6_EEN5boost14iterator_rangeIPKNS4_IdLi2ELi1EEEEERNSH_IPSI_EEEESt5tupleIJmdEERKT_RKT0_RKT1_OT2_
FNDA:0,_ZNK5amgcl6solver9bicgstablINS_7backend7builtinINS_13static_matrixIdLi2ELi2EEEEENS0_6detail21default_inner_productEEclINS2_3crsIS5_llEENS_7runtime14preconditionerIS6_EENS2_11numa_vectorINS4_IdLi2ELi1EEEEERSI_EESt5tupleIJmdEERKT_RKT0_RKT1_OT2_
FNDA:0,_ZNK5amgcl6solver9bicgstablINS_7backend7builtinINS_13static_matrixIdLi3ELi3EEEEENS0_6detail21default_inner_productEE5bytesEv
FNDA:0,_ZNK5amgcl6solver9bicgstablINS_7backend7builtinINS_13static_matrixIdLi3ELi3EEEEENS0_6detail21default_inner_productEEclINS2_3crsIS5_llEENS_7runtime14preconditionerIS6_EEN5boost14iterator_rangeIPKNS4_IdLi3ELi1EEEEERNSH_IPSI_EEEESt5tupleIJmdEERKT_RKT0_RKT1_OT2_
FNDA:0,_ZNK5amgcl6solver9bicgstablINS_7backend7builtinINS_13static_matrixIdLi3ELi3EEEEENS0_6detail21default_inner_productEEclINS2_3crsIS5_llEENS_7runtime14preconditionerIS6_EENS2_11numa_vectorINS4_IdLi3ELi1EEEEERSI_EESt5tupleIJmdEERKT_RKT0_RKT1_OT2_
FNDA:0,_ZNK5amgcl6solver9bicgstablINS_7backend7builtinINS_13static_matrixIdLi4ELi4EEEEENS0_6detail21default_inner_productEE5bytesEv
FNDA:0,_ZNK5amgcl6solver9bicgstablINS_7backend7builtinINS_13static_matrixIdLi4ELi4EEEEENS0_6detail21default_inner_productEEclINS2_3crsIS5_llEENS_7runtime14preconditionerIS6_EEN5boost14iterator_rangeIPKNS4_IdLi4ELi1EEEEERNSH_IPSI_EEEESt5tupleIJmdEERKT_RKT0_RKT1_OT2_
FNDA:0,_ZNK5amgcl6solver9bicgstablINS_7backend7builtinINS_13static_matrixIdLi4ELi4EEEEENS0_6detail21default_inner_productEEclINS2_3crsIS5_llEENS_7runtime14preconditionerIS6_EENS2_11numa_vectorINS4_IdLi4ELi1EEEEERSI_EESt5tupleIJmdEERKT_RKT0_RKT1_OT2_
FNDA:0,_ZNK5amgcl6solver9bicgstablINS_7backend7builtinIdEENS0_6detail21default_inner_productEE5bytesEv
FNDA:0,_ZNK5amgcl6solver9bicgstablINS_7backend7builtinIdEENS0_6detail21default_inner_productEEclINS2_3crsIdllEENS_10relaxation17as_preconditionerIS4_NS_7runtime10relaxation7wrapperEEENS2_11numa_vectorIdEERSI_EESt5tupleIJmdEERKT_RKT0_RKT1_OT2_
FNDA:0,_ZNK5amgcl6solver9bicgstablINS_7backend7builtinIdEENS0_6detail21default_inner_productEEclINS2_3crsIdllEENS_14preconditioner25schur_pressure_correctionINS_11make_solverINS_10relaxation17as_preconditionerIS4_NS_7runtime10relaxation7wrapperEEENSG_6solver7wrapperIS4_S6_EEEENSD_INS_3amgIS4_NSG_10coarsening7wrapperESI_EESM_EEEEN5boost7numeric5ublas6vectorIdNSW_15unbounded_arrayIdSaIdEEEEERS11_EESt5tupleIJmdEERKT_RKT0_RKT1_OT2_
FNDA:0,_ZNK5amgcl6solver9bicgstablINS_7backend7builtinIdEENS0_6detail21default_inner_productEEclINS2_3crsIdllEENS_7runtime14preconditionerIS4_EEN5boost7numeric5ublas6vectorIdNSG_15unbounded_arrayIdSaIdEEEEERSL_EESt5tupleIJmdEERKT_RKT0_RKT1_OT2_
FNDA:0,_ZNK5amgcl6solver9bicgstablINS_7backend7builtinIdEENS0_6detail21default_inner_productEEclINS2_3crsIdllEENS_7runtime14preconditionerIS4_EENS2_11numa_vectorIdEERSF_EESt5tupleIJmdEERKT_RKT0_RKT1_OT2_
FNDA:0,_ZNK5amgcl6solver9bicgstablINS_7backend7builtinIdEENS0_6detail21default_inner_productEEclINS_14preconditioner25schur_pressure_correctionINS_11make_solverINS_10relaxation17as_preconditionerIS4_NS_7runtime10relaxation7wrapperEEENSE_6solver7wrapperIS4_S6_EEEENSB_INS_3amgIS4_NSE_10coarsening7wrapperESG_EESK_EEEESP_NS2_11numa_vectorIdEERST_EESt5tupleIJmdEERKT_RKT0_RKT1_OT2_
FNF:23
FNH:0
DA:127,0
DA:128,0
DA:129,0
DA:130,0
DA:135,0
DA:136,0
DA:137,0
DA:138,0
DA:139,0
DA:140,0
DA:141,0
DA:142,0
DA:144,0
DA:145,0
DA:160,0
DA:166,0
DA:167,0
DA:168,0
DA:169,0
DA:170,0
DA:171,0
DA:172,0
DA:173,0
DA:174,0
DA:175,0
DA:177,0
DA:179,0
DA:180,0
DA:181,0
DA:183,0
DA:198,0
DA:203,0
DA:204,0
DA:206,0
DA:211,0
DA:216,0
DA:218,0
DA:224,0
DA:226,0
DA:227,0
DA:236,0
DA:237,0
DA:238,0
DA:241,0
DA:243,0
DA:245,0
DA:246,0
DA:247,0
DA:250,0
DA:253,0
DA:254,0
DA:256,0
DA:259,0
DA:261,0
DA:263,0
DA:265,0
DA:266,0
DA:268,0
DA:270,0
DA:272,0
DA:273,0
DA:276,0
DA:277,0
DA:278,0
DA:283,0
DA:284,0
DA:285,0
DA:290,0
DA:291,0
DA:292,0
DA:296,0
DA:298,0
DA:299,0
DA:301,0
DA:304,0
DA:305,0
DA:306,0
DA:309,0
DA:310,0
DA:311,0
DA:314,0
DA:317,0
DA:321,0
DA:322,0
DA:323,0
DA:324,0
DA:327,0
DA:328,0
DA:329,0
DA:332,0
DA:333,0
DA:336,0
DA:338,0
DA:339,0
DA:341,0
DA:344,0
DA:345,0
DA:349,0
DA:350,0
DA:351,0
DA:352,0
DA:355,0
DA:357,0
DA:359,0
DA:360,0
DA:362,0
DA:364,0
DA:367,0
DA:368,0
DA:369,0
DA:371,0
DA:373,0
DA:374,0
DA:375,0
DA:376,0
DA:378,0
DA:379,0
DA:380,0
DA:382,0
DA:387,0
DA:393,0
DA:394,0
DA:395,0
DA:397,0
DA:398,0
DA:401,0
DA:418,0
DA:422,0
DA:423,0
DA:424,0
DA:426,0
DA:427,0
DA:429,0
DA:430,0
DA:432,0
DA:433,0
DA:435,0
DA:437,0
DA:469,0
LF:139
LH:0
end_of_record
TN:
SF:/root/Kratos/external_libraries/amgcl/solver/cg.hpp
FN:96,_ZN5amgcl6solver2cgINS_7backend7builtinINS_13static_matrixIdLi2ELi2EEEEENS0_6detail21default_inner_productEE6paramsC2ERKN5boost13property_tree11basic_ptreeINSt7__cxx1112basic_stringIcSt11char_traitsIcESaIcEEESJ_St4lessISJ_EEE
FN:96,_ZN5amgcl6solver2cgINS_7backend7builtinINS_13static_matrixIdLi3ELi3EEEEENS0_6detail21default_inner_productEE6paramsC2ERKN5boost13property_tree11basic_ptreeINSt7__cxx1112basic_stringIcSt11char_traitsIcESaIcEEESJ_St4lessISJ_EEE
FN:96,_ZN5amgcl6solver2cgINS_7backend7builtinINS_13static_matrixIdLi4ELi4EEEEENS0_6detail21default_inner_productEE6paramsC2ERKN5boost13property_tree11basic_ptreeINSt7__cxx1112basic_stringIcSt11char_traitsIcESaIcEEESJ_St4lessISJ_EEE
FN:96,_ZN5amgcl6solver2cgINS_7backend7builtinIdEENS0_6detail21default_inner_productEE6paramsC2ERKN5boost13property_tree11basic_ptreeINSt7__cxx1112basic_stringIcSt11char_traitsIcESaIcEEESH_St4lessISH_EEE
FN:113,_ZN5amgcl6solver2cgINS_7backend7builtinINS_13static_matrixIdLi2ELi2EEEEENS0_6detail21default_inner_productEEC2EmRKNS9_6paramsERKNS_6detail12empty_paramsERKS8_
FN:113,_ZN5amgcl6solver2cgINS_7backend7builtinINS_13static_matrixIdLi3ELi3EEEEENS0_6detail21default_inner_productEEC2EmRKNS9_6paramsERKNS_6detail12empty_paramsERKS8_
FN:113,_ZN5amgcl6solver2cgINS_7backend7builtinINS_13static_matrixIdLi4ELi4EEEEENS0_6detail21default_inner_productEEC2EmRKNS9_6paramsERKNS_6detail12empty_paramsERKS8_
FN:113,_ZN5amgcl6solver2cgINS_7backend7builtinIdEENS0_6detail21default_inner_productEEC2EmRKNS7_6paramsERKNS_6detail12empty_paramsERKS6_
FN:139,_ZNK5amgcl6solver2cgINS_7backend7builtinINS_13static_matrixIdLi2ELi2EEEEENS0_6detail21default_inner_productEEclINS2_3crsIS5_llEENS_7runtime14preconditionerIS6_EEN5boost14iterator_rangeIPKNS4_IdLi2ELi1EEEEERNSH_IPSI_EEEESt5tupleIJmdEERKT_RKT0_RKT1_OT2_
FN:139,_ZNK5amgcl6solver2cgINS_7backend7builtinINS_13static_matrixIdLi2ELi2EEEEENS0_6detail21default_inner_productEEclINS2_3crsIS5_llEENS_7runtime14preconditionerIS6_EENS2_11numa_vectorINS4_IdLi2ELi1EEEEERSI_EESt5tupleIJmdEERKT_RKT0_RKT1_OT2_
FN:139,_ZNK5amgcl6solver2cgINS_7backend7builtinINS_13static_matrixIdLi3ELi3EEEEENS0_6detail21default_inner_productEEclINS2_3crsIS5_llEENS_7runtime14preconditionerIS6_EEN5boost14iterator_rangeIPKNS4_IdLi3ELi1EEEEERNSH_IPSI_EEEESt5tupleIJmdEERKT_RKT0_RKT1_OT2_
FN:139,_ZNK5amgcl6solver2cgINS_7backend7builtinINS_13static_matrixIdLi3ELi3EEEEENS0_6detail21default_inner_productEEclINS2_3crsIS5_llEENS_7runtime14preconditionerIS6_EENS2_11numa_vectorINS4_IdLi3ELi1EEEEERSI_EESt5tupleIJmdEERKT_RKT0_RKT1_OT2_
FN:139,_ZNK5amgcl6solver2cgINS_7backend7builtinINS_13static_matrixIdLi4ELi4EEEEENS0_6detail21default_inner_productEEclINS2_3crsIS5_llEENS_7runtime14preconditionerIS6_EEN5boost14iterator_rangeIPKNS4_IdLi4ELi1EEEEERNSH_IPSI_EEEESt5tupleIJmdEERKT_RKT0_RKT1_OT2_
FN:139,_ZNK5amgcl6solver2cgINS_7backend7builtinINS_13static_matrixIdLi4ELi4EEEEENS0_6detail21default_inner_productEEclINS2_3crsIS5_llEENS_7runtime14preconditionerIS6_EENS2_11numa_vectorINS4_IdLi4ELi1EEEEERSI_EESt5tupleIJmdEERKT_RKT0_RKT1_OT2_
FN:139,_ZNK5amgcl6solver2cgINS_7backend7builtinIdEENS0_6detail21default_inner_productEEclINS2_3crsIdllEENS_10relaxation17as_preconditionerIS4_NS_7runtime10relaxation7wrapperEEENS2_11numa_vectorIdEERSI_EESt5tupleIJmdEERKT_RKT0_RKT1_OT2_
FN:139,_ZNK5amgcl6solver2cgINS_7backend7builtinIdEENS0_6detail21default_inner_productEEclINS2_3crsIdllEENS_14preconditioner25schur_pressure_correctionINS_11make_solverINS_10relaxation17as_preconditionerIS4_NS_7runtime10relaxation7wrapperEEENSG_6solver7wrapperIS4_S6_EEEENSD_INS_3amgIS4_NSG_10coarsening7wrapperESI_EESM_EEEEN5boost7numeric5ublas6vectorIdNSW_15unbounded_arrayIdSaIdEEEEERS11_EESt5tupleIJmdEERKT_RKT0_RKT1_OT2_
FN:139,_ZNK5amgcl6solver2cgINS_7backend7builtinIdEENS0_6detail21default_inner_productEEclINS2_3crsIdllEENS_7runtime14preconditionerIS4_EEN5boost7numeric5ublas6vectorIdNSG_15unbounded_arrayIdSaIdEEEEERSL_EESt5tupleIJmdEERKT_RKT0_RKT1_OT2_
FN:139,_ZNK5amgcl6solver2cgINS_7backend7builtinIdEENS0_6detail21default_inner_productEEclINS2_3crsIdllEENS_7runtime14preconditionerIS4_EENS2_11numa_vectorIdEERSF_EESt5tupleIJmdEERKT_RKT0_RKT1_OT2_
FN:139,_ZNK5amgcl6solver2cgINS_7backend7builtinIdEENS0_6detail21default_inner_productEEclINS_14preconditioner25schur_pressure_correctionINS_11make_solverINS_10relaxation17as_preconditionerIS4_NS_7runtime10relaxation7wrapperEEENSE_6solver7wrapperIS4_S6_EEEENSB_INS_3amgIS4_NSE_10coarsening7wrapperESG_EESK_EEEESP_NS2_11numa_vectorIdEERST_EESt5tupleIJmdEERKT_RKT0_RKT1_OT2_
FNDA:0,_ZN5amgcl6solver2cgINS_7backend7builtinINS_13static_matrixIdLi2ELi2EEEEENS0_6detail21default_inner_productEE6paramsC2ERKN5boost13property_tree11basic_ptreeINSt7__cxx1112basic_stringIcSt11char_traitsIcESaIcEEESJ_St4lessISJ_EEE
FNDA:0,_ZN5amgcl6solver2cgINS_7backend7builtinINS_13static_matrixIdLi2ELi2EEEEENS0_6detail21default_inner_productEEC2EmRKNS9_6paramsERKNS_6detail12empty_paramsERKS8_
FNDA:0,_ZN5amgcl6solver2cgINS_7backend7builtinINS_13static_matrixIdLi3ELi3EEEEENS0_6detail21default_inner_productEE6paramsC2ERKN5boost13property_tree11basic_ptreeINSt7__cxx1112basic_stringIcSt11char_traitsIcESaIcEEESJ_St4lessISJ_EEE
FNDA:0,_ZN5amgcl6solver2cgINS_7backend7builtinINS_13static_matrixIdLi3ELi3EEEEENS0_6detail21default_inner_productEEC2EmRKNS9_6paramsERKNS_6detail12empty_paramsERKS8_
FNDA:0,_ZN5amgcl6solver2cgINS_7backend7builtinINS_13static_matrixIdLi4ELi4EEEEENS0_6detail21default_inner_productEE6paramsC2ERKN5boost13property_tree11basic_ptreeINSt7__cxx1112basic_stringIcSt11char_traitsIcESaIcEEESJ_St4lessISJ_EEE
FNDA:0,_ZN5amgcl6solver2cgINS_7backend7builtinINS_13static_matrixIdLi4ELi4EEEEENS0_6detail21default_inner_productEEC2EmRKNS9_6paramsERKNS_6detail12empty_paramsERKS8_
FNDA:0,_ZN5amgcl6solver2cgINS_7backend7builtinIdEENS0_6detail21default_inner_productEE6paramsC2ERKN5boost13property_tree11basic_ptreeINSt7__cxx1112basic_stringIcSt11char_traitsIcESaIcEEESH_St4lessISH_EEE
FNDA:0,_ZN5amgcl6solver2cgINS_7backend7builtinIdEENS0_6detail21default_inner_productEEC2EmRKNS7_6paramsERKNS_6detail12empty_paramsERKS6_
FNDA:0,_ZNK5amgcl6solver2cgINS_7backend7builtinINS_13static_matrixIdLi2ELi2EEEEENS0_6detail21default_inner_productEEclINS2_3crsIS5_llEENS_7runtime14preconditionerIS6_EEN5boost14iterator_rangeIPKNS4_IdLi2ELi1EEEEERNSH_IPSI_EEEESt5tupleIJmdEERKT_RKT0_RKT1_OT2_
FNDA:0,_ZNK5amgcl6solver2cgINS_7backend7builtinINS_13static_matrixIdLi2ELi2EEEEENS0_6detail21default_inner_productEEclINS2_3crsIS5_llEENS_7runtime14preconditionerIS6_EENS2_11numa_vectorINS4_IdLi2ELi1EEEEERSI_EESt5tupleIJmdEERKT_RKT0_RKT1_OT2_
FNDA:0,_ZNK5amgcl6solver2cgINS_7backend7builtinINS_13static_matrixIdLi3ELi3EEEEENS0_6detail21default_inner_productEEclINS2_3crsIS5_llEENS_7runtime14preconditionerIS6_EEN5boost14iterator_rangeIPKNS4_IdLi3ELi1EEEEERNSH_IPSI_EEEESt5tupleIJmdEERKT_RKT0_RKT1_OT2_
FNDA:0,_ZNK5amgcl6solver2cgINS_7backend7builtinINS_13static_matrixIdLi3ELi3EEEEENS0_6detail21default_inner_productEEclINS2_3crsIS5_llEENS_7runtime14preconditionerIS6_EENS2_11numa_vectorINS4_IdLi3ELi1EEEEERSI_EESt5tupleIJmdEERKT_RKT0_RKT1_OT2_
FNDA:0,_ZNK5amgcl6solver2cgINS_7backend7builtinINS_13static_matrixIdLi4ELi4EEEEENS0_6detail21default_inner_productEEclINS2_3crsIS5_llEENS_7runtime14preconditionerIS6_EEN5boost14iterator_rangeIPKNS4_IdLi4ELi1EEEEERNSH_IPSI_EEEESt5tupleIJmdEERKT_RKT0_RKT1_OT2_
FNDA:0,_ZNK5amgcl6solver2cgINS_7backend7builtinINS_13static_matrixIdLi4ELi4EEEEENS0_6detail21default_inner_productEEclINS2_3crsIS5_llEENS_7runtime14preconditionerIS6_EENS2_11numa_vectorINS4_IdLi4ELi1EEEEERSI_EESt5tupleIJmdEERKT_RKT0_RKT1_OT2_
FNDA:0,_ZNK5amgcl6solver2cgINS_7backend7builtinIdEENS0_6detail21default_inner_productEEclINS2_3crsIdllEENS_10relaxation17as_preconditionerIS4_NS_7runtime10relaxation7wrapperEEENS2_11numa_vectorIdEERSI_EESt5tupleIJmdEERKT_RKT0_RKT1_OT2_
FNDA:0,_ZNK5amgcl6solver2cgINS_7backend7builtinIdEENS0_6detail21default_inner_productEEclINS2_3crsIdllEENS_14preconditioner25schur_pressure_correctionINS_11make_solverINS_10relaxation17as_preconditionerIS4_NS_7runtime10relaxation7wrapperEEENSG_6solver7wrapperIS4_S6_EEEENSD_INS_3amgIS4_NSG_10coarsening7wrapperESI_EESM_EEEEN5boost7numeric5ublas6vectorIdNSW_15unbounded_arrayIdSaIdEEEEERS11_EESt5tupleIJmdEERKT_RKT0_RKT1_OT2_
FNDA:0,_ZNK5amgcl6solver2cgINS_7backend7builtinIdEENS0_6detail21default_inner_productEEclINS2_3crsIdllEENS_7runtime14preconditionerIS4_EEN5boost7numeric5ublas6vectorIdNSG_15unbounded_arrayIdSaIdEEEEERSL_EESt5tupleIJmdEERKT_RKT0_RKT1_OT2_
FNDA:0,_ZNK5amgcl6solver2cgINS_7backend7builtinIdEENS0_6detail21default_inner_productEEclINS2_3crsIdllEENS_7runtime14preconditionerIS4_EENS2_11numa_vectorIdEERSF_EESt5tupleIJmdEERKT_RKT0_RKT1_OT2_
FNDA:0,_ZNK5amgcl6solver2cgINS_7backend7builtinIdEENS0_6detail21default_inner_productEEclINS_14preconditioner25schur_pressure_correctionINS_11make_solverINS_10relaxation17as_preconditionerIS4_NS_7runtime10relaxation7wrapperEEENSE_6solver7wrapperIS4_S6_EEEENSB_INS_3amgIS4_NSE_10coarsening7wrapperESG_EESK_EEEESP_NS2_11numa_vectorIdEERST_EESt5tupleIJmdEERKT_RKT0_RKT1_OT2_
FNF:19
FNH:0
DA:90,0
DA:91,0
DA:92,0
DA:96,0
DA:97,0
DA:98,0
DA:99,0
DA:101,0
DA:102,0
DA:113,0
DA:118,0
DA:119,0
DA:120,0
DA:121,0
DA:122,0
DA:124,0
DA:139,0
DA:142,0
DA:143,0
DA:147,0
DA:152,0
DA:154,0
DA:159,0
DA:160,0
DA:165,0
DA:166,0
DA:170,0
DA:172,0
DA:174,0
DA:175,0
DA:180,0
DA:202,0
DA:227,0
LF:33
LH:0
end_of_record
TN:
SF:/root/Kratos/external_libraries/amgcl/solver/detail/givens_rotations.hpp
FN:41,_ZN5amgcl6solver6detail23generate_plane_rotationIdEEvT_S3_RS3_S4_
FNDA:0,_ZN5amgcl6solver6detail23generate_plane_rotationIdEEvT_S3_RS3_S4_
FNF:1
FNH:0
DA:41,0
DA:42,0
DA:43,0
DA:44,0
DA:45,0
DA:46,0
DA:47,0
DA:48,0
DA:50,0
DA:51,0
DA:52,0
DA:54,0
DA:58,0
DA:59,0
DA:60,0
LF:15
LH:0
end_of_record
TN:
SF:/root/Kratos/external_libraries/amgcl/solver/fgmres.hpp
FN:88,_ZN5amgcl6solver6fgmresINS_7backend7builtinINS_13static_matrixIdLi2ELi2EEEEENS0_6detail21default_inner_productEE6paramsC2ERKN5boost13property_tree11basic_ptreeINSt7__cxx1112basic_stringIcSt11char_traitsIcESaIcEEESJ_St4lessISJ_EEE
FN:88,_ZN5amgcl6solver6fgmresINS_7backend7builtinINS_13static_matrixIdLi3ELi3EEEEENS0_6detail21default_inner_productEE6paramsC2ERKN5boost13property_tree11basic_ptreeINSt7__cxx1112basic_stringIcSt11char_traitsIcESaIcEEESJ_St4lessISJ_EEE
FN:88,_ZN5amgcl6solver6fgmresINS_7backend7builtinINS_13static_matrixIdLi4ELi4EEEEENS0_6detail21default_inner_productEE6paramsC2ERKN5boost13property_tree11basic_ptreeINSt7__cxx1112basic_stringIcSt11char_traitsIcESaIcEEESJ_St4lessISJ_EEE
FN:88,_ZN5amgcl6solver6fgmresINS_7backend7builtinIdEENS0_6detail21default_inner_productEE6paramsC2ERKN5boost13property_tree11basic_ptreeINSt7__cxx1112basic_stringIcSt11char_traitsIcESaIcEEESH_St4lessISH_EEE
FN:107,_ZN5amgcl6solver6fgmresINS_7backend7builtinINS_13static_matrixIdLi2ELi2EEEEENS0_6detail21default_inner_productEEC2EmRKNS9_6paramsERKNS_6detail12empty_paramsERKS8_
FN:107,_ZN5amgcl6solver6fgmresINS_7backend7builtinINS_13static_matrixIdLi3ELi3EEEEENS0_6detail21default_inner_productEEC2EmRKNS9_6paramsERKNS_6detail12empty_paramsERKS8_
FN:107,_ZN5amgcl6solver6fgmresINS_7backend7builtinINS_13static_matrixIdLi4ELi4EEEEENS0_6detail21default_inner_productEEC2EmRKNS9_6paramsERKNS_6detail12empty_paramsERKS8_
FN:107,_ZN5amgcl6solver6fgmresINS_7backend7builtinIdEENS0_6detail21default_inner_productEEC2EmRKNS7_6paramsERKNS_6detail12empty_paramsERKS6_
FN:141,_ZNK5amgcl6solver6fgmresINS_7backend7builtinINS_13static_matrixIdLi2ELi2EEEEENS0_6detail21default_inner_productEEclINS2_3crsIS5_llEENS_7runtime14preconditionerIS6_EEN5boost14iterator_rangeIPKNS4_IdLi2ELi1EEEEENSH_IPSI_EEEESt5tupleIJmdEERKT_RKT0_RKT1_RT2_
FN:141,_ZNK5amgcl6solver6fgmresINS_7backend7builtinINS_13static_matrixIdLi2ELi2EEEEENS0_6detail21default_inner_productEEclINS2_3crsIS5_llEENS_7runtime14preconditionerIS6_EENS2_11numa_vectorINS4_IdLi2ELi1EEEEESI_EESt5tupleIJmdEERKT_RKT0_RKT1_RT2_
FN:141,_ZNK5amgcl6solver6fgmresINS_7backend7builtinINS_13static_matrixIdLi3ELi3EEEEENS0_6detail21default_inner_productEEclINS2_3crsIS5_llEENS_7runtime14preconditionerIS6_EEN5boost14iterator_rangeIPKNS4_IdLi3ELi1EEEEENSH_IPSI_EEEESt5tupleIJmdEERKT_RKT0_RKT1_RT2_
FN:141,_ZNK5amgcl6solver6fgmresINS_7backend7builtinINS_13static_matrixIdLi3ELi3EEEEENS0_6detail21default_inner_productEEclINS2_3crsIS5_llEENS_7runtime14preconditionerIS6_EENS2_11numa_vectorINS4_IdLi3ELi1EEEEESI_EESt5tupleIJmdEERKT_RKT0_RKT1_RT2_
FN:141,_ZNK5amgcl6solver6fgmresINS_7backend7builtinINS_13static_matrixIdLi4ELi4EEEEENS0_6detail21default_inner_productEEclINS2_3crsIS5_llEENS_7runtime14preconditionerIS6_EEN5boost14iterator_rangeIPKNS4_IdLi4ELi1EEEEENSH_IPSI_EEEESt5tupleIJmdEERKT_RKT0_RKT1_RT2_
FN:141,_ZNK5amgcl6solver6fgmresINS_7backend7builtinINS_13static_matrixIdLi4ELi4EEEEENS0_6detail21default_inner_productEEclINS2_3crsIS5_llEENS_7runtime14preconditionerIS6_EENS2_11numa_vectorINS4_IdLi4ELi1EEEEESI_EESt5tupleIJmdEERKT_RKT0_RKT1_RT2_
FN:141,_ZNK5amgcl6solver6fgmresINS_7backend7builtinIdEENS0_6detail21default_inner_productEEclINS2_3crsIdllEENS_10relaxation17as_preconditionerIS4_NS_7runtime10relaxation7wrapperEEENS2_11numa_vectorIdEESI_EESt5tupleIJmdEERKT_RKT0_RKT1_RT2_
FN:141,_ZNK5amgcl6solver6fgmresINS_7backend7builtinIdEENS0_6detail21default_inner_productEEclINS2_3crsIdllEENS_14preconditioner25schur_pressure_correctionINS_11make_solverINS_10relaxation17as_preconditionerIS4_NS_7runtime10relaxation7wrapperEEENSG_6solver7wrapperIS4_S6_EEEENSD_INS_3amgIS4_NSG_10coarsening7wrapperESI_EESM_EEEEN5boost7numeric5ublas6vectorIdNSW_15unbounded_arrayIdSaIdEEEEES11_EESt5tupleIJmdEERKT_RKT0_RKT1_RT2_
FN:141,_ZNK5amgcl6solver6fgmresINS_7backend7builtinIdEENS0_6detail21default_inner_productEEclINS2_3crsIdllEENS_7runtime14preconditionerIS4_EEN5boost7numeric5ublas6vectorIdNSG_15unbounded_arrayIdSaIdEEEEESL_EESt5tupleIJmdEERKT_RKT0_RKT1_RT2_
FN:141,_ZNK5amgcl6solver6fgmresINS_7backend7builtinIdEENS0_6detail21default_inner_productEEclINS2_3crsIdllEENS_7runtime14preconditionerIS4_EENS2_11numa_vectorIdEESF_EESt5tupleIJmdEERKT_RKT0_RKT1_RT2_
FN:141,_ZNK5amgcl6solver6fgmresINS_7backend7builtinIdEENS0_6detail21default_inner_productEEclINS_14preconditioner25schur_pressure_correctionINS_11make_solverINS_10relaxation17as_preconditionerIS4_NS_7runtime10relaxation7wrapperEEENSE_6solver7wrapperIS4_S6_EEEENSB_INS_3amgIS4_NSE_10coarsening7wrapperESG_EESK_EEEESP_NS2_11numa_vectorIdEEST_EESt5tupleIJmdEERKT_RKT0_RKT1_RT2_
FN:238,_ZNK5amgcl6solver6fgmresINS_7backend7builtinINS_13static_matrixIdLi2ELi2EEEEENS0_6detail21default_inner_productEE5bytesEv
FN:238,_ZNK5amgcl6solver6fgmresINS_7backend7builtinINS_13static_matrixIdLi3ELi3EEEEENS0_6detail21default_inner_productEE5bytesEv
FN:238,_ZNK5amgcl6solver6fgmresINS_7backend7builtinINS_13static_matrixIdLi4ELi4EEEEENS0_6detail21default_inner_productEE5bytesEv
FN:238,_ZNK5amgcl6solver6fgmresINS_7backend7builtinIdEENS0_6detail21default_inner_productEE5bytesEv
FNDA:0,_ZN5amgcl6solver6fgmresINS_7backend7builtinINS_13static_matrixIdLi2ELi2EEEEENS0_6detail21default_inner_productEE6paramsC2ERKN5boost13property_tree11basic_ptreeINSt7__cxx1112basic_stringIcSt11char_traitsIcESaIcEEESJ_St4lessISJ_EEE
FNDA:0,_ZN5amgcl6solver6fgmresINS_7backend7builtinINS_13static_matrixIdLi2ELi2EEEEENS0_6detail21default_inner_productEEC2EmRKNS9_6paramsERKNS_6detail12empty_paramsERKS8_
FNDA:0,_ZN5amgcl6solver6fgmresINS_7backend7builtinINS_13static_matrixIdLi3ELi3EEEEENS0_6detail21default_inner_productEE6paramsC2ERKN5boost13property_tree11basic_ptreeINSt7__cxx1112basic_stringIcSt11char_traitsIcESaIcEEESJ_St4lessISJ_EEE
FNDA:0,_ZN5amgcl6solver6fgmresINS_7backend7builtinINS_13static_matrixIdLi3ELi3EEEEENS0_6detail21default_inner_productEEC2EmRKNS9_6paramsERKNS_6detail12empty_paramsERKS8_
FNDA:0,_ZN5amgcl6solver6fgmresINS_7backend7builtinINS_13static_matrixIdLi4ELi4EEEEENS0_6detail21default_inner_productEE6paramsC2ERKN5boost13property_tree11basic_ptreeINSt7__cxx1112basic_stringIcSt11char_traitsIcESaIcEEESJ_St4lessISJ_EEE
FNDA:0,_ZN5amgcl6solver6fgmresINS_7backend7builtinINS_13static_matrixIdLi4ELi4EEEEENS0_6detail21default_inner_productEEC2EmRKNS9_6paramsERKNS_6detail12empty_paramsERKS8_
FNDA:0,_ZN5amgcl6solver6fgmresINS_7backend7builtinIdEENS0_6detail21default_inner_productEE6paramsC2ERKN5boost13property_tree11basic_ptreeINSt7__cxx1112basic_stringIcSt11char_traitsIcESaIcEEESH_St4lessISH_EEE
FNDA:0,_ZN5amgcl6solver6fgmresINS_7backend7builtinIdEENS0_6detail21default_inner_productEEC2EmRKNS7_6paramsERKNS_6detail12empty_paramsERKS6_
FNDA:0,_ZNK5amgcl6solver6fgmresINS_7backend7builtinINS_13static_matrixIdLi2ELi2EEEEENS0_6detail21default_inner_productEE5bytesEv
FNDA:0,_ZNK5amgcl6solver6fgmresINS_7backend7builtinINS_13static_matrixIdLi2ELi2EEEEENS0_6detail21default_inner_productEEclINS2_3crsIS5_llEENS_7runtime14preconditionerIS6_EEN5boost14iterator_rangeIPKNS4_IdLi2ELi1EEEEENSH_IPSI_EEEESt5tupleIJmdEERKT_RKT0_RKT1_RT2_
FNDA:0,_ZNK5amgcl6solver6fgmresINS_7backend7builtinINS_13static_matrixIdLi2ELi2EEEEENS0_6detail21default_inner_productEEclINS2_3crsIS5_llEENS_7runtime14preconditionerIS6_EENS2_11numa_vectorINS4_IdLi2ELi1EEEEESI_EESt5tupleIJmdEERKT_RKT0_RKT1_RT2_
FNDA:0,_ZNK5amgcl6solver6fgmresINS_7backend7builtinINS_13static_matrixIdLi3ELi3EEEEENS0_6detail21default_inner_productEE5bytesEv
FNDA:0,_ZNK5amgcl6solver6fgmresINS_7backend7builtinINS_13static_matrixIdLi3ELi3EEEEENS0_6detail21default_inner_productEEclINS2_3crsIS5_llEENS_7runtime14preconditionerIS6_EEN5boost14iterator_rangeIPKNS4_IdLi3ELi1EEEEENSH_IPSI_EEEESt5tupleIJmdEERKT_RKT0_RKT1_RT2_
FNDA:0,_ZNK5amgcl6solver6fgmresINS_7backend7builtinINS_13static_matrixIdLi3ELi3EEEEENS0_6detail21default_inner_productEEclINS2_3crsIS5_llEENS_7runtime14preconditionerIS6_EENS2_11numa_vectorINS4_IdLi3ELi1EEEEESI_EESt5tupleIJmdEERKT_RKT0_RKT1_RT2_
FNDA:0,_ZNK5amgcl6solver6fgmresINS_7backend7builtinINS_13static_matrixIdLi4ELi4EEEEENS0_6detail21default_inner_productEE5bytesEv
FNDA:0,_ZNK5amgcl6solver6fgmresINS_7backend7builtinINS_13static_matrixIdLi4ELi4EEEEENS0_6detail21default_inner_productEEclINS2_3crsIS5_llEENS_7runtime14preconditionerIS6_EEN5boost14iterator_rangeIPKNS4_IdLi4ELi1EEEEENSH_IPSI_EEEESt5tupleIJmdEERKT_RKT0_RKT1_RT2_
FNDA:0,_ZNK5amgcl6solver6fgmresINS_7backend7builtinINS_13static_matrixIdLi4ELi4EEEEENS0_6detail21default_inner_productEEclINS2_3crsIS5_llEENS_7runtime14preconditionerIS6_EENS2_11numa_vectorINS4_IdLi4ELi1EEEEESI_EESt5tupleIJmdEERKT_RKT0_RKT1_RT2_
FNDA:0,_ZNK5amgcl6solver6fgmresINS_7backend7builtinIdEENS0_6detail21default_inner_productEE5bytesEv
FNDA:0,_ZNK5amgcl6solver6fgmresINS_7backend7builtinIdEENS0_6detail21default_inner_productEEclINS2_3crsIdllEENS_10relaxation17as_preconditionerIS4_NS_7runtime10relaxation7wrapperEEENS2_11numa_vectorIdEESI_EESt5tupleIJmdEERKT_RKT0_RKT1_RT2_
FNDA:0,_ZNK5amgcl6solver6fgmresINS_7backend7builtinIdEENS0_6detail21default_inner_productEEclINS2_3crsIdllEENS_14preconditioner25schur_pressure_correctionINS_11make_solverINS_10relaxation17as_preconditionerIS4_NS_7runtime10relaxation7wrapperEEENSG_6solver7wrapperIS4_S6_EEEENSD_INS_3amgIS4_NSG_10coarsening7wrapperESI_EESM_EEEEN5boost7numeric5ublas6vectorIdNSW_15unbounded_arrayIdSaIdEEEEES11_EESt5tupleIJmdEERKT_RKT0_RKT1_RT2_
FNDA:0,_ZNK5amgcl6solver6fgmresINS_7backend7builtinIdEENS0_6detail21default_inner_productEEclINS2_3crsIdllEENS_7runtime14preconditionerIS4_EEN5boost7numeric5ublas6vectorIdNSG_15unbounded_arrayIdSaIdEEEEESL_EESt5tupleIJmdEERKT_RKT0_RKT1_RT2_
FNDA:0,_ZNK5amgcl6solver6fgmresINS_7backend7builtinIdEENS0_6detail21default_inner_productEEclINS2_3crsIdllEENS_7runtime14preconditionerIS4_EENS2_11numa_vectorIdEESF_EESt5tupleIJmdEERKT_RKT0_RKT1_RT2_
FNDA:0,_ZNK5amgcl6solver6fgmresINS_7backend7builtinIdEENS0_6detail21default_inner_productEEclINS_14preconditioner25schur_pressure_correctionINS_11make_solverINS_10relaxation17as_preconditionerIS4_NS_7runtime10relaxation7wrapperEEENSE_6solver7wrapperIS4_S6_EEEENSB_INS_3amgIS4_NSE_10coarsening7wrapperESG_EESK_EEEESP_NS2_11numa_vectorIdEEST_EESt5tupleIJmdEERKT_RKT0_RKT1_RT2_
FNF:23
FNH:0
DA:82,0
DA:83,0
DA:84,0
DA:88,0
DA:89,0
DA:90,0
DA:91,0
DA:92,0
DA:94,0
DA:95,0
DA:107,0
DA:113,0
DA:114,0
DA:115,0
DA:116,0
DA:117,0
DA:119,0
DA:120,0
DA:121,0
DA:123,0
DA:124,0
DA:125,0
DA:126,0
DA:141,0
DA:149,0
DA:154,0
DA:158,0
DA:162,0
DA:167,0
DA:179,0
DA:181,0
DA:185,0
DA:186,0
DA:187,0
DA:189,0
DA:193,0
DA:194,0
DA:196,0
DA:197,0
DA:198,0
DA:200,0
DA:203,0
DA:204,0
DA:209,0
DA:210,0
DA:211,0
DA:212,0
DA:215,0
DA:218,0
DA:238,0
DA:241,0
DA:242,0
DA:243,0
DA:244,0
DA:245,0
DA:247,0
DA:248,0
DA:250,0
DA:273,0
LF:59
LH:0
end_of_record
TN:
SF:/root/Kratos/external_libraries/amgcl/solver/gmres.hpp
FN:94,_ZN5amgcl6solver5gmresINS_7backend7builtinINS_13static_matrixIdLi2ELi2EEEEENS0_6detail21default_inner_productEE6paramsC2ERKN5boost13property_tree11basic_ptreeINSt7__cxx1112basic_stringIcSt11char_traitsIcESaIcEEESJ_St4lessISJ_EEE
FN:94,_ZN5amgcl6solver5gmresINS_7backend7builtinINS_13static_matrixIdLi3ELi3EEEEENS0_6detail21default_inner_productEE6paramsC2ERKN5boost13property_tree11basic_ptreeINSt7__cxx1112basic_stringIcSt11char_traitsIcESaIcEEESJ_St4lessISJ_EEE
FN:94,_ZN5amgcl6solver5gmresINS_7backend7builtinINS_13static_matrixIdLi4ELi4EEEEENS0_6detail21default_inner_productEE6paramsC2ERKN5boost13property_tree11basic_ptreeINSt7__cxx1112basic_stringIcSt11char_traitsIcESaIcEEESJ_St4lessISJ_EEE
FN:94,_ZN5amgcl6solver5gmresINS_7backend7builtinIdEENS0_6detail21default_inner_productEE6paramsC2ERKN5boost13property_tree11basic_ptreeINSt7__cxx1112basic_stringIcSt11char_traitsIcESaIcEEESH_St4lessISH_EEE
FN:115,_ZN5amgcl6solver5gmresINS_7backend7builtinINS_13static_matrixIdLi2ELi2EEEEENS0_6detail21default_inner_productEEC2EmRKNS9_6paramsERKNS_6detail12empty_paramsERKS8_
FN:115,_ZN5amgcl6solver5gmresINS_7backend7builtinINS_13static_matrixIdLi3ELi3EEEEENS0_6detail21default_inner_productEEC2EmRKNS9_6paramsERKNS_6detail12empty_paramsERKS8_
FN:115,_ZN5amgcl6solver5gmresINS_7backend7builtinINS_13static_matrixIdLi4ELi4EEEEENS0_6detail21default_inner_productEEC2EmRKNS9_6paramsERKNS_6detail12empty_paramsERKS8_
FN:115,_ZN5amgcl6solver5gmresINS_7backend7builtinIdEENS0_6detail21default_inner_productEEC2EmRKNS7_6paramsERKNS_6detail12empty_paramsERKS6_
FN:145,_ZNK5amgcl6solver5gmresINS_7backend7builtinINS_13static_matrixIdLi2ELi2EEEEENS0_6detail21default_inner_productEEclINS2_3crsIS5_llEENS_7runtime14preconditionerIS6_EEN5boost14iterator_rangeIPKNS4_IdLi2ELi1EEEEENSH_IPSI_EEEESt5tupleIJmdEERKT_RKT0_RKT1_RT2_
FN:145,_ZNK5amgcl6solver5gmresINS_7backend7builtinINS_13static_matrixIdLi2ELi2EEEEENS0_6detail21default_inner_productEEclINS2_3crsIS5_llEENS_7runtime14preconditionerIS6_EENS2_11numa_vectorINS4_IdLi2ELi1EEEEESI_EESt5tupleIJmdEERKT_RKT0_RKT1_RT2_
FN:145,_ZNK5amgcl6solver5gmresINS_7backend7builtinINS_13static_matrixIdLi3ELi3EEEEENS0_6detail21default_inner_productEEclINS2_3crsIS5_llEENS_7runtime14preconditionerIS6_EEN5boost14iterator_rangeIPKNS4_IdLi3ELi1EEEEENSH_IPSI_EEEESt5tupleIJmdEERKT_RKT0_RKT1_RT2_
FN:145,_ZNK5amgcl6solver5gmresINS_7backend7builtinINS_13static_matrixIdLi3ELi3EEEEENS0_6detail21default_inner_productEEclINS2_3crsIS5_llEENS_7runtime14preconditionerIS6_EENS2_11numa_vectorINS4_IdLi3ELi1EEEEESI_EESt5tupleIJmdEERKT_RKT0_RKT1_RT2_
FN:145,_ZNK5amgcl6solver5gmresINS_7backend7builtinINS_13static_matrixIdLi4ELi4EEEEENS0_6detail21default_inner_productEEclINS2_3crsIS5_llEENS_7runtime14preconditionerIS6_EEN5boost14iterator_rangeIPKNS4_IdLi4ELi1EEEEENSH_IPSI_EEEESt5tupleIJmdEERKT_RKT0_RKT1_RT2_
FN:145,_ZNK5amgcl6solver5gmresINS_7backend7builtinINS_13static_matrixIdLi4ELi4EEEEENS0_6detail21default_inner_productEEclINS2_3crsIS5_llEENS_7runtime14preconditionerIS6_EENS2_11numa_vectorINS4_IdLi4ELi1EEEEESI_EESt5tupleIJmdEERKT_RKT0_RKT1_RT2_
FN:145,_ZNK5amgcl6solver5gmresINS_7backend7builtinIdEENS0_6detail21default_inner_productEEclINS2_3crsIdllEENS_10relaxation17as_preconditionerIS4_NS_7runtime10relaxation7wrapperEEENS2_11numa_vectorIdEESI_EESt5tupleIJmdEERKT_RKT0_RKT1_RT2_
FN:145,_ZNK5amgcl6solver5gmresINS_7backend7builtinIdEENS0_6detail21default_inner_productEEclINS2_3crsIdllEENS_14preconditioner25schur_pressure_correctionINS_11make_solverINS_10relaxation17as_preconditionerIS4_NS_7runtime10relaxation7wrapperEEENSG_6solver7wrapperIS4_S6_EEEENSD_INS_3amgIS4_NSG_10coarsening7wrapperESI_EESM_EEEEN5boost7numeric5ublas6vectorIdNSW_15unbounded_arrayIdSaIdEEEEES11_EESt5tupleIJmdEERKT_RKT0_RKT1_RT2_
FN:145,_ZNK5amgcl6solver5gmresINS_7backend7builtinIdEENS0_6detail21default_inner_productEEclINS2_3crsIdllEENS_7runtime14preconditionerIS4_EEN5boost7numeric5ublas6vectorIdNSG_15unbounded_arrayIdSaIdEEEEESL_EESt5tupleIJmdEERKT_RKT0_RKT1_RT2_
FN:145,_ZNK5amgcl6solver5gmresINS_7backend7builtinIdEENS0_6detail21default_inner_productEEclINS2_3crsIdllEENS_7runtime14preconditionerIS4_EENS2_11numa_vectorIdEESF_EESt5tupleIJmdEERKT_RKT0_RKT1_RT2_
FN:145,_ZNK5amgcl6solver5gmresINS_7backend7builtinIdEENS0_6detail21default_inner_productEEclINS_14preconditioner25schur_pressure_correctionINS_11make_solverINS_10relaxation17as_preconditionerIS4_NS_7runtime10relaxation7wrapperEEENSE_6solver7wrapperIS4_S6_EEEENSB_INS_3amgIS4_NSE_10coarsening7wrapperESG_EESK_EEEESP_NS2_11numa_vectorIdEEST_EESt5tupleIJmdEERKT_RKT0_RKT1_RT2_
FN:268,_ZNK5amgcl6solver5gmresINS_7backend7builtinINS_13static_matrixIdLi2ELi2EEEEENS0_6detail21default_inner_productEE5bytesEv
FN:268,_ZNK5amgcl6solver5gmresINS_7backend7builtinINS_13static_matrixIdLi3ELi3EEEEENS0_6detail21default_inner_productEE5bytesEv
FN:268,_ZNK5amgcl6solver5gmresINS_7backend7builtinINS_13static_matrixIdLi4ELi4EEEEENS0_6detail21default_inner_productEE5bytesEv
FN:268,_ZNK5amgcl6solver5gmresINS_7backend7builtinIdEENS0_6detail21default_inner_productEE5bytesEv
FNDA:0,_ZN5amgcl6solver5gmresINS_7backend7builtinINS_13static_matrixIdLi2ELi2EEEEENS0_6detail21default_inner_productEE6paramsC2ERKN5boost13property_tree11basic_ptreeINSt7__cxx1112basic_stringIcSt11char_traitsIcESaIcEEESJ_St4lessISJ_EEE
FNDA:0,_ZN5amgcl6solver5gmresINS_7backend7builtinINS_13static_matrixIdLi2ELi2EEEEENS0_6detail21default_inner_productEEC2EmRKNS9_6paramsERKNS_6detail12empty_paramsERKS8_
FNDA:0,_ZN5amgcl6solver5gmresINS_7backend7builtinINS_13static_matrixIdLi3ELi3EEEEENS0_6detail21default_inner_productEE6paramsC2ERKN5boost13property_tree11basic_ptreeINSt7__cxx1112basic_stringIcSt11char_traitsIcESaIcEEESJ_St4lessISJ_EEE
FNDA:0,_ZN5amgcl6solver5gmresINS_7backend7builtinINS_13static_matrixIdLi3ELi3EEEEENS0_6detail21default_inner_productEEC2EmRKNS9_6paramsERKNS_6detail12empty_paramsERKS8_
FNDA:0,_ZN5amgcl6solver5gmresINS_7backend7builtinINS_13static_matrixIdLi4ELi4EEEEENS0_6detail21default_inner_productEE6paramsC2ERKN5boost13property_tree11basic_ptreeINSt7__cxx1112basic_stringIcSt11char_traitsIcESaIcEEESJ_St4lessISJ_EEE
FNDA:0,_ZN5amgcl6solver5gmresINS_7backend7builtinINS_13static_matrixIdLi4ELi4EEEEENS0_6detail21default_inner_productEEC2EmRKNS9_6paramsERKNS_6detail12empty_paramsERKS8_
FNDA:0,_ZN5amgcl6solver5gmresINS_7backend7builtinIdEENS0_6detail21default_inner_productEE6paramsC2ERKN5boost13property_tree11basic_ptreeINSt7__cxx1112basic_stringIcSt11char_traitsIcESaIcEEESH_St4lessISH_EEE
FNDA:0,_ZN5amgcl6solver5gmresINS_7backend7builtinIdEENS0_6detail21default_inner_productEEC2EmRKNS7_6paramsERKNS_6detail12empty_paramsERKS6_
FNDA:0,_ZNK5amgcl6solver5gmresINS_7backend7builtinINS_13static_matrixIdLi2ELi2EEEEENS0_6detail21default_inner_productEE5bytesEv
FNDA:0,_ZNK5amgcl6solver5gmresINS_7backend7builtinINS_13static_matrixIdLi2ELi2EEEEENS0_6detail21default_inner_productEEclINS2_3crsIS5_llEENS_7runtime14preconditionerIS6_EEN5boost14iterator_rangeIPKNS4_IdLi2ELi1EEEEENSH_IPSI_EEEESt5tupleIJmdEERKT_RKT0_RKT1_RT2_
FNDA:0,_ZNK5amgcl6solver5gmresINS_7backend7builtinINS_13static_matrixIdLi2ELi2EEEEENS0_6detail21default_inner_productEEclINS2_3crsIS5_llEENS_7runtime14preconditionerIS6_EENS2_11numa_vectorINS4_IdLi2ELi1EEEEESI_EESt5tupleIJmdEERKT_RKT0_RKT1_RT2_
FNDA:0,_ZNK5amgcl6solver5gmresINS_7backend7builtinINS_13static_matrixIdLi3ELi3EEEEENS0_6detail21default_inner_productEE5bytesEv
FNDA:0,_ZNK5amgcl6solver5gmresINS_7backend7builtinINS_13static_matrixIdLi3ELi3EEEEENS0_6detail21default_inner_productEEclINS2_3crsIS5_llEENS_7runtime14preconditionerIS6_EEN5boost14iterator_rangeIPKNS4_IdLi3ELi1EEEEENSH_IPSI_EEEESt5tupleIJmdEERKT_RKT0_RKT1_RT2_
FNDA:0,_ZNK5amgcl6solver5gmresINS_7backend7builtinINS_13static_matrixIdLi3ELi3EEEEENS0_6detail21default_inner_productEEclINS2_3crsIS5_llEENS_7runtime14preconditionerIS6_EENS2_11numa_vectorINS4_IdLi3ELi1EEEEESI_EESt5tupleIJmdEERKT_RKT0_RKT1_RT2_
FNDA:0,_ZNK5amgcl6solver5gmresINS_7backend7builtinINS_13static_matrixIdLi4ELi4EEEEENS0_6detail21default_inner_productEE5bytesEv
FNDA:0,_ZNK5amgcl6solver5gmresINS_7backend7builtinINS_13static_matrixIdLi4ELi4EEEEENS0_6detail21default_inner_productEEclINS2_3crsIS5_llEENS_7runtime14preconditionerIS6_EEN5boost14iterator_rangeIPKNS4_IdLi4ELi1EEEEENSH_IPSI_EEEESt5tupleIJmdEERKT_RKT0_RKT1_RT2_
FNDA:0,_ZNK5amgcl6solver5gmresINS_7backend7builtinINS_13static_matrixIdLi4ELi4EEEEENS0_6detail21default_inner_productEEclINS2_3crsIS5_llEENS_7runtime14preconditionerIS6_EENS2_11numa_vectorINS4_IdLi4ELi1EEEEESI_EESt5tupleIJmdEERKT_RKT0_RKT1_RT2_
FNDA:0,_ZNK5amgcl6solver5gmresINS_7backend7builtinIdEENS0_6detail21default_inner_productEE5bytesEv
FNDA:0,_ZNK5amgcl6solver5gmresINS_7backend7builtinIdEENS0_6detail21default_inner_productEEclINS2_3crsIdllEENS_10relaxation17as_preconditionerIS4_NS_7runtime10relaxation7wrapperEEENS2_11numa_vectorIdEESI_EESt5tupleIJmdEERKT_RKT0_RKT1_RT2_
FNDA:0,_ZNK5amgcl6solver5gmresINS_7backend7builtinIdEENS0_6detail21default_inner_productEEclINS2_3crsIdllEENS_14preconditioner25schur_pressure_correctionINS_11make_solverINS_10relaxation17as_preconditionerIS4_NS_7runtime10relaxation7wrapperEEENSG_6solver7wrapperIS4_S6_EEEENSD_INS_3amgIS4_NSG_10coarsening7wrapperESI_EESM_EEEEN5boost7numeric5ublas6vectorIdNSW_15unbounded_arrayIdSaIdEEEEES11_EESt5tupleIJmdEERKT_RKT0_RKT1_RT2_
FNDA:0,_ZNK5amgcl6solver5gmresINS_7backend7builtinIdEENS0_6detail21default_inner_productEEclINS2_3crsIdllEENS_7runtime14preconditionerIS4_EEN5boost7numeric5ublas6vectorIdNSG_15unbounded_arrayIdSaIdEEEEESL_EESt5tupleIJmdEERKT_RKT0_RKT1_RT2_
FNDA:0,_ZNK5amgcl6solver5gmresINS_7backend7builtinIdEENS0_6detail21default_inner_productEEclINS2_3crsIdllEENS_7runtime14preconditionerIS4_EENS2_11numa_vectorIdEESF_EESt5tupleIJmdEERKT_RKT0_RKT1_RT2_
FNDA:0,_ZNK5amgcl6solver5gmresINS_7backend7builtinIdEENS0_6detail21default_inner_productEEclINS_14preconditioner25schur_pressure_correctionINS_11make_solverINS_10relaxation17as_preconditionerIS4_NS_7runtime10relaxation7wrapperEEENSE_6solver7wrapperIS4_S6_EEEENSB_INS_3amgIS4_NSE_10coarsening7wrapperESG_EESK_EEEESP_NS2_11numa_vectorIdEEST_EESt5tupleIJmdEERKT_RKT0_RKT1_RT2_
FNF:23
FNH:0
DA:87,0
DA:88,0
DA:89,0
DA:90,0
DA:94,0
DA:95,0
DA:96,0
DA:97,0
DA:98,0
DA:99,0
DA:101,0
DA:102,0
DA:115,0
DA:121,0
DA:122,0
DA:123,0
DA:124,0
DA:125,0
DA:127,0
DA:128,0
DA:129,0
DA:130,0
DA:145,0
DA:154,0
DA:155,0
DA:158,0
DA:163,0
DA:168,0
DA:170,0
DA:177,0
DA:180,0
DA:183,0
DA:191,0
DA:193,0
DA:195,0
DA:196,0
DA:197,0
DA:199,0
DA:201,0
DA:203,0
DA:204,0
DA:206,0
DA:207,0
DA:208,0
DA:210,0
DA:213,0
DA:214,0
DA:219,0
DA:220,0
DA:221,0
DA:222,0
DA:227,0
DA:229,0
DA:230,0
DA:233,0
DA:234,0
DA:238,0
DA:268,0
DA:271,0
DA:272,0
DA:273,0
DA:274,0
DA:275,0
DA:277,0
DA:279,0
DA:293,0
LF:66
LH:0
end_of_record
TN:
SF:/root/Kratos/external_libraries/amgcl/solver/idrs.hpp
FN:128,_ZN5amgcl6solver4idrsINS_7backend7builtinINS_13static_matrixIdLi2ELi2EEEEENS0_6detail21default_inner_productEE6paramsC2ERKN5boost13property_tree11basic_ptreeINSt7__cxx1112basic_stringIcSt11char_traitsIcESaIcEEESJ_St4lessISJ_EEE
FN:128,_ZN5amgcl6solver4idrsINS_7backend7builtinINS_13static_matrixIdLi3ELi3EEEEENS0_6detail21default_inner_productEE6paramsC2ERKN5boost13property_tree11basic_ptreeINSt7__cxx1112basic_stringIcSt11char_traitsIcESaIcEEESJ_St4lessISJ_EEE
FN:128,_ZN5amgcl6solver4idrsINS_7backend7builtinINS_13static_matrixIdLi4ELi4EEEEENS0_6detail21default_inner_productEE6paramsC2ERKN5boost13property_tree11basic_ptreeINSt7__cxx1112basic_stringIcSt11char_traitsIcESaIcEEESJ_St4lessISJ_EEE
FN:128,_ZN5amgcl6solver4idrsINS_7backend7builtinIdEENS0_6detail21default_inner_productEE6paramsC2ERKN5boost13property_tree11basic_ptreeINSt7__cxx1112basic_stringIcSt11char_traitsIcESaIcEEESH_St4lessISH_EEE
FN:153,_ZN5amgcl6solver4idrsINS_7backend7builtinINS_13static_matrixIdLi2ELi2EEEEENS0_6detail21default_inner_productEEC2EmRKNS9_6paramsERKNS_6detail12empty_paramsERKS8_
FN:153,_ZN5amgcl6solver4idrsINS_7backend7builtinINS_13static_matrixIdLi3ELi3EEEEENS0_6detail21default_inner_productEEC2EmRKNS9_6paramsERKNS_6detail12empty_paramsERKS8_
FN:153,_ZN5amgcl6solver4idrsINS_7backend7builtinINS_13static_matrixIdLi4ELi4EEEEENS0_6detail21default_inner_productEEC2EmRKNS9_6paramsERKNS_6detail12empty_paramsERKS8_
FN:153,_ZN5amgcl6solver4idrsINS_7backend7builtinIdEENS0_6detail21default_inner_productEEC2EmRKNS7_6paramsERKNS_6detail12empty_paramsERKS6_
FN:241,_ZNK5amgcl6solver4idrsINS_7backend7builtinINS_13static_matrixIdLi2ELi2EEEEENS0_6detail21default_inner_productEEclINS2_3crsIS5_llEENS_7runtime14preconditionerIS6_EEN5boost14iterator_rangeIPKNS4_IdLi2ELi1EEEEENSH_IPSI_EEEESt5tupleIJmdEERKT_RKT0_RKT1_RT2_
FN:241,_ZNK5amgcl6solver4idrsINS_7backend7builtinINS_13static_matrixIdLi2ELi2EEEEENS0_6detail21default_inner_productEEclINS2_3crsIS5_llEENS_7runtime14preconditionerIS6_EENS2_11numa_vectorINS4_IdLi2ELi1EEEEESI_EESt5tupleIJmdEERKT_RKT0_RKT1_RT2_
FN:241,_ZNK5amgcl6solver4idrsINS_7backend7builtinINS_13static_matrixIdLi3ELi3EEEEENS0_6detail21default_inner_productEEclINS2_3crsIS5_llEENS_7runtime14preconditionerIS6_EEN5boost14iterator_rangeIPKNS4_IdLi3ELi1EEEEENSH_IPSI_EEEESt5tupleIJmdEERKT_RKT0_RKT1_RT2_
FN:241,_ZNK5amgcl6solver4idrsINS_7backend7builtinINS_13static_matrixIdLi3ELi3EEEEENS0_6detail21default_inner_productEEclINS2_3crsIS5_llEENS_7runtime14preconditionerIS6_EENS2_11numa_vectorINS4_IdLi3ELi1EEEEESI_EESt5tupleIJmdEERKT_RKT0_RKT1_RT2_
FN:241,_ZNK5amgcl6solver4idrsINS_7backend7builtinINS_13static_matrixIdLi4ELi4EEEEENS0_6detail21default_inner_productEEclINS2_3crsIS5_llEENS_7runtime14preconditionerIS6_EEN5boost14iterator_rangeIPKNS4_IdLi4ELi1EEEEENSH_IPSI_EEEESt5tupleIJmdEERKT_RKT0_RKT1_RT2_
FN:241,_ZNK5amgcl6solver4idrsINS_7backend7builtinINS_13static_matrixIdLi4ELi4EEEEENS0_6detail21default_inner_productEEclINS2_3crsIS5_llEENS_7runtime14preconditionerIS6_EENS2_11numa_vectorINS4_IdLi4ELi1EEEEESI_EESt5tupleIJmdEERKT_RKT0_RKT1_RT2_
FN:241,_ZNK5amgcl6solver4idrsINS_7backend7builtinIdEENS0_6detail21default_inner_productEEclINS2_3crsIdllEENS_10relaxation17as_preconditionerIS4_NS_7runtime10relaxation7wrapperEEENS2_11numa_vectorIdEESI_EESt5tupleIJmdEERKT_RKT0_RKT1_RT2_
FN:241,_ZNK5amgcl6solver4idrsINS_7backend7builtinIdEENS0_6detail21default_inner_productEEclINS2_3crsIdllEENS_14preconditioner25schur_pressure_correctionINS_11make_solverINS_10relaxation17as_preconditionerIS4_NS_7runtime10relaxation7wrapperEEENSG_6solver7wrapperIS4_S6_EEEENSD_INS_3amgIS4_NSG_10coarsening7wrapperESI_EESM_EEEEN5boost7numeric5ublas6vectorIdNSW_15unbounded_arrayIdSaIdEEEEES11_EESt5tupleIJmdEERKT_RKT0_RKT1_RT2_
FN:241,_ZNK5amgcl6solver4idrsINS_7backend7builtinIdEENS0_6detail21default_inner_productEEclINS2_3crsIdllEENS_7runtime14preconditionerIS4_EEN5boost7numeric5ublas6vectorIdNSG_15unbounded_arrayIdSaIdEEEEESL_EESt5tupleIJmdEERKT_RKT0_RKT1_RT2_
FN:241,_ZNK5amgcl6solver4idrsINS_7backend7builtinIdEENS0_6detail21default_inner_productEEclINS2_3crsIdllEENS_7runtime14preconditionerIS4_EENS2_11numa_vectorIdEESF_EESt5tupleIJmdEERKT_RKT0_RKT1_RT2_
FN:241,_ZNK5amgcl6solver4idrsINS_7backend7builtinIdEENS0_6detail21default_inner_productEEclINS_14preconditioner25schur_pressure_correctionINS_11make_solverINS_10relaxation17as_preconditionerIS4_NS_7runtime10relaxation7wrapperEEENSE_6solver7wrapperIS4_S6_EEEENSB_INS_3amgIS4_NSE_10coarsening7wrapperESG_EESK_EEEESP_NS2_11numa_vectorIdEEST_EESt5tupleIJmdEERKT_RKT0_RKT1_RT2_
FN:421,_ZNK5amgcl6solver4idrsINS_7backend7builtinINS_13static_matrixIdLi2ELi2EEEEENS0_6detail21default_inner_productEE5bytesEv
FN:421,_ZNK5amgcl6solver4idrsINS_7backend7builtinINS_13static_matrixIdLi3ELi3EEEEENS0_6detail21default_inner_productEE5bytesEv
FN:421,_ZNK5amgcl6solver4idrsINS_7backend7builtinINS_13static_matrixIdLi4ELi4EEEEENS0_6detail21default_inner_productEE5bytesEv
FN:421,_ZNK5amgcl6solver4idrsINS_7backend7builtinIdEENS0_6detail21default_inner_productEE5bytesEv
FN:472,_ZNK5amgcl6solver4idrsINS_7backend7builtinINS_13static_matrixIdLi2ELi2EEEEENS0_6detail21default_inner_productEE5omegaINS2_11numa_vectorINS4_IdLi2ELi1EEEEESD_EEdRKT_RKT0_
FN:472,_ZNK5amgcl6solver4idrsINS_7backend7builtinINS_13static_matrixIdLi3ELi3EEEEENS0_6detail21default_inner_productEE5omegaINS2_11numa_vectorINS4_IdLi3ELi1EEEEESD_EEdRKT_RKT0_
FN:472,_ZNK5amgcl6solver4idrsINS_7backend7builtinINS_13static_matrixIdLi4ELi4EEEEENS0_6detail21default_inner_productEE5omegaINS2_11numa_vectorINS4_IdLi4ELi1EEEEESD_EEdRKT_RKT0_
FN:472,_ZNK5amgcl6solver4idrsINS_7backend7builtinIdEENS0_6detail21default_inner_productEE5omegaINS2_11numa_vectorIdEESA_EEdRKT_RKT0_
FNDA:0,_ZN5amgcl6solver4idrsINS_7backend7builtinINS_13static_matrixIdLi2ELi2EEEEENS0_6detail21default_inner_productEE6paramsC2ERKN5boost13property_tree11basic_ptreeINSt7__cxx1112basic_stringIcSt11char_traitsIcESaIcEEESJ_St4lessISJ_EEE
FNDA:0,_ZN5amgcl6solver4idrsINS_7backend7builtinINS_13static_matrixIdLi2ELi2EEEEENS0_6detail21default_inner_productEEC2EmRKNS9_6paramsERKNS_6detail12empty_paramsERKS8_
FNDA:0,_ZN5amgcl6solver4idrsINS_7backend7builtinINS_13static_matrixIdLi3ELi3EEEEENS0_6detail21default_inner_productEE6paramsC2ERKN5boost13property_tree11basic_ptreeINSt7__cxx1112basic_stringIcSt11char_traitsIcESaIcEEESJ_St4lessISJ_EEE
FNDA:0,_ZN5amgcl6solver4idrsINS_7backend7builtinINS_13static_matrixIdLi3ELi3EEEEENS0_6detail21default_inner_productEEC2EmRKNS9_6paramsERKNS_6detail12empty_paramsERKS8_
FNDA:0,_ZN5amgcl6solver4idrsINS_7backend7builtinINS_13static_matrixIdLi4ELi4EEEEENS0_6detail21default_inner_productEE6paramsC2ERKN5boost13property_tree11basic_ptreeINSt7__cxx1112basic_stringIcSt11char_traitsIcESaIcEEESJ_St4lessISJ_EEE
FNDA:0,_ZN5amgcl6solver4idrsINS_7backend7builtinINS_13static_matrixIdLi4ELi4EEEEENS0_6detail21default_inner_productEEC2EmRKNS9_6paramsERKNS_6detail12empty_paramsERKS8_
FNDA:0,_ZN5amgcl6solver4idrsINS_7backend7builtinIdEENS0_6detail21default_inner_productEE6paramsC2ERKN5boost13property_tree11basic_ptreeINSt7__cxx1112basic_stringIcSt11char_traitsIcESaIcEEESH_St4lessISH_EEE
FNDA:0,_ZN5amgcl6solver4idrsINS_7backend7builtinIdEENS0_6detail21default_inner_productEEC2EmRKNS7_6paramsERKNS_6detail12empty_paramsERKS6_
FNDA:0,_ZNK5amgcl6solver4idrsINS_7backend7builtinINS_13static_matrixIdLi2ELi2EEEEENS0_6detail21default_inner_productEE5bytesEv
FNDA:0,_ZNK5amgcl6solver4idrsINS_7backend7builtinINS_13static_matrixIdLi2ELi2EEEEENS0_6detail21default_inner_productEE5omegaINS2_11numa_vectorINS4_IdLi2ELi1EEEEESD_EEdRKT_RKT0_
FNDA:0,_ZNK5amgcl6solver4idrsINS_7backend7builtinINS_13static_matrixIdLi2ELi2EEEEENS0_6detail21default_inner_productEEclINS2_3crsIS5_llEENS_7runtime14preconditionerIS6_EEN5boost14iterator_rangeIPKNS4_IdLi2ELi1EEEEENSH_IPSI_EEEESt5tupleIJmdEERKT_RKT0_RKT1_RT2_
FNDA:0,_ZNK5amgcl6solver4idrsINS_7backend7builtinINS_13static_matrixIdLi2ELi2EEEEENS0_6detail21default_inner_productEEclINS2_3crsIS5_llEENS_7runtime14preconditionerIS6_EENS2_11numa_vectorINS4_IdLi2ELi1EEEEESI_EESt5tupleIJmdEERKT_RKT0_RKT1_RT2_
FNDA:0,_ZNK5amgcl6solver4idrsINS_7backend7builtinINS_13static_matrixIdLi3ELi3EEEEENS0_6detail21default_inner_productEE5bytesEv
FNDA:0,_ZNK5amgcl6solver4idrsINS_7backend7builtinINS_13static_matrixIdLi3ELi3EEEEENS0_6detail21default_inner_productEE5omegaINS2_11numa_vectorINS4_IdLi3ELi1EEEEESD_EEdRKT_RKT0_
FNDA:0,_ZNK5amgcl6solver4idrsINS_7backend7builtinINS_13static_matrixIdLi3ELi3EEEEENS0_6detail21default_inner_productEEclINS2_3crsIS5_llEENS_7runtime14preconditionerIS6_EEN5boost14iterator_rangeIPKNS4_IdLi3ELi1EEEEENSH_IPSI_EEEESt5tupleIJmdEERKT_RKT0_RKT1_RT2_
FNDA:0,_ZNK5amgcl6solver4idrsINS_7backend7builtinINS_13static_matrixIdLi3ELi3EEEEENS0_6detail21default_inner_productEEclINS2_3crsIS5_llEENS_7runtime14preconditionerIS6_EENS2_11numa_vectorINS4_IdLi3ELi1EEEEESI_EESt5tupleIJmdEERKT_RKT0_RKT1_RT2_
FNDA:0,_ZNK5amgcl6solver4idrsINS_7backend7builtinINS_13static_matrixIdLi4ELi4EEEEENS0_6detail21default_inner_productEE5bytesEv
FNDA:0,_ZNK5amgcl6solver4idrsINS_7backend7builtinINS_13static_matrixIdLi4ELi4EEEEENS0_6detail21default_inner_productEE5omegaINS2_11numa_vectorINS4_IdLi4ELi1EEEEESD_EEdRKT_RKT0_
FNDA:0,_ZNK5amgcl6solver4idrsINS_7backend7builtinINS_13static_matrixIdLi4ELi4EEEEENS0_6detail21default_inner_productEEclINS2_3crsIS5_llEENS_7runtime14preconditionerIS6_EEN5boost14iterator_rangeIPKNS4_IdLi4ELi1EEEEENSH_IPSI_EEEESt5tupleIJmdEERKT_RKT0_RKT1_RT2_
FNDA:0,_ZNK5amgcl6solver4idrsINS_7backend7builtinINS_13static_matrixIdLi4ELi4EEEEENS0_6detail21default_inner_productEEclINS2_3crsIS5_llEENS_7runtime14preconditionerIS6_EENS2_11numa_vectorINS4_IdLi4ELi1EEEEESI_EESt5tupleIJmdEERKT_RKT0_RKT1_RT2_
FNDA:0,_ZNK5amgcl6solver4idrsINS_7backend7builtinIdEENS0_6detail21default_inner_productEE5bytesEv
FNDA:0,_ZNK5amgcl6solver4idrsINS_7backend7builtinIdEENS0_6detail21default_inner_productEE5omegaINS2_11numa_vectorIdEESA_EEdRKT_RKT0_
FNDA:0,_ZNK5amgcl6solver4idrsINS_7backend7builtinIdEENS0_6detail21default_inner_productEEclINS2_3crsIdllEENS_10relaxation17as_preconditionerIS4_NS_7runtime10relaxation7wrapperEEENS2_11numa_vectorIdEESI_EESt5tupleIJmdEERKT_RKT0_RKT1_RT2_
FNDA:0,_ZNK5amgcl6solver4idrsINS_7backend7builtinIdEENS0_6detail21default_inner_productEEclINS2_3crsIdllEENS_14preconditioner25schur_pressure_correctionINS_11make_solverINS_10relaxation17as_preconditionerIS4_NS_7runtime10relaxation7wrapperEEENSG_6solver7wrapperIS4_S6_EEEENSD_INS_3amgIS4_NSG_10coarsening7wrapperESI_EESM_EEEEN5boost7numeric5ublas6vectorIdNSW_15unbounded_arrayIdSaIdEEEEES11_EESt5tupleIJmdEERKT_RKT0_RKT1_RT2_
FNDA:0,_ZNK5amgcl6solver4idrsINS_7backend7builtinIdEENS0_6detail21default_inner_productEEclINS2_3crsIdllEENS_7runtime14preconditionerIS4_EEN5boost7numeric5ublas6vectorIdNSG_15unbounded_arrayIdSaIdEEEEESL_EESt5tupleIJmdEERKT_RKT0_RKT1_RT2_
FNDA:0,_ZNK5amgcl6solver4idrsINS_7backend7builtinIdEENS0_6detail21default_inner_productEEclINS2_3crsIdllEENS_7runtime14preconditionerIS4_EENS2_11numa_vectorIdEESF_EESt5tupleIJmdEERKT_RKT0_RKT1_RT2_
FNDA:0,_ZNK5amgcl6solver4idrsINS_7backend7builtinIdEENS0_6detail21default_inner_productEEclINS_14preconditioner25schur_pressure_correctionINS_11make_solverINS_10relaxation17as_preconditionerIS4_NS_7runtime10relaxation7wrapperEEENSE_6solver7wrapperIS4_S6_EEEENSB_INS_3amgIS4_NSE_10coarsening7wrapperESG_EESK_EEEESP_NS2_11numa_vectorIdEEST_EESt5tupleIJmdEERKT_RKT0_RKT1_RT2_
FNF:27
FNH:0
DA:121,0
DA:122,0
DA:123,0
DA:124,0
DA:128,0
DA:129,0
DA:130,0
DA:131,0
DA:132,0
DA:133,0
DA:134,0
DA:135,0
DA:137,0
DA:138,0
DA:153,0
DA:159,0
DA:160,0
DA:161,0
DA:162,0
DA:163,0
DA:164,0
DA:166,0
DA:167,0
DA:169,0
DA:170,0
DA:171,0
DA:174,0
DA:175,0
DA:176,0
DA:177,0
DA:178,0
DA:182,0
DA:184,0
DA:192,0
DA:217,0
DA:218,0
DA:219,0
DA:220,0
DA:222,0
DA:223,0
DA:226,0
DA:241,0
DA:248,0
DA:249,0
DA:252,0
DA:257,0
DA:263,0
DA:265,0
DA:268,0
DA:276,0
DA:277,0
DA:280,0
DA:281,0
DA:284,0
DA:291,0
DA:293,0
DA:294,0
DA:296,0
DA:302,0
DA:303,0
DA:304,0
DA:305,0
DA:306,0
DA:308,0
DA:311,0
DA:314,0
DA:315,0
DA:316,0
DA:319,0
DA:322,0
DA:323,0
DA:325,0
DA:326,0
DA:330,0
DA:331,0
DA:333,0
DA:336,0
DA:337,0
DA:338,0
DA:342,0
DA:346,0
DA:347,0
DA:348,0
DA:349,0
DA:350,0
DA:354,0
DA:357,0
DA:358,0
DA:361,0
DA:366,0
DA:367,0
DA:370,0
DA:371,0
DA:373,0
DA:374,0
DA:377,0
DA:381,0
DA:387,0
DA:388,0
DA:389,0
DA:390,0
DA:391,0
DA:395,0
DA:398,0
DA:401,0
DA:421,0
DA:424,0
DA:426,0
DA:427,0
DA:429,0
DA:430,0
DA:431,0
DA:433,0
DA:434,0
DA:436,0
DA:437,0
DA:438,0
DA:440,0
DA:468,0
DA:472,0
DA:477,0
DA:478,0
DA:480,0
DA:481,0
DA:483,0
LF:125
LH:0
end_of_record
TN:
SF:/root/Kratos/external_libraries/amgcl/solver/lgmres.hpp
FN:147,_ZN5amgcl6solver6lgmresINS_7backend7builtinINS_13static_matrixIdLi2ELi2EEEEENS0_6detail21default_inner_productEE6paramsC2ERKN5boost13property_tree11basic_ptreeINSt7__cxx1112basic_stringIcSt11char_traitsIcESaIcEEESJ_St4lessISJ_EEE
FN:147,_ZN5amgcl6solver6lgmresINS_7backend7builtinINS_13static_matrixIdLi3ELi3EEEEENS0_6detail21default_inner_productEE6paramsC2ERKN5boost13property_tree11basic_ptreeINSt7__cxx1112basic_stringIcSt11char_traitsIcESaIcEEESJ_St4lessISJ_EEE
FN:147,_ZN5amgcl6solver6lgmresINS_7backend7builtinINS_13static_matrixIdLi4ELi4EEEEENS0_6detail21default_inner_productEE6paramsC2ERKN5boost13property_tree11basic_ptreeINSt7__cxx1112basic_stringIcSt11char_traitsIcESaIcEEESJ_St4lessISJ_EEE
FN:147,_ZN5amgcl6solver6lgmresINS_7backend7builtinIdEENS0_6detail21default_inner_productEE6paramsC2ERKN5boost13property_tree11basic_ptreeINSt7__cxx1112basic_stringIcSt11char_traitsIcESaIcEEESH_St4lessISH_EEE
FN:172,_ZN5amgcl6solver6lgmresINS_7backend7builtinINS_13static_matrixIdLi2ELi2EEEEENS0_6detail21default_inner_productEEC2EmRKNS9_6paramsERKNS_6detail12empty_paramsERKS8_
FN:172,_ZN5amgcl6solver6lgmresINS_7backend7builtinINS_13static_matrixIdLi3ELi3EEEEENS0_6detail21default_inner_productEEC2EmRKNS9_6paramsERKNS_6detail12empty_paramsERKS8_
FN:172,_ZN5amgcl6solver6lgmresINS_7backend7builtinINS_13static_matrixIdLi4ELi4EEEEENS0_6detail21default_inner_productEEC2EmRKNS9_6paramsERKNS_6detail12empty_paramsERKS8_
FN:172,_ZN5amgcl6solver6lgmresINS_7backend7builtinIdEENS0_6detail21default_inner_productEEC2EmRKNS7_6paramsERKNS_6detail12empty_paramsERKS6_
FN:208,_ZNK5amgcl6solver6lgmresINS_7backend7builtinINS_13static_matrixIdLi2ELi2EEEEENS0_6detail21default_inner_productEEclINS2_3crsIS5_llEENS_7runtime14preconditionerIS6_EEN5boost14iterator_rangeIPKNS4_IdLi2ELi1EEEEENSH_IPSI_EEEESt5tupleIJmdEERKT_RKT0_RKT1_RT2_
FN:208,_ZNK5amgcl6solver6lgmresINS_7backend7builtinINS_13static_matrixIdLi2ELi2EEEEENS0_6detail21default_inner_productEEclINS2_3crsIS5_llEENS_7runtime14preconditionerIS6_EENS2_11numa_vectorINS4_IdLi2ELi1EEEEESI_EESt5tupleIJmdEERKT_RKT0_RKT1_RT2_
FN:208,_ZNK5amgcl6solver6lgmresINS_7backend7builtinINS_13static_matrixIdLi3ELi3EEEEENS0_6detail21default_inner_productEEclINS2_3crsIS5_llEENS_7runtime14preconditionerIS6_EEN5boost14iterator_rangeIPKNS4_IdLi3ELi1EEEEENSH_IPSI_EEEESt5tupleIJmdEERKT_RKT0_RKT1_RT2_
FN:208,_ZNK5amgcl6solver6lgmresINS_7backend7builtinINS_13static_matrixIdLi3ELi3EEEEENS0_6detail21default_inner_productEEclINS2_3crsIS5_llEENS_7runtime14preconditionerIS6_EENS2_11numa_vectorINS4_IdLi3ELi1EEEEESI_EESt5tupleIJmdEERKT_RKT0_RKT1_RT2_
FN:208,_ZNK5amgcl6solver6lgmresINS_7backend7builtinINS_13static_matrixIdLi4ELi4EEEEENS0_6detail21default_inner_productEEclINS2_3crsIS5_llEENS_7runtime14preconditionerIS6_EEN5boost14iterator_rangeIPKNS4_IdLi4ELi1EEEEENSH_IPSI_EEEESt5tupleIJmdEERKT_RKT0_RKT1_RT2_
FN:208,_ZNK5amgcl6solver6lgmresINS_7backend7builtinINS_13static_matrixIdLi4ELi4EEEEENS0_6detail21default_inner_productEEclINS2_3crsIS5_llEENS_7runtime14preconditionerIS6_EENS2_11numa_vectorINS4_IdLi4ELi1EEEEESI_EESt5tupleIJmdEERKT_RKT0_RKT1_RT2_
FN:208,_ZNK5amgcl6solver6lgmresINS_7backend7builtinIdEENS0_6detail21default_inner_productEEclINS2_3crsIdllEENS_10relaxation17as_preconditionerIS4_NS_7runtime10relaxation7wrapperEEENS2_11numa_vectorIdEESI_EESt5tupleIJmdEERKT_RKT0_RKT1_RT2_
FN:208,_ZNK5amgcl6solver6lgmresINS_7backend7builtinIdEENS0_6detail21default_inner_productEEclINS2_3crsIdllEENS_14preconditioner25schur_pressure_correctionINS_11make_solverINS_10relaxation17as_preconditionerIS4_NS_7runtime10relaxation7wrapperEEENSG_6solver7wrapperIS4_S6_EEEENSD_INS_3amgIS4_NSG_10coarsening7wrapperESI_EESM_EEEEN5boost7numeric5ublas6vectorIdNSW_15unbounded_arrayIdSaIdEEEEES11_EESt5tupleIJmdEERKT_RKT0_RKT1_RT2_
FN:208,_ZNK5amgcl6solver6lgmresINS_7backend7builtinIdEENS0_6detail21default_inner_productEEclINS2_3crsIdllEENS_7runtime14preconditionerIS4_EEN5boost7numeric5ublas6vectorIdNSG_15unbounded_arrayIdSaIdEEEEESL_EESt5tupleIJmdEERKT_RKT0_RKT1_RT2_
FN:208,_ZNK5amgcl6solver6lgmresINS_7backend7builtinIdEENS0_6detail21default_inner_productEEclINS2_3crsIdllEENS_7runtime14preconditionerIS4_EENS2_11numa_vectorIdEESF_EESt5tupleIJmdEERKT_RKT0_RKT1_RT2_
FN:208,_ZNK5amgcl6solver6lgmresINS_7backend7builtinIdEENS0_6detail21default_inner_productEEclINS_14preconditioner25schur_pressure_correctionINS_11make_solverINS_10relaxation17as_preconditionerIS4_NS_7runtime10relaxation7wrapperEEENSE_6solver7wrapperIS4_S6_EEEENSB_INS_3amgIS4_NSE_10coarsening7wrapperESG_EESK_EEEESP_NS2_11numa_vectorIdEEST_EESt5tupleIJmdEERKT_RKT0_RKT1_RT2_
FN:372,_ZNK5amgcl6solver6lgmresINS_7backend7builtinINS_13static_matrixIdLi2ELi2EEEEENS0_6detail21default_inner_productEE5bytesEv
FN:372,_ZNK5amgcl6solver6lgmresINS_7backend7builtinINS_13static_matrixIdLi3ELi3EEEEENS0_6detail21default_inner_productEE5bytesEv
FN:372,_ZNK5amgcl6solver6lgmresINS_7backend7builtinINS_13static_matrixIdLi4ELi4EEEEENS0_6detail21default_inner_productEE5bytesEv
FN:372,_ZNK5amgcl6solver6lgmresINS_7backend7builtinIdEENS0_6detail21default_inner_productEE5bytesEv
FNDA:0,_ZN5amgcl6solver6lgmresINS_7backend7builtinINS_13static_matrixIdLi2ELi2EEEEENS0_6detail21default_inner_productEE6paramsC2ERKN5boost13property_tree11basic_ptreeINSt7__cxx1112basic_stringIcSt11char_traitsIcESaIcEEESJ_St4lessISJ_EEE
FNDA:0,_ZN5amgcl6solver6lgmresINS_7backend7builtinINS_13static_matrixIdLi2ELi2EEEEENS0_6detail21default_inner_productEEC2EmRKNS9_6paramsERKNS_6detail12empty_paramsERKS8_
FNDA:0,_ZN5amgcl6solver6lgmresINS_7backend7builtinINS_13static_matrixIdLi3ELi3EEEEENS0_6detail21default_inner_productEE6paramsC2ERKN5boost13property_tree11basic_ptreeINSt7__cxx1112basic_stringIcSt11char_traitsIcESaIcEEESJ_St4lessISJ_EEE
FNDA:0,_ZN5amgcl6solver6lgmresINS_7backend7builtinINS_13static_matrixIdLi3ELi3EEEEENS0_6detail21default_inner_productEEC2EmRKNS9_6paramsERKNS_6detail12empty_paramsERKS8_
FNDA:0,_ZN5amgcl6solver6lgmresINS_7backend7builtinINS_13static_matrixIdLi4ELi4EEEEENS0_6detail21default_inner_productEE6paramsC2ERKN5boost13property_tree11basic_ptreeINSt7__cxx1112basic_stringIcSt11char_traitsIcESaIcEEESJ_St4lessISJ_EEE
FNDA:0,_ZN5amgcl6solver6lgmresINS_7backend7builtinINS_13static_matrixIdLi4ELi4EEEEENS0_6detail21default_inner_productEEC2EmRKNS9_6paramsERKNS_6detail12empty_paramsERKS8_
FNDA:0,_ZN5amgcl6solver6lgmresINS_7backend7builtinIdEENS0_6detail21default_inner_productEE6paramsC2ERKN5boost13property_tree11basic_ptreeINSt7__cxx1112basic_stringIcSt11char_traitsIcESaIcEEESH_St4lessISH_EEE
FNDA:0,_ZN5amgcl6solver6lgmresINS_7backend7builtinIdEENS0_6detail21default_inner_productEEC2EmRKNS7_6paramsERKNS_6detail12empty_paramsERKS6_
FNDA:0,_ZNK5amgcl6solver6lgmresINS_7backend7builtinINS_13static_matrixIdLi2ELi2EEEEENS0_6detail21default_inner_productEE5bytesEv
FNDA:0,_ZNK5amgcl6solver6lgmresINS_7backend7builtinINS_13static_matrixIdLi2ELi2EEEEENS0_6detail21default_inner_productEEclINS2_3crsIS5_llEENS_7runtime14preconditionerIS6_EEN5boost14iterator_rangeIPKNS4_IdLi2ELi1EEEEENSH_IPSI_EEEESt5tupleIJmdEERKT_RKT0_RKT1_RT2_
FNDA:0,_ZNK5amgcl6solver6lgmresINS_7backend7builtinINS_13static_matrixIdLi2ELi2EEEEENS0_6detail21default_inner_productEEclINS2_3crsIS5_llEENS_7runtime14preconditionerIS6_EENS2_11numa_vectorINS4_IdLi2ELi1EEEEESI_EESt5tupleIJmdEERKT_RKT0_RKT1_RT2_
FNDA:0,_ZNK5amgcl6solver6lgmresINS_7backend7builtinINS_13static_matrixIdLi3ELi3EEEEENS0_6detail21default_inner_productEE5bytesEv
FNDA:0,_ZNK5amgcl6solver6lgmresINS_7backend7builtinINS_13static_matrixIdLi3ELi3EEEEENS0_6detail21default_inner_productEEclINS2_3crsIS5_llEENS_7runtime14preconditionerIS6_EEN5boost14iterator_rangeIPKNS4_IdLi3ELi1EEEEENSH_IPSI_EEEESt5tupleIJmdEERKT_RKT0_RKT1_RT2_
FNDA:0,_ZNK5amgcl6solver6lgmresINS_7backend7builtinINS_13static_matrixIdLi3ELi3EEEEENS0_6detail21default_inner_productEEclINS2_3crsIS5_llEENS_7runtime14preconditionerIS6_EENS2_11numa_vectorINS4_IdLi3ELi1EEEEESI_EESt5tupleIJmdEERKT_RKT0_RKT1_RT2_
FNDA:0,_ZNK5amgcl6solver6lgmresINS_7backend7builtinINS_13static_matrixIdLi4ELi4EEEEENS0_6detail21default_inner_productEE5bytesEv
FNDA:0,_ZNK5amgcl6solver6lgmresINS_7backend7builtinINS_13static_matrixIdLi4ELi4EEEEENS0_6detail21default_inner_productEEclINS2_3crsIS5_llEENS_7runtime14preconditionerIS6_EEN5boost14iterator_rangeIPKNS4_IdLi4ELi1EEEEENSH_IPSI_EEEESt5tupleIJmdEERKT_RKT0_RKT1_RT2_
FNDA:0,_ZNK5amgcl6solver6lgmresINS_7backend7builtinINS_13static_matrixIdLi4ELi4EEEEENS0_6detail21default_inner_productEEclINS2_3crsIS5_llEENS_7runtime14preconditionerIS6_EENS2_11numa_vectorINS4_IdLi4ELi1EEEEESI_EESt5tupleIJmdEERKT_RKT0_RKT1_RT2_
FNDA:0,_ZNK5amgcl6solver6lgmresINS_7backend7builtinIdEENS0_6detail21default_inner_productEE5bytesEv
FNDA:0,_ZNK5amgcl6solver6lgmresINS_7backend7builtinIdEENS0_6detail21default_inner_productEEclINS2_3crsIdllEENS_10relaxation17as_preconditionerIS4_NS_7runtime10relaxation7wrapperEEENS2_11numa_vectorIdEESI_EESt5tupleIJmdEERKT_RKT0_RKT1_RT2_
FNDA:0,_ZNK5amgcl6solver6lgmresINS_7backend7builtinIdEENS0_6detail21default_inner_productEEclINS2_3crsIdllEENS_14preconditioner25schur_pressure_correctionINS_11make_solverINS_10relaxation17as_preconditionerIS4_NS_7runtime10relaxation7wrapperEEENSG_6solver7wrapperIS4_S6_EEEENSD_INS_3amgIS4_NSG_10coarsening7wrapperESI_EESM_EEEEN5boost7numeric5ublas6vectorIdNSW_15unbounded_arrayIdSaIdEEEEES11_EESt5tupleIJmdEERKT_RKT0_RKT1_RT2_
FNDA:0,_ZNK5amgcl6solver6lgmresINS_7backend7builtinIdEENS0_6detail21default_inner_productEEclINS2_3crsIdllEENS_7runtime14preconditionerIS4_EEN5boost7numeric5ublas6vectorIdNSG_15unbounded_arrayIdSaIdEEEEESL_EESt5tupleIJmdEERKT_RKT0_RKT1_RT2_
FNDA:0,_ZNK5amgcl6solver6lgmresINS_7backend7builtinIdEENS0_6detail21default_inner_productEEclINS2_3crsIdllEENS_7runtime14preconditionerIS4_EENS2_11numa_vectorIdEESF_EESt5tupleIJmdEERKT_RKT0_RKT1_RT2_
FNDA:0,_ZNK5amgcl6solver6lgmresINS_7backend7builtinIdEENS0_6detail21default_inner_productEEclINS_14preconditioner25schur_pressure_correctionINS_11make_solverINS_10relaxation17as_preconditionerIS4_NS_7runtime10relaxation7wrapperEEENSE_6solver7wrapperIS4_S6_EEEENSB_INS_3amgIS4_NSE_10coarsening7wrapperESG_EESK_EEEESP_NS2_11numa_vectorIdEEST_EESt5tupleIJmdEERKT_RKT0_RKT1_RT2_
FNF:23
FNH:0
DA:140,0
DA:141,0
DA:142,0
DA:143,0
DA:147,0
DA:148,0
DA:149,0
DA:150,0
DA:151,0
DA:152,0
DA:153,0
DA:154,0
DA:156,0
DA:157,0
DA:172,0
DA:178,0
DA:179,0
DA:180,0
DA:181,0
DA:182,0
DA:183,0
DA:184,0
DA:186,0
DA:187,0
DA:188,0
DA:190,0
DA:191,0
DA:192,0
DA:193,0
DA:208,0
DA:217,0
DA:218,0
DA:220,0
DA:225,0
DA:231,0
DA:235,0
DA:237,0
DA:244,0
DA:247,0
DA:250,0
DA:284,0
DA:286,0
DA:287,0
DA:288,0
DA:295,0
DA:297,0
DA:298,0
DA:299,0
DA:301,0
DA:303,0
DA:305,0
DA:306,0
DA:308,0
DA:309,0
DA:310,0
DA:312,0
DA:315,0
DA:316,0
DA:321,0
DA:322,0
DA:323,0
DA:324,0
DA:328,0
DA:331,0
DA:332,0
DA:335,0
DA:336,0
DA:342,0
DA:343,0
DA:344,0
DA:347,0
DA:348,0
DA:352,0
DA:372,0
DA:375,0
DA:376,0
DA:378,0
DA:379,0
DA:380,0
DA:382,0
DA:384,0
DA:386,0
DA:388,0
DA:414,0
LF:84
LH:0
end_of_record
TN:
SF:/root/Kratos/external_libraries/amgcl/solver/precond_side.hpp
FN:59,_ZN5amgcl14preconditioner4sidersERSiRNS1_4typeE
FN:78,_ZN5amgcl14preconditioner4spmvINS0_25schur_pressure_correctionINS_11make_solverINS_10relaxation17as_preconditionerINS_7backend7builtinIdEENS_7runtime10relaxation7wrapperEEENS9_6solver7wrapperIS8_NS_6solver6detail21default_inner_productEEEEENS3_INS_3amgIS8_NS9_10coarsening7wrapperESB_EESI_EEEENS6_3crsIdllEENS6_11numa_vectorIdEEST_ST_EEvNS0_4side4typeERKT_RKT0_RKT1_RT2_RT3_
FN:78,_ZN5amgcl14preconditioner4spmvINS_10relaxation17as_preconditionerINS_7backend7builtinIdEENS_7runtime10relaxation7wrapperEEENS4_3crsIdllEENS4_11numa_vectorIdEESE_SE_EEvNS0_4side4typeERKT_RKT0_RKT1_RT2_RT3_
FN:78,_ZN5amgcl14preconditioner4spmvINS_3amgINS_7backend7builtinIdEENS_7runtime10coarsening7wrapperENS6_10relaxation7wrapperEEENS0_25schur_pressure_correctionINS_11make_solverINS_10relaxation17as_preconditionerIS5_SA_EENS6_6solver7wrapperIS5_NS_6solver6detail21default_inner_productEEEEENSD_ISB_SM_EEEENS3_11numa_vectorIdEESR_SR_EEvNS0_4side4typeERKT_RKT0_RKT1_RT2_RT3_
FN:78,_ZN5amgcl14preconditioner4spmvINS_7runtime14preconditionerINS_7backend7builtinINS_13static_matrixIdLi2ELi2EEEEEEENS4_3crsIS7_llEENS4_11numa_vectorINS6_IdLi2ELi1EEEEESE_SE_EEvNS0_4side4typeERKT_RKT0_RKT1_RT2_RT3_
FN:78,_ZN5amgcl14preconditioner4spmvINS_7runtime14preconditionerINS_7backend7builtinINS_13static_matrixIdLi3ELi3EEEEEEENS4_3crsIS7_llEENS4_11numa_vectorINS6_IdLi3ELi1EEEEESE_SE_EEvNS0_4side4typeERKT_RKT0_RKT1_RT2_RT3_
FN:78,_ZN5amgcl14preconditioner4spmvINS_7runtime14preconditionerINS_7backend7builtinINS_13static_matrixIdLi4ELi4EEEEEEENS4_3crsIS7_llEENS4_11numa_vectorINS6_IdLi4ELi1EEEEESE_SE_EEvNS0_4side4typeERKT_RKT0_RKT1_RT2_RT3_
FN:78,_ZN5amgcl14preconditioner4spmvINS_7runtime14preconditionerINS_7backend7builtinIdEEEENS4_3crsIdllEENS4_11numa_vectorIdEESB_SB_EEvNS0_4side4typeERKT_RKT0_RKT1_RT2_RT3_
FNDA:0,_ZN5amgcl14preconditioner4sidersERSiRNS1_4typeE
FNDA:0,_ZN5amgcl14preconditioner4spmvINS0_25schur_pressure_correctionINS_11make_solverINS_10relaxation17as_preconditionerINS_7backend7builtinIdEENS_7runtime10relaxation7wrapperEEENS9_6solver7wrapperIS8_NS_6solver6detail21default_inner_productEEEEENS3_INS_3amgIS8_NS9_10coarsening7wrapperESB_EESI_EEEENS6_3crsIdllEENS6_11numa_vectorIdEEST_ST_EEvNS0_4side4typeERKT_RKT0_RKT1_RT2_RT3_
FNDA:0,_ZN5amgcl14preconditioner4spmvINS_10relaxation17as_preconditionerINS_7backend7builtinIdEENS_7runtime10relaxation7wrapperEEENS4_3crsIdllEENS4_11numa_vectorIdEESE_SE_EEvNS0_4side4typeERKT_RKT0_RKT1_RT2_RT3_
FNDA:0,_ZN5amgcl14preconditioner4spmvINS_3amgINS_7backend7builtinIdEENS_7runtime10coarsening7wrapperENS6_10relaxation7wrapperEEENS0_25schur_pressure_correctionINS_11make_solverINS_10relaxation17as_preconditionerIS5_SA_EENS6_6solver7wrapperIS5_NS_6solver6detail21default_inner_productEEEEENSD_ISB_SM_EEEENS3_11numa_vectorIdEESR_SR_EEvNS0_4side4typeERKT_RKT0_RKT1_RT2_RT3_
FNDA:0,_ZN5amgcl14preconditioner4spmvINS_7runtime14preconditionerINS_7backend7builtinINS_13static_matrixIdLi2ELi2EEEEEEENS4_3crsIS7_llEENS4_11numa_vectorINS6_IdLi2ELi1EEEEESE_SE_EEvNS0_4side4typeERKT_RKT0_RKT1_RT2_RT3_
FNDA:0,_ZN5amgcl14preconditioner4spmvINS_7runtime14preconditionerINS_7backend7builtinINS_13static_matrixIdLi3ELi3EEEEEEENS4_3crsIS7_llEENS4_11numa_vectorINS6_IdLi3ELi1EEEEESE_SE_EEvNS0_4side4typeERKT_RKT0_RKT1_RT2_RT3_
FNDA:0,_ZN5amgcl14preconditioner4spmvINS_7runtime14preconditionerINS_7backend7builtinINS_13static_matrixIdLi4ELi4EEEEEEENS4_3crsIS7_llEENS4_11numa_vectorINS6_IdLi4ELi1EEEEESE_SE_EEvNS0_4side4typeERKT_RKT0_RKT1_RT2_RT3_
FNDA:0,_ZN5amgcl14preconditioner4spmvINS_7runtime14preconditionerINS_7backend7builtinIdEEEENS4_3crsIdllEENS4_11numa_vectorIdEESB_SB_EEvNS0_4side4typeERKT_RKT0_RKT1_RT2_RT3_
FNF:8
FNH:0
DA:59,0
DA:61,0
DA:63,0
DA:64,0
DA:65,0
DA:66,0
DA:68,0
DA:69,0
DA:71,0
DA:78,0
DA:84,0
DA:85,0
DA:87,0
DA:88,0
DA:89,0
DA:91,0
DA:92,0
DA:94,0
LF:18
LH:0
end_of_record
TN:
SF:/root/Kratos/external_libraries/amgcl/solver/runtime.hpp
FN:90,_ZN5amgcl7runtime6solverrsERSiRNS1_4typeE
FN:130,_ZN5amgcl7runtime6solver7wrapperINS_7backend7builtinINS_13static_matrixIdLi2ELi2EEEEENS_6solver6detail21default_inner_productEEC2EmN5boost13property_tree11basic_ptreeINSt7__cxx1112basic_stringIcSt11char_traitsIcESaIcEEESK_St4lessISK_EEERKNS_6detail12empty_paramsERKSA_
FN:130,_ZN5amgcl7runtime6solver7wrapperINS_7backend7builtinINS_13static_matrixIdLi3ELi3EEEEENS_6solver6detail21default_inner_productEEC2EmN5boost13property_tree11basic_ptreeINSt7__cxx1112basic_stringIcSt11char_traitsIcESaIcEEESK_St4lessISK_EEERKNS_6detail12empty_paramsERKSA_
FN:130,_ZN5amgcl7runtime6solver7wrapperINS_7backend7builtinINS_13static_matrixIdLi4ELi4EEEEENS_6solver6detail21default_inner_productEEC2EmN5boost13property_tree11basic_ptreeINSt7__cxx1112basic_stringIcSt11char_traitsIcESaIcEEESK_St4lessISK_EEERKNS_6detail12empty_paramsERKSA_
FN:130,_ZN5amgcl7runtime6solver7wrapperINS_7backend7builtinIdEENS_6solver6detail21default_inner_productEEC2EmN5boost13property_tree11basic_ptreeINSt7__cxx1112basic_stringIcSt11char_traitsIcESaIcEEESI_St4lessISI_EEERKNS_6detail12empty_paramsERKS8_
FN:160,_ZN5amgcl7runtime6solver7wrapperINS_7backend7builtinINS_13static_matrixIdLi2ELi2EEEEENS_6solver6detail21default_inner_productEED2Ev
FN:160,_ZN5amgcl7runtime6solver7wrapperINS_7backend7builtinINS_13static_matrixIdLi3ELi3EEEEENS_6solver6detail21default_inner_productEED2Ev
FN:160,_ZN5amgcl7runtime6solver7wrapperINS_7backend7builtinINS_13static_matrixIdLi4ELi4EEEEENS_6solver6detail21default_inner_productEED2Ev
FN:160,_ZN5amgcl7runtime6solver7wrapperINS_7backend7builtinIdEENS_6solver6detail21default_inner_productEED2Ev
FN:181,_ZNK5amgcl7runtime6solver7wrapperINS_7backend7builtinINS_13static_matrixIdLi2ELi2EEEEENS_6solver6detail21default_inner_productEEclINS3_3crsIS6_llEENS0_14preconditionerIS7_EEN5boost14iterator_rangeIPKNS5_IdLi2ELi1EEEEERNSI_IPSJ_EEEESt5tupleIJmdEERKT_RKT0_RKT1_OT2_
FN:181,_ZNK5amgcl7runtime6solver7wrapperINS_7backend7builtinINS_13static_matrixIdLi2ELi2EEEEENS_6solver6detail21default_inner_productEEclINS3_3crsIS6_llEENS0_14preconditionerIS7_EENS3_11numa_vectorINS5_IdLi2ELi1EEEEERSJ_EESt5tupleIJmdEERKT_RKT0_RKT1_OT2_
FN:181,_ZNK5amgcl7runtime6solver7wrapperINS_7backend7builtinINS_13static_matrixIdLi3ELi3EEEEENS_6solver6detail21default_inner_productEEclINS3_3crsIS6_llEENS0_14preconditionerIS7_EEN5boost14iterator_rangeIPKNS5_IdLi3ELi1EEEEERNSI_IPSJ_EEEESt5tupleIJmdEERKT_RKT0_RKT1_OT2_
FN:181,_ZNK5amgcl7runtime6solver7wrapperINS_7backend7builtinINS_13static_matrixIdLi3ELi3EEEEENS_6solver6detail21default_inner_productEEclINS3_3crsIS6_llEENS0_14preconditionerIS7_EENS3_11numa_vectorINS5_IdLi3ELi1EEEEERSJ_EESt5tupleIJmdEERKT_RKT0_RKT1_OT2_
FN:181,_ZNK5amgcl7runtime6solver7wrapperINS_7backend7builtinINS_13static_matrixIdLi4ELi4EEEEENS_6solver6detail21default_inner_productEEclINS3_3crsIS6_llEENS0_14preconditionerIS7_EEN5boost14iterator_rangeIPKNS5_IdLi4ELi1EEEEERNSI_IPSJ_EEEESt5tupleIJmdEERKT_RKT0_RKT1_OT2_
FN:181,_ZNK5amgcl7runtime6solver7wrapperINS_7backend7builtinINS_13static_matrixIdLi4ELi4EEEEENS_6solver6detail21default_inner_productEEclINS3_3crsIS6_llEENS0_14preconditionerIS7_EENS3_11numa_vectorINS5_IdLi4ELi1EEEEERSJ_EESt5tupleIJmdEERKT_RKT0_RKT1_OT2_
FN:181,_ZNK5amgcl7runtime6solver7wrapperINS_7backend7builtinIdEENS_6solver6detail21default_inner_productEEclINS3_3crsIdllEENS0_14preconditionerIS5_EEN5boost7numeric5ublas6vectorIdNSH_15unbounded_arrayIdSaIdEEEEERSM_EESt5tupleIJmdEERKT_RKT0_RKT1_OT2_
FN:181,_ZNK5amgcl7runtime6solver7wrapperINS_7backend7builtinIdEENS_6solver6detail21default_inner_productEEclINS3_3crsIdllEENS0_14preconditionerIS5_EENS3_11numa_vectorIdEERSG_EESt5tupleIJmdEERKT_RKT0_RKT1_OT2_
FN:181,_ZNK5amgcl7runtime6solver7wrapperINS_7backend7builtinIdEENS_6solver6detail21default_inner_productEEclINS3_3crsIdllEENS_10relaxation17as_preconditionerIS5_NS0_10relaxation7wrapperEEENS3_11numa_vectorIdEERSJ_EESt5tupleIJmdEERKT_RKT0_RKT1_OT2_
FN:181,_ZNK5amgcl7runtime6solver7wrapperINS_7backend7builtinIdEENS_6solver6detail21default_inner_productEEclINS3_3crsIdllEENS_14preconditioner25schur_pressure_correctionINS_11make_solverINS_10relaxation17as_preconditionerIS5_NS0_10relaxation7wrapperEEES9_EENSF_INS_3amgIS5_NS0_10coarsening7wrapperESJ_EES9_EEEEN5boost7numeric5ublas6vectorIdNSU_15unbounded_arrayIdSaIdEEEEERSZ_EESt5tupleIJmdEERKT_RKT0_RKT1_OT2_
FN:181,_ZNK5amgcl7runtime6solver7wrapperINS_7backend7builtinIdEENS_6solver6detail21default_inner_productEEclINS_14preconditioner25schur_pressure_correctionINS_11make_solverINS_10relaxation17as_preconditionerIS5_NS0_10relaxation7wrapperEEES9_EENSD_INS_3amgIS5_NS0_10coarsening7wrapperESH_EES9_EEEESN_NS3_11numa_vectorIdEERSR_EESt5tupleIJmdEERKT_RKT0_RKT1_OT2_
FN:234,_ZNK5amgcl7runtime6solver7wrapperINS_7backend7builtinINS_13static_matrixIdLi2ELi2EEEEENS_6solver6detail21default_inner_productEE5bytesEv
FN:234,_ZNK5amgcl7runtime6solver7wrapperINS_7backend7builtinINS_13static_matrixIdLi3ELi3EEEEENS_6solver6detail21default_inner_productEE5bytesEv
FN:234,_ZNK5amgcl7runtime6solver7wrapperINS_7backend7builtinINS_13static_matrixIdLi4ELi4EEEEENS_6solver6detail21default_inner_productEE5bytesEv
FN:234,_ZNK5amgcl7runtime6solver7wrapperINS_7backend7builtinIdEENS_6solver6detail21default_inner_productEE5bytesEv
FNDA:0,_ZN5amgcl7runtime6solver7wrapperINS_7backend7builtinINS_13static_matrixIdLi2ELi2EEEEENS_6solver6detail21default_inner_productEEC2EmN5boost13property_tree11basic_ptreeINSt7__cxx1112basic_stringIcSt11char_traitsIcESaIcEEESK_St4lessISK_EEERKNS_6detail12empty_paramsERKSA_
FNDA:0,_ZN5amgcl7runtime6solver7wrapperINS_7backend7builtinINS_13static_matrixIdLi2ELi2EEEEENS_6solver6detail21default_inner_productEED2Ev
FNDA:0,_ZN5amgcl7runtime6solver7wrapperINS_7backend7builtinINS_13static_matrixIdLi3ELi3EEEEENS_6solver6detail21default_inner_productEEC2EmN5boost13property_tree11basic_ptreeINSt7__cxx1112basic_stringIcSt11char_traitsIcESaIcEEESK_St4lessISK_EEERKNS_6detail12empty_paramsERKSA_
FNDA:0,_ZN5amgcl7runtime6solver7wrapperINS_7backend7builtinINS_13static_matrixIdLi3ELi3EEEEENS_6solver6detail21default_inner_productEED2Ev
FNDA:0,_ZN5amgcl7runtime6solver7wrapperINS_7backend7builtinINS_13static_matrixIdLi4ELi4EEEEENS_6solver6detail21default_inner_productEEC2EmN5boost13property_tree11basic_ptreeINSt7__cxx1112basic_stringIcSt11char_traitsIcESaIcEEESK_St4lessISK_EEERKNS_6detail12empty_paramsERKSA_
FNDA:0,_ZN5amgcl7runtime6solver7wrapperINS_7backend7builtinINS_13static_matrixIdLi4ELi4EEEEENS_6solver6detail21default_inner_productEED2Ev
FNDA:0,_ZN5amgcl7runtime6solver7wrapperINS_7backend7builtinIdEENS_6solver6detail21default_inner_productEEC2EmN5boost13property_tree11basic_ptreeINSt7__cxx1112basic_stringIcSt11char_traitsIcESaIcEEESI_St4lessISI_EEERKNS_6detail12empty_paramsERKS8_
FNDA:0,_ZN5amgcl7runtime6solver7wrapperINS_7backend7builtinIdEENS_6solver6detail21default_inner_productEED2Ev
FNDA:0,_ZN5amgcl7runtime6solverrsERSiRNS1_4typeE
FNDA:0,_ZNK5amgcl7runtime6solver7wrapperINS_7backend7builtinINS_13static_matrixIdLi2ELi2EEEEENS_6solver6detail21default_inner_productEE5bytesEv
FNDA:0,_ZNK5amgcl7runtime6solver7wrapperINS_7backend7builtinINS_13static_matrixIdLi2ELi2EEEEENS_6solver6detail21default_inner_productEEclINS3_3crsIS6_llEENS0_14preconditionerIS7_EEN5boost14iterator_rangeIPKNS5_IdLi2ELi1EEEEERNSI_IPSJ_EEEESt5tupleIJmdEERKT_RKT0_RKT1_OT2_
FNDA:0,_ZNK5amgcl7runtime6solver7wrapperINS_7backend7builtinINS_13static_matrixIdLi2ELi2EEEEENS_6solver6detail21default_inner_productEEclINS3_3crsIS6_llEENS0_14preconditionerIS7_EENS3_11numa_vectorINS5_IdLi2ELi1EEEEERSJ_EESt5tupleIJmdEERKT_RKT0_RKT1_OT2_
FNDA:0,_ZNK5amgcl7runtime6solver7wrapperINS_7backend7builtinINS_13static_matrixIdLi3ELi3EEEEENS_6solver6detail21default_inner_productEE5bytesEv
FNDA:0,_ZNK5amgcl7runtime6solver7wrapperINS_7backend7builtinINS_13static_matrixIdLi3ELi3EEEEENS_6solver6detail21default_inner_productEEclINS3_3crsIS6_llEENS0_14preconditionerIS7_EEN5boost14iterator_rangeIPKNS5_IdLi3ELi1EEEEERNSI_IPSJ_EEEESt5tupleIJmdEERKT_RKT0_RKT1_OT2_
FNDA:0,_ZNK5amgcl7runtime6solver7wrapperINS_7backend7builtinINS_13static_matrixIdLi3ELi3EEEEENS_6solver6detail21default_inner_productEEclINS3_3crsIS6_llEENS0_14preconditionerIS7_EENS3_11numa_vectorINS5_IdLi3ELi1EEEEERSJ_EESt5tupleIJmdEERKT_RKT0_RKT1_OT2_
FNDA:0,_ZNK5amgcl7runtime6solver7wrapperINS_7backend7builtinINS_13static_matrixIdLi4ELi4EEEEENS_6solver6detail21default_inner_productEE5bytesEv
FNDA:0,_ZNK5amgcl7runtime6solver7wrapperINS_7backend7builtinINS_13static_matrixIdLi4ELi4EEEEENS_6solver6detail21default_inner_productEEclINS3_3crsIS6_llEENS0_14preconditionerIS7_EEN5boost14iterator_rangeIPKNS5_IdLi4ELi1EEEEERNSI_IPSJ_EEEESt5tupleIJmdEERKT_RKT0_RKT1_OT2_
FNDA:0,_ZNK5amgcl7runtime6solver7wrapperINS_7backend7builtinINS_13static_matrixIdLi4ELi4EEEEENS_6solver6detail21default_inner_productEEclINS3_3crsIS6_llEENS0_14preconditionerIS7_EENS3_11numa_vectorINS5_IdLi4ELi1EEEEERSJ_EESt5tupleIJmdEERKT_RKT0_RKT1_OT2_
FNDA:0,_ZNK5amgcl7runtime6solver7wrapperINS_7backend7builtinIdEENS_6solver6detail21default_inner_productEE5bytesEv
FNDA:0,_ZNK5amgcl7runtime6solver7wrapperINS_7backend7builtinIdEENS_6solver6detail21default_inner_productEEclINS3_3crsIdllEENS0_14preconditionerIS5_EEN5boost7numeric5ublas6vectorIdNSH_15unbounded_arrayIdSaIdEEEEERSM_EESt5tupleIJmdEERKT_RKT0_RKT1_OT2_
FNDA:0,_ZNK5amgcl7runtime6solver7wrapperINS_7backend7builtinIdEENS_6solver6detail21default_inner_productEEclINS3_3crsIdllEENS0_14preconditionerIS5_EENS3_11numa_vectorIdEERSG_EESt5tupleIJmdEERKT_RKT0_RKT1_OT2_
FNDA:0,_ZNK5amgcl7runtime6solver7wrapperINS_7backend7builtinIdEENS_6solver6detail21default_inner_productEEclINS3_3crsIdllEENS_10relaxation17as_preconditionerIS5_NS0_10relaxation7wrapperEEENS3_11numa_vectorIdEERSJ_EESt5tupleIJmdEERKT_RKT0_RKT1_OT2_
FNDA:0,_ZNK5amgcl7runtime6solver7wrapperINS_7backend7builtinIdEENS_6solver6detail21default_inner_productEEclINS3_3crsIdllEENS_14preconditioner25schur_pressure_correctionINS_11make_solverINS_10relaxation17as_preconditionerIS5_NS0_10relaxation7wrapperEEES9_EENSF_INS_3amgIS5_NS0_10coarsening7wrapperESJ_EES9_EEEEN5boost7numeric5ublas6vectorIdNSU_15unbounded_arrayIdSaIdEEEEERSZ_EESt5tupleIJmdEERKT_RKT0_RKT1_OT2_
FNDA:0,_ZNK5amgcl7runtime6solver7wrapperINS_7backend7builtinIdEENS_6solver6detail21default_inner_productEEclINS_14preconditioner25schur_pressure_correctionINS_11make_solverINS_10relaxation17as_preconditionerIS5_NS0_10relaxation7wrapperEEES9_EENSD_INS_3amgIS5_NS0_10coarsening7wrapperESH_EES9_EEEESN_NS3_11numa_vectorIdEERSR_EESt5tupleIJmdEERKT_RKT0_RKT1_OT2_
FNF:24
FNH:0
DA:90,0
DA:93,0
DA:95,0
DA:96,0
DA:97,0
DA:98,0
DA:99,0
DA:100,0
DA:101,0
DA:102,0
DA:103,0
DA:104,0
DA:105,0
DA:106,0
DA:107,0
DA:108,0
DA:110,0
DA:111,0
DA:113,0
DA:130,0
DA:134,0
DA:136,0
DA:138,0
DA:145,0
DA:146,0
DA:147,0
DA:148,0
DA:149,0
DA:150,0
DA:151,0
DA:155,0
DA:156,0
DA:158,0
DA:160,0
DA:161,0
DA:168,0
DA:169,0
DA:170,0
DA:171,0
DA:172,0
DA:173,0
DA:174,0
DA:178,0
DA:181,0
DA:184,0
DA:190,0
DA:191,0
DA:192,0
DA:193,0
DA:194,0
DA:195,0
DA:196,0
DA:200,0
DA:201,0
DA:209,0
DA:234,0
DA:235,0
DA:241,0
DA:242,0
DA:243,0
DA:244,0
DA:245,0
DA:246,0
DA:247,0
DA:251,0
DA:252,0
LF:66
LH:0
end_of_record
TN:
SF:/root/Kratos/external_libraries/amgcl/solver/skyline_lu.hpp
FN:98,_ZN5amgcl6solver10skyline_luINS_13static_matrixIdLi2ELi2EEENS_7reorder13cuthill_mckeeILb0EEEEC2INS_7backend3crsIS3_llEEEERKT_RKNS_6detail12empty_paramsE
FN:98,_ZN5amgcl6solver10skyline_luINS_13static_matrixIdLi3ELi3EEENS_7reorder13cuthill_mckeeILb0EEEEC2INS_7backend3crsIS3_llEEEERKT_RKNS_6detail12empty_paramsE
FN:98,_ZN5amgcl6solver10skyline_luINS_13static_matrixIdLi4ELi4EEENS_7reorder13cuthill_mckeeILb0EEEEC2INS_7backend3crsIS3_llEEEERKT_RKNS_6detail12empty_paramsE
FN:98,_ZN5amgcl6solver10skyline_luISt7complexIdENS_7reorder13cuthill_mckeeILb0EEEEC2INS_7backend3crsIS3_llEEEERKT_RKNS_6detail12empty_paramsE
FN:98,_ZN5amgcl6solver10skyline_luIdNS_7reorder13cuthill_mckeeILb0EEEEC2INS_7backend3crsIdllEEEERKT_RKNS_6detail12empty_paramsE
FN:179,_ZNK5amgcl6solver10skyline_luINS_13static_matrixIdLi2ELi2EEENS_7reorder13cuthill_mckeeILb0EEEEclINS_7backend11numa_vectorINS2_IdLi2ELi1EEEEESC_EEvRKT_RT0_
FN:179,_ZNK5amgcl6solver10skyline_luINS_13static_matrixIdLi3ELi3EEENS_7reorder13cuthill_mckeeILb0EEEEclINS_7backend11numa_vectorINS2_IdLi3ELi1EEEEESC_EEvRKT_RT0_
FN:179,_ZNK5amgcl6solver10skyline_luINS_13static_matrixIdLi4ELi4EEENS_7reorder13cuthill_mckeeILb0EEEEclINS_7backend11numa_vectorINS2_IdLi4ELi1EEEEESC_EEvRKT_RT0_
FN:179,_ZNK5amgcl6solver10skyline_luISt7complexIdENS_7reorder13cuthill_mckeeILb0EEEEclISt6vectorIS3_SaIS3_EESB_EEvRKT_RT0_
FN:179,_ZNK5amgcl6solver10skyline_luIdNS_7reorder13cuthill_mckeeILb0EEEEclINS_7backend11numa_vectorIdEES9_EEvRKT_RT0_
FN:179,_ZNK5amgcl6solver10skyline_luIdNS_7reorder13cuthill_mckeeILb0EEEEclISt6vectorIdSaIdEES9_EEvRKT_RT0_
FN:247,_ZN5amgcl6solver10skyline_luINS_13static_matrixIdLi2ELi2EEENS_7reorder13cuthill_mckeeILb0EEEE9factorizeEv
FN:247,_ZN5amgcl6solver10skyline_luINS_13static_matrixIdLi3ELi3EEENS_7reorder13cuthill_mckeeILb0EEEE9factorizeEv
FN:247,_ZN5amgcl6solver10skyline_luINS_13static_matrixIdLi4ELi4EEENS_7reorder13cuthill_mckeeILb0EEEE9factorizeEv
FN:247,_ZN5amgcl6solver10skyline_luISt7complexIdENS_7reorder13cuthill_mckeeILb0EEEE9factorizeEv
FN:247,_ZN5amgcl6solver10skyline_luIdNS_7reorder13cuthill_mckeeILb0EEEE9factorizeEv
FNDA:0,_ZN5amgcl6solver10skyline_luINS_13static_matrixIdLi2ELi2EEENS_7reorder13cuthill_mckeeILb0EEEE9factorizeEv
FNDA:0,_ZN5amgcl6solver10skyline_luINS_13static_matrixIdLi2ELi2EEENS_7reorder13cuthill_mckeeILb0EEEEC2INS_7backend3crsIS3_llEEEERKT_RKNS_6detail12empty_paramsE
FNDA:0,_ZN5amgcl6solver10skyline_luINS_13static_matrixIdLi3ELi3EEENS_7reorder13cuthill_mckeeILb0EEEE9factorizeEv
FNDA:0,_ZN5amgcl6solver10skyline_luINS_13static_matrixIdLi3ELi3EEENS_7reorder13cuthill_mckeeILb0EEEEC2INS_7backend3crsIS3_llEEEERKT_RKNS_6detail12empty_paramsE
FNDA:0,_ZN5amgcl6solver10skyline_luINS_13static_matrixIdLi4ELi4EEENS_7reorder13cuthill_mckeeILb0EEEE9factorizeEv
FNDA:0,_ZN5amgcl6solver10skyline_luINS_13static_matrixIdLi4ELi4EEENS_7reorder13cuthill_mckeeILb0EEEEC2INS_7backend3crsIS3_llEEEERKT_RKNS_6detail12empty_paramsE
FNDA:0,_ZN5amgcl6solver10skyline_luISt7complexIdENS_7reorder13cuthill_mckeeILb0EEEE9factorizeEv
FNDA:0,_ZN5amgcl6solver10skyline_luISt7complexIdENS_7reorder13cuthill_mckeeILb0EEEEC2INS_7backend3crsIS3_llEEEERKT_RKNS_6detail12empty_paramsE
FNDA:0,_ZN5amgcl6solver10skyline_luIdNS_7reorder13cuthill_mckeeILb0EEEE9factorizeEv
FNDA:0,_ZN5amgcl6solver10skyline_luIdNS_7reorder13cuthill_mckeeILb0EEEEC2INS_7backend3crsIdllEEEERKT_RKNS_6detail12empty_paramsE
FNDA:0,_ZNK5amgcl6solver10skyline_luINS_13static_matrixIdLi2ELi2EEENS_7reorder13cuthill_mckeeILb0EEEEclINS_7backend11numa_vectorINS2_IdLi2ELi1EEEEESC_EEvRKT_RT0_
FNDA:0,_ZNK5amgcl6solver10skyline_luINS_13static_matrixIdLi3ELi3EEENS_7reorder13cuthill_mckeeILb0EEEEclINS_7backend11numa_vectorINS2_IdLi3ELi1EEEEESC_EEvRKT_RT0_
FNDA:0,_ZNK5amgcl6solver10skyline_luINS_13static_matrixIdLi4ELi4EEENS_7reorder13cuthill_mckeeILb0EEEEclINS_7backend11numa_vectorINS2_IdLi4ELi1EEEEESC_EEvRKT_RT0_
FNDA:0,_ZNK5amgcl6solver10skyline_luISt7complexIdENS_7reorder13cuthill_mckeeILb0EEEEclISt6vectorIS3_SaIS3_EESB_EEvRKT_RT0_
FNDA:0,_ZNK5amgcl6solver10skyline_luIdNS_7reorder13cuthill_mckeeILb0EEEEclINS_7backend11numa_vectorIdEES9_EEvRKT_RT0_
FNDA:0,_ZNK5amgcl6solver10skyline_luIdNS_7reorder13cuthill_mckeeILb0EEEEclISt6vectorIdSaIdEES9_EEvRKT_RT0_
FNF:16
FNH:0
DA:98,0
DA:99,0
DA:102,0
DA:105,0
DA:106,0
DA:118,0
DA:119,0
DA:120,0
DA:123,0
DA:124,0
DA:126,0
DA:127,0
DA:129,0
DA:130,0
DA:132,0
DA:142,0
DA:143,0
DA:144,0
DA:150,0
DA:151,0
DA:155,0
DA:156,0
DA:157,0
DA:160,0
DA:161,0
DA:163,0
DA:164,0
DA:165,0
DA:166,0
DA:167,0
DA:169,0
DA:175,0
DA:176,0
DA:179,0
DA:184,0
DA:186,0
DA:187,0
DA:188,0
DA:190,0
DA:193,0
DA:194,0
DA:195,0
DA:199,0
DA:200,0
DA:204,0
DA:205,0
DA:206,0
DA:208,0
DA:247,0
DA:248,0
DA:249,0
DA:251,0
DA:253,0
DA:254,0
DA:259,0
DA:260,0
DA:261,0
DA:263,0
DA:266,0
DA:267,0
DA:269,0
DA:270,0
DA:271,0
DA:272,0
DA:274,0
DA:279,0
DA:280,0
DA:281,0
DA:283,0
DA:286,0
DA:287,0
DA:289,0
DA:290,0
DA:292,0
DA:293,0
DA:295,0
DA:299,0
DA:300,0
DA:301,0
DA:303,0
DA:306,0
DA:308,0
LF:82
LH:0
end_of_record
TN:
SF:/root/Kratos/external_libraries/amgcl/util.hpp
FN:88,_ZN5amgcl12preconditionIbA18_cEEvRKT_RKT0_
FN:88,_ZN5amgcl12preconditionIbA21_cEEvRKT_RKT0_
FN:88,_ZN5amgcl12preconditionIbA23_cEEvRKT_RKT0_
FN:88,_ZN5amgcl12preconditionIbA25_cEEvRKT_RKT0_
FN:88,_ZN5amgcl12preconditionIbA28_cEEvRKT_RKT0_
FN:88,_ZN5amgcl12preconditionIbA29_cEEvRKT_RKT0_
FN:88,_ZN5amgcl12preconditionIbA30_cEEvRKT_RKT0_
FN:88,_ZN5amgcl12preconditionIbA31_cEEvRKT_RKT0_
FN:88,_ZN5amgcl12preconditionIbA33_cEEvRKT_RKT0_
FN:88,_ZN5amgcl12preconditionIbA35_cEEvRKT_RKT0_
FN:88,_ZN5amgcl12preconditionIbA37_cEEvRKT_RKT0_
FN:88,_ZN5amgcl12preconditionIbA40_cEEvRKT_RKT0_
FN:88,_ZN5amgcl12preconditionIbA41_cEEvRKT_RKT0_
FN:88,_ZN5amgcl12preconditionIbA43_cEEvRKT_RKT0_
FN:88,_ZN5amgcl12preconditionIbA44_cEEvRKT_RKT0_
FN:88,_ZN5amgcl12preconditionIbA45_cEEvRKT_RKT0_
FN:88,_ZN5amgcl12preconditionIbA46_cEEvRKT_RKT0_
FN:88,_ZN5amgcl12preconditionIbA51_cEEvRKT_RKT0_
FN:88,_ZN5amgcl12preconditionIbA56_cEEvRKT_RKT0_
FN:88,_ZN5amgcl12preconditionIbA57_cEEvRKT_RKT0_
FN:88,_ZN5amgcl12preconditionIbA60_cEEvRKT_RKT0_
FN:88,_ZN5amgcl12preconditionIbA78_cEEvRKT_RKT0_
FN:124,_ZN5amgcl12check_paramsERKN5boost13property_tree11basic_ptreeINSt7__cxx1112basic_stringIcSt11char_traitsIcESaIcEEES8_St4lessIS8_EEERKSt3setIS8_SA_SaIS8_EE
FN:141,_ZN5amgcl12check_paramsERKN5boost13property_tree11basic_ptreeINSt7__cxx1112basic_stringIcSt11char_traitsIcESaIcEEES8_St4lessIS8_EEERKSt3setIS8_SA_SaIS8_EESI_
FN:177,_ZN5amgcl6detail11empty_ptreeB5cxx11Ev
FN:187,_ZN5amgcl6detail12empty_paramsC2ERKN5boost13property_tree11basic_ptreeINSt7__cxx1112basic_stringIcSt11char_traitsIcESaIcEEESA_St4lessISA_EEE
FN:244,_ZN5amgcl11multi_arrayIdLi2EEC2IJiiEEEDpT_
FN:244,_ZN5amgcl11multi_arrayIdLi2EEC2IJjjEEEDpT_
FN:244,_ZN5amgcl11multi_arrayIdLi2EEC2IJmmEEEDpT_
FN:305,_ZN5amgcl15circular_bufferISt10shared_ptrINS_7backend11numa_vectorINS_13static_matrixIdLi2ELi1EEEEEEEC2Em
FN:305,_ZN5amgcl15circular_bufferISt10shared_ptrINS_7backend11numa_vectorINS_13static_matrixIdLi3ELi1EEEEEEEC2Em
FN:305,_ZN5amgcl15circular_bufferISt10shared_ptrINS_7backend11numa_vectorINS_13static_matrixIdLi4ELi1EEEEEEEC2Em
FN:305,_ZN5amgcl15circular_bufferISt10shared_ptrINS_7backend11numa_vectorIdEEEEC2Em
FN:313,_ZN5amgcl15circular_bufferISt10shared_ptrINS_7backend11numa_vectorINS_13static_matrixIdLi2ELi1EEEEEEE9push_backERKS7_
FN:313,_ZN5amgcl15circular_bufferISt10shared_ptrINS_7backend11numa_vectorINS_13static_matrixIdLi3ELi1EEEEEEE9push_backERKS7_
FN:313,_ZN5amgcl15circular_bufferISt10shared_ptrINS_7backend11numa_vectorINS_13static_matrixIdLi4ELi1EEEEEEE9push_backERKS7_
FN:313,_ZN5amgcl15circular_bufferISt10shared_ptrINS_7backend11numa_vectorIdEEEE9push_backERKS5_
FN:353,_ZN5amgcl21human_readable_memoryB5cxx11Em
FN:390,_ZStrsIdERSiS0_RPT_
FNDA:0,_ZN5amgcl11multi_arrayIdLi2EEC2IJiiEEEDpT_
FNDA:0,_ZN5amgcl11multi_arrayIdLi2EEC2IJjjEEEDpT_
FNDA:0,_ZN5amgcl11multi_arrayIdLi2EEC2IJmmEEEDpT_
FNDA:0,_ZN5amgcl12check_paramsERKN5boost13property_tree11basic_ptreeINSt7__cxx1112basic_stringIcSt11char_traitsIcESaIcEEES8_St4lessIS8_EEERKSt3setIS8_SA_SaIS8_EE
FNDA:0,_ZN5amgcl12check_paramsERKN5boost13property_tree11basic_ptreeINSt7__cxx1112basic_stringIcSt11char_traitsIcESaIcEEES8_St4lessIS8_EEERKSt3setIS8_SA_SaIS8_EESI_
FNDA:0,_ZN5amgcl12preconditionIbA18_cEEvRKT_RKT0_
FNDA:0,_ZN5amgcl12preconditionIbA21_cEEvRKT_RKT0_
FNDA:0,_ZN5amgcl12preconditionIbA23_cEEvRKT_RKT0_
FNDA:0,_ZN5amgcl12preconditionIbA25_cEEvRKT_RKT0_
FNDA:0,_ZN5amgcl12preconditionIbA28_cEEvRKT_RKT0_
FNDA:0,_ZN5amgcl12preconditionIbA29_cEEvRKT_RKT0_
FNDA:0,_ZN5amgcl12preconditionIbA30_cEEvRKT_RKT0_
FNDA:0,_ZN5amgcl12preconditionIbA31_cEEvRKT_RKT0_
FNDA:0,_ZN5amgcl12preconditionIbA33_cEEvRKT_RKT0_
FNDA:0,_ZN5amgcl12preconditionIbA35_cEEvRKT_RKT0_
FNDA:0,_ZN5amgcl12preconditionIbA37_cEEvRKT_RKT0_
FNDA:0,_ZN5amgcl12preconditionIbA40_cEEvRKT_RKT0_
FNDA:0,_ZN5amgcl12preconditionIbA41_cEEvRKT_RKT0_
FNDA:0,_ZN5amgcl12preconditionIbA43_cEEvRKT_RKT0_
FNDA:0,_ZN5amgcl12preconditionIbA44_cEEvRKT_RKT0_
FNDA:0,_ZN5amgcl12preconditionIbA45_cEEvRKT_RKT0_
FNDA:0,_ZN5amgcl12preconditionIbA46_cEEvRKT_RKT0_
FNDA:0,_ZN5amgcl12preconditionIbA51_cEEvRKT_RKT0_
FNDA:0,_ZN5amgcl12preconditionIbA56_cEEvRKT_RKT0_
FNDA:0,_ZN5amgcl12preconditionIbA57_cEEvRKT_RKT0_
FNDA:0,_ZN5amgcl12preconditionIbA60_cEEvRKT_RKT0_
FNDA:0,_ZN5amgcl12preconditionIbA78_cEEvRKT_RKT0_
FNDA:0,_ZN5amgcl15circular_bufferISt10shared_ptrINS_7backend11numa_vectorINS_13static_matrixIdLi2ELi1EEEEEEE9push_backERKS7_
FNDA:0,_ZN5amgcl15circular_bufferISt10shared_ptrINS_7backend11numa_vectorINS_13static_matrixIdLi2ELi1EEEEEEEC2Em
FNDA:0,_ZN5amgcl15circular_bufferISt10shared_ptrINS_7backend11numa_vectorINS_13static_matrixIdLi3ELi1EEEEEEE9push_backERKS7_
FNDA:0,_ZN5amgcl15circular_bufferISt10shared_ptrINS_7backend11numa_vectorINS_13static_matrixIdLi3ELi1EEEEEEEC2Em
FNDA:0,_ZN5amgcl15circular_bufferISt10shared_ptrINS_7backend11numa_vectorINS_13static_matrixIdLi4ELi1EEEEEEE9push_backERKS7_
FNDA:0,_ZN5amgcl15circular_bufferISt10shared_ptrINS_7backend11numa_vectorINS_13static_matrixIdLi4ELi1EEEEEEEC2Em
FNDA:0,_ZN5amgcl15circular_bufferISt10shared_ptrINS_7backend11numa_vectorIdEEEE9push_backERKS5_
FNDA:0,_ZN5amgcl15circular_bufferISt10shared_ptrINS_7backend11numa_vectorIdEEEEC2Em
FNDA:0,_ZN5amgcl21human_readable_memoryB5cxx11Em
FNDA:0,_ZN5amgcl6detail11empty_ptreeB5cxx11Ev
FNDA:0,_ZN5amgcl6detail12empty_paramsC2ERKN5boost13property_tree11basic_ptreeINSt7__cxx1112basic_stringIcSt11char_traitsIcESaIcEEESA_St4lessISA_EEE
FNDA:0,_ZStrsIdERSiS0_RPT_
FNF:39
FNH:0
DA:88,0
DA:93,0
DA:97,0
DA:124,0
DA:129,0
DA:134,0
DA:135,0
DA:136,0
DA:139,0
DA:141,0
DA:147,0
DA:152,0
DA:157,0
DA:158,0
DA:159,0
DA:162,0
DA:177,0
DA:178,0
DA:179,0
DA:187,0
DA:188,0
DA:189,0
DA:191,0
DA:239,0
DA:244,0
DA:246,0
DA:247,0
DA:266,0
DA:282,0
DA:286,0
DA:291,0
DA:292,0
DA:293,0
DA:297,0
DA:303,0
DA:305,0
DA:306,0
DA:307,0
DA:313,0
DA:314,0
DA:315,0
DA:317,0
DA:318,0
DA:320,0
DA:327,0
DA:331,0
DA:332,0
DA:333,0
DA:353,0
DA:357,0
DA:358,0
DA:360,0
DA:361,0
DA:362,0
DA:363,0
DA:390,0
DA:391,0
DA:396,0
DA:398,0
DA:399,0
LF:60
LH:0
end_of_record
TN:
SF:/root/Kratos/external_libraries/amgcl/value_type/interface.hpp
FN:192,_ZN5amgcl4math7inverseINS_13static_matrixIdLi2ELi2EEEEET_RKS4_
FN:192,_ZN5amgcl4math7inverseINS_13static_matrixIdLi3ELi3EEEEET_RKS4_
FN:192,_ZN5amgcl4math7inverseINS_13static_matrixIdLi4ELi4EEEEET_RKS4_
FNDA:0,_ZN5amgcl4math7inverseINS_13static_matrixIdLi2ELi2EEEEET_RKS4_
FNDA:0,_ZN5amgcl4math7inverseINS_13static_matrixIdLi3ELi3EEEEET_RKS4_
FNDA:0,_ZN5amgcl4math7inverseINS_13static_matrixIdLi4ELi4EEEEET_RKS4_
FNF:3
FNH:0
DA:88,0
DA:115,0
DA:142,0
DA:163,0
DA:192,0
DA:193,0
LF:6
LH:0
end_of_record
TN:
SF:/root/Kratos/external_libraries/amgcl/value_type/static_matrix.hpp
FN:149,_ZN5amgclmlIddLi2ELi2ELi1EEENS_13static_matrixIT_XT1_EXT3_EEERKNS1_IS2_XT1_EXT2_EEERKNS1_IT0_XT2_EXT3_EEE
FN:149,_ZN5amgclmlIddLi2ELi2ELi2EEENS_13static_matrixIT_XT1_EXT3_EEERKNS1_IS2_XT1_EXT2_EEERKNS1_IT0_XT2_EXT3_EEE
FN:149,_ZN5amgclmlIddLi3ELi3ELi1EEENS_13static_matrixIT_XT1_EXT3_EEERKNS1_IS2_XT1_EXT2_EEERKNS1_IT0_XT2_EXT3_EEE
FN:149,_ZN5amgclmlIddLi3ELi3ELi3EEENS_13static_matrixIT_XT1_EXT3_EEERKNS1_IS2_XT1_EXT2_EEERKNS1_IT0_XT2_EXT3_EEE
FN:149,_ZN5amgclmlIddLi4ELi4ELi1EEENS_13static_matrixIT_XT1_EXT3_EEERKNS1_IS2_XT1_EXT2_EEERKNS1_IT0_XT2_EXT3_EEE
FN:149,_ZN5amgclmlIddLi4ELi4ELi4EEENS_13static_matrixIT_XT1_EXT3_EEERKNS1_IS2_XT1_EXT2_EEERKNS1_IT0_XT2_EXT3_EEE
FN:264,_ZN5amgcl4math9norm_implINS_13static_matrixIdLi2ELi2EEEvE3getERKS3_
FN:264,_ZN5amgcl4math9norm_implINS_13static_matrixIdLi3ELi3EEEvE3getERKS3_
FN:264,_ZN5amgcl4math9norm_implINS_13static_matrixIdLi4ELi4EEEvE3getERKS3_
FNDA:0,_ZN5amgcl4math9norm_implINS_13static_matrixIdLi2ELi2EEEvE3getERKS3_
FNDA:0,_ZN5amgcl4math9norm_implINS_13static_matrixIdLi3ELi3EEEvE3getERKS3_
FNDA:0,_ZN5amgcl4math9norm_implINS_13static_matrixIdLi4ELi4EEEvE3getERKS3_
FNDA:0,_ZN5amgclmlIddLi2ELi2ELi1EEENS_13static_matrixIT_XT1_EXT3_EEERKNS1_IS2_XT1_EXT2_EEERKNS1_IT0_XT2_EXT3_EEE
FNDA:0,_ZN5amgclmlIddLi2ELi2ELi2EEENS_13static_matrixIT_XT1_EXT3_EEERKNS1_IS2_XT1_EXT2_EEERKNS1_IT0_XT2_EXT3_EEE
FNDA:0,_ZN5amgclmlIddLi3ELi3ELi1EEENS_13static_matrixIT_XT1_EXT3_EEERKNS1_IS2_XT1_EXT2_EEERKNS1_IT0_XT2_EXT3_EEE
FNDA:0,_ZN5amgclmlIddLi3ELi3ELi3EEENS_13static_matrixIT_XT1_EXT3_EEERKNS1_IS2_XT1_EXT2_EEERKNS1_IT0_XT2_EXT3_EEE
FNDA:0,_ZN5amgclmlIddLi4ELi4ELi1EEENS_13static_matrixIT_XT1_EXT3_EEERKNS1_IS2_XT1_EXT2_EEERKNS1_IT0_XT2_EXT3_EEE
FNDA:0,_ZN5amgclmlIddLi4ELi4ELi4EEENS_13static_matrixIT_XT1_EXT3_EEERKNS1_IS2_XT1_EXT2_EEERKNS1_IT0_XT2_EXT3_EEE
FNF:9
FNH:0
DA:47,0
DA:51,0
DA:55,0
DA:59,0
DA:79,0
DA:80,0
DA:86,0
DA:87,0
DA:92,0
DA:93,0
DA:100,0
DA:105,0
DA:106,0
DA:107,0
DA:139,0
DA:149,0
DA:155,0
DA:156,0
DA:157,0
DA:158,0
DA:160,0
DA:161,0
DA:164,0
DA:234,0
DA:235,0
DA:264,0
DA:266,0
DA:267,0
DA:268,0
DA:278,0
DA:279,0
DA:289,0
DA:290,0
DA:301,0
DA:302,0
DA:303,0
DA:326,0
DA:327,0
LF:38
LH:0
end_of_record
TN:
SF:/root/Kratos/external_libraries/ghc/filesystem.hpp
FN:1425,_ZN3ghc10filesystem6detail6toUtf8IcEENSt7__cxx1112basic_stringIcSt11char_traitsIcESaIcEEEPKT_
FN:1443,_ZN3ghc10filesystem4path28postprocess_path_with_formatERNSt7__cxx1112basic_stringIcSt11char_traitsIcESaIcEEENS1_6formatE
FN:1492,_ZN3ghc10filesystem4pathC2IA2_cS1_EERKT_NS1_6formatE
FN:1492,_ZN3ghc10filesystem4pathC2INSt7__cxx1112basic_stringIcSt11char_traitsIcESaIcEEES1_EERKT_NS1_6formatE
FN:1492,_ZN3ghc10filesystem4pathC2IPKcS1_EERKT_NS1_6formatE
FN:1492,_ZN3ghc10filesystem4pathC2IPcS1_EERKT_NS1_6formatE
FN:1578,_ZN3ghc10filesystem6detail15systemErrorTextIiEENSt7__cxx1112basic_stringIcSt11char_traitsIcESaIcEEET_
FN:1862,_ZN3ghc10filesystem6detail17symlink_status_exERKNS0_4pathERSt10error_codePmS7_Pl
FN:1903,_ZN3ghc10filesystem6detail9status_exERKNS0_4pathERSt10error_codePNS0_11file_statusEPmS9_Pli
FN:2021,_ZN3ghc10filesystem4pathC2EONSt7__cxx1112basic_stringIcSt11char_traitsIcESaIcEEENS1_6formatE
FN:2097,_ZN3ghc10filesystem4path6assignIA1_cEERS1_RKT_
FN:2097,_ZN3ghc10filesystem4path6assignIA2_cEERS1_RKT_
FN:2112,_ZN3ghc10filesystem4path6assignIN9__gnu_cxx17__normal_iteratorIPKcNSt7__cxx1112basic_stringIcSt11char_traitsIcESaIcEEEEEEERS1_T_SF_
FN:2124,_ZN3ghc10filesystem4pathdVERKS1_
FN:2158,_ZN3ghc10filesystem4path11append_nameEPKc
FN:2180,_ZN3ghc10filesystem4path6appendINSt7__cxx1112basic_stringIcSt11char_traitsIcESaIcEEEEERS1_RKT_
FN:2481,_ZNK3ghc10filesystem4path9root_nameEv
FN:2500,_ZNK3ghc10filesystem4path14root_directoryEv
FN:2509,_ZNK3ghc10filesystem4path9root_pathEv
FN:2514,_ZNK3ghc10filesystem4path13relative_pathEv
FN:2545,_ZNK3ghc10filesystem4path8filenameEv
FN:2579,_ZNK3ghc10filesystem4path13has_root_nameEv
FN:2584,_ZNK3ghc10filesystem4path18has_root_directoryEv
FN:2604,_ZNK3ghc10filesystem4path12has_filenameEv
FN:2713,_ZN3ghc10filesystem4path8iteratorC2ERKN9__gnu_cxx17__normal_iteratorIPKcNSt7__cxx1112basic_stringIcSt11char_traitsIcESaIcEEEEESF_SF_
FN:2741,_ZNK3ghc10filesystem4path8iterator9incrementERKN9__gnu_cxx17__normal_iteratorIPKcNSt7__cxx1112basic_stringIcSt11char_traitsIcESaIcEEEEE
FN:2774,_ZNK3ghc10filesystem4path8iterator9decrementERKN9__gnu_cxx17__normal_iteratorIPKcNSt7__cxx1112basic_stringIcSt11char_traitsIcESaIcEEEEE
FN:2800,_ZN3ghc10filesystem4path8iterator13updateCurrentEv
FN:2814,_ZN3ghc10filesystem4path8iteratorppEv
FN:2828,_ZN3ghc10filesystem4path8iteratorppEi
FN:2988,_ZN3ghc10filesystem16filesystem_errorC2ERKNSt7__cxx1112basic_stringIcSt11char_traitsIcESaIcEEESt10error_code
FN:2995,_ZN3ghc10filesystem16filesystem_errorC2ERKNSt7__cxx1112basic_stringIcSt11char_traitsIcESaIcEEERKNS0_4pathESt10error_code
FN:3006,_ZN3ghc10filesystem16filesystem_errorC2ERKNSt7__cxx1112basic_stringIcSt11char_traitsIcESaIcEEERKNS0_4pathESC_St10error_code
FN:3031,_ZNK3ghc10filesystem16filesystem_error4whatEv
FN:3382,_ZN3ghc10filesystem18create_directoriesERKNS0_4pathE
FN:3392,_ZN3ghc10filesystem18create_directoriesERKNS0_4pathERSt10error_code
FN:3427,_ZN3ghc10filesystem16create_directoryERKNS0_4pathE
FN:3437,_ZN3ghc10filesystem16create_directoryERKNS0_4pathERSt10error_code
FN:3452,_ZN3ghc10filesystem16create_directoryERKNS0_4pathES3_RSt10error_code
FN:3537,_ZN3ghc10filesystem12current_pathEv
FN:3547,_ZN3ghc10filesystem12current_pathERSt10error_code
FN:4081,_ZN3ghc10filesystem6removeERKNS0_4pathE
FN:4091,_ZN3ghc10filesystem6removeERKNS0_4pathERSt10error_code
FN:4128,_ZN3ghc10filesystem10remove_allERKNS0_4pathE
FN:4138,_ZN3ghc10filesystem10remove_allERKNS0_4pathERSt10error_code
FN:4179,_ZN3ghc10filesystem6renameERKNS0_4pathES3_
FN:4188,_ZN3ghc10filesystem6renameERKNS0_4pathES3_RSt10error_code
FN:4274,_ZN3ghc10filesystem6statusERKNS0_4pathE
FN:4294,_ZN3ghc10filesystem14symlink_statusERKNS0_4pathE
FN:4474,_ZN3ghc10filesystem15directory_entryC2ERKNS0_4pathERSt10error_code
FN:4525,_ZN3ghc10filesystem15directory_entry7refreshERSt10error_code
FN:4852,_ZN3ghc10filesystem18directory_iterator4implC2ERKNS0_4pathENS0_17directory_optionsE
FN:4875,_ZN3ghc10filesystem18directory_iterator4implD2Ev
FN:4881,_ZN3ghc10filesystem18directory_iterator4impl9incrementERSt10error_code
FN:4915,_ZN3ghc10filesystem18directory_iteratorC2Ev
FN:4937,_ZN3ghc10filesystem18directory_iteratorC2ERKNS0_4pathERSt10error_code
FNDA:0,_ZN3ghc10filesystem10remove_allERKNS0_4pathE
FNDA:0,_ZN3ghc10filesystem10remove_allERKNS0_4pathERSt10error_code
FNDA:0,_ZN3ghc10filesystem12current_pathERSt10error_code
FNDA:0,_ZN3ghc10filesystem12current_pathEv
FNDA:0,_ZN3ghc10filesystem14symlink_statusERKNS0_4pathE
FNDA:0,_ZN3ghc10filesystem15directory_entry7refreshERSt10error_code
FNDA:0,_ZN3ghc10filesystem15directory_entryC2ERKNS0_4pathERSt10error_code
FNDA:0,_ZN3ghc10filesystem16create_directoryERKNS0_4pathE
FNDA:0,_ZN3ghc10filesystem16create_directoryERKNS0_4pathERSt10error_code
FNDA:0,_ZN3ghc10filesystem16create_directoryERKNS0_4pathES3_RSt10error_code
FNDA:0,_ZN3ghc10filesystem16filesystem_errorC2ERKNSt7__cxx1112basic_stringIcSt11char_traitsIcESaIcEEERKNS0_4pathESC_St10error_code
FNDA:0,_ZN3ghc10filesystem16filesystem_errorC2ERKNSt7__cxx1112basic_stringIcSt11char_traitsIcESaIcEEERKNS0_4pathESt10error_code
FNDA:0,_ZN3ghc10filesystem16filesystem_errorC2ERKNSt7__cxx1112basic_stringIcSt11char_traitsIcESaIcEEESt10error_code
FNDA:0,_ZN3ghc10filesystem18create_directoriesERKNS0_4pathE
FNDA:0,_ZN3ghc10filesystem18create_directoriesERKNS0_4pathERSt10error_code
FNDA:0,_ZN3ghc10filesystem18directory_iterator4impl9incrementERSt10error_code
FNDA:0,_ZN3ghc10filesystem18directory_iterator4implC2ERKNS0_4pathENS0_17directory_optionsE
FNDA:0,_ZN3ghc10filesystem18directory_iterator4implD2Ev
FNDA:0,_ZN3ghc10filesystem18directory_iteratorC2ERKNS0_4pathERSt10error_code
FNDA:0,_ZN3ghc10filesystem18directory_iteratorC2Ev
FNDA:0,_ZN3ghc10filesystem4path11append_nameEPKc
FNDA:0,_ZN3ghc10filesystem4path28postprocess_path_with_formatERNSt7__cxx1112basic_stringIcSt11char_traitsIcESaIcEEENS1_6formatE
FNDA:0,_ZN3ghc10filesystem4path6appendINSt7__cxx1112basic_stringIcSt11char_traitsIcESaIcEEEEERS1_RKT_
FNDA:0,_ZN3ghc10filesystem4path6assignIA1_cEERS1_RKT_
FNDA:0,_ZN3ghc10filesystem4path6assignIA2_cEERS1_RKT_
FNDA:0,_ZN3ghc10filesystem4path6assignIN9__gnu_cxx17__normal_iteratorIPKcNSt7__cxx1112basic_stringIcSt11char_traitsIcESaIcEEEEEEERS1_T_SF_
FNDA:0,_ZN3ghc10filesystem4path8iterator13updateCurrentEv
FNDA:0,_ZN3ghc10filesystem4path8iteratorC2ERKN9__gnu_cxx17__normal_iteratorIPKcNSt7__cxx1112basic_stringIcSt11char_traitsIcESaIcEEEEESF_SF_
FNDA:0,_ZN3ghc10filesystem4path8iteratorppEi
FNDA:0,_ZN3ghc10filesystem4path8iteratorppEv
FNDA:0,_ZN3ghc10filesystem4pathC2EONSt7__cxx1112basic_stringIcSt11char_traitsIcESaIcEEENS1_6formatE
FNDA:0,_ZN3ghc10filesystem4pathC2IA2_cS1_EERKT_NS1_6formatE
FNDA:0,_ZN3ghc10filesystem4pathC2INSt7__cxx1112basic_stringIcSt11char_traitsIcESaIcEEES1_EERKT_NS1_6formatE
FNDA:0,_ZN3ghc10filesystem4pathC2IPKcS1_EERKT_NS1_6formatE
FNDA:0,_ZN3ghc10filesystem4pathC2IPcS1_EERKT_NS1_6formatE
FNDA:0,_ZN3ghc10filesystem4pathdVERKS1_
FNDA:0,_ZN3ghc10filesystem6detail15systemErrorTextIiEENSt7__cxx1112basic_stringIcSt11char_traitsIcESaIcEEET_
FNDA:0,_ZN3ghc10filesystem6detail17symlink_status_exERKNS0_4pathERSt10error_codePmS7_Pl
FNDA:0,_ZN3ghc10filesystem6detail6toUtf8IcEENSt7__cxx1112basic_stringIcSt11char_traitsIcESaIcEEEPKT_
FNDA:0,_ZN3ghc10filesystem6detail9status_exERKNS0_4pathERSt10error_codePNS0_11file_statusEPmS9_Pli
FNDA:0,_ZN3ghc10filesystem6removeERKNS0_4pathE
FNDA:0,_ZN3ghc10filesystem6removeERKNS0_4pathERSt10error_code
FNDA:0,_ZN3ghc10filesystem6renameERKNS0_4pathES3_
FNDA:0,_ZN3ghc10filesystem6renameERKNS0_4pathES3_RSt10error_code
FNDA:0,_ZN3ghc10filesystem6statusERKNS0_4pathE
FNDA:0,_ZNK3ghc10filesystem16filesystem_error4whatEv
FNDA:0,_ZNK3ghc10filesystem4path12has_filenameEv
FNDA:0,_ZNK3ghc10filesystem4path13has_root_nameEv
FNDA:0,_ZNK3ghc10filesystem4path13relative_pathEv
FNDA:0,_ZNK3ghc10filesystem4path14root_directoryEv
FNDA:0,_ZNK3ghc10filesystem4path18has_root_directoryEv
FNDA:0,_ZNK3ghc10filesystem4path8filenameEv
FNDA:0,_ZNK3ghc10filesystem4path8iterator9decrementERKN9__gnu_cxx17__normal_iteratorIPKcNSt7__cxx1112basic_stringIcSt11char_traitsIcESaIcEEEEE
FNDA:0,_ZNK3ghc10filesystem4path8iterator9incrementERKN9__gnu_cxx17__normal_iteratorIPKcNSt7__cxx1112basic_stringIcSt11char_traitsIcESaIcEEEEE
FNDA:0,_ZNK3ghc10filesystem4path9root_nameEv
FNDA:0,_ZNK3ghc10filesystem4path9root_pathEv
FNF:56
FNH:0
DA:473,0
DA:614,0
DA:623,0
DA:795,0
DA:1126,0
DA:1130,0
DA:1151,0
DA:1165,0
DA:1425,0
DA:1427,0
DA:1443,0
DA:1479,0
DA:1480,0
DA:1481,0
DA:1484,0
DA:1485,0
DA:1487,0
DA:1492,0
DA:1493,0
DA:1495,0
DA:1496,0
DA:1578,0
DA:1589,0
DA:1680,0
DA:1683,0
DA:1686,0
DA:1689,0
DA:1692,0
DA:1695,0
DA:1698,0
DA:1701,0
DA:1858,0
DA:1862,0
DA:1889,0
DA:1890,0
DA:1892,0
DA:1895,0
DA:1903,0
DA:1939,0
DA:1940,0
DA:1942,0
DA:1943,0
DA:1944,0
DA:1945,0
DA:1946,0
DA:1949,0
DA:1952,0
DA:1953,0
DA:1955,0
DA:1956,0
DA:1958,0
DA:1959,0
DA:1964,0
DA:2009,0
DA:2012,0
DA:2014,0
DA:2021,0
DA:2025,0
DA:2028,0
DA:2029,0
DA:2055,0
DA:2062,0
DA:2068,0
DA:2093,0
DA:2097,0
DA:2099,0
DA:2100,0
DA:2101,0
DA:2107,0
DA:2108,0
DA:2112,0
DA:2114,0
DA:2115,0
DA:2116,0
DA:2124,0
DA:2126,0
DA:2128,0
DA:2129,0
DA:2131,0
DA:2133,0
DA:2135,0
DA:2137,0
DA:2138,0
DA:2140,0
DA:2141,0
DA:2145,0
DA:2146,0
DA:2148,0
DA:2149,0
DA:2150,0
DA:2153,0
DA:2158,0
DA:2160,0
DA:2161,0
DA:2164,0
DA:2165,0
DA:2167,0
DA:2169,0
DA:2176,0
DA:2180,0
DA:2182,0
DA:2391,0
DA:2405,0
DA:2432,0
DA:2481,0
DA:2488,0
DA:2489,0
DA:2490,0
DA:2491,0
DA:2494,0
DA:2500,0
DA:2502,0
DA:2503,0
DA:2504,0
DA:2509,0
DA:2511,0
DA:2514,0
DA:2516,0
DA:2517,0
DA:2545,0
DA:2547,0
DA:2579,0
DA:2581,0
DA:2584,0
DA:2586,0
DA:2604,0
DA:2606,0
DA:2624,0
DA:2713,0
DA:2714,0
DA:2715,0
DA:2716,0
DA:2718,0
DA:2727,0
DA:2728,0
DA:2729,0
DA:2732,0
DA:2736,0
DA:2739,0
DA:2741,0
DA:2743,0
DA:2745,0
DA:2747,0
DA:2748,0
DA:2749,0
DA:2752,0
DA:2756,0
DA:2763,0
DA:2767,0
DA:2771,0
DA:2774,0
DA:2776,0
DA:2777,0
DA:2781,0
DA:2789,0
DA:2792,0
DA:2797,0
DA:2800,0
DA:2802,0
DA:2803,0
DA:2806,0
DA:2807,0
DA:2812,0
DA:2814,0
DA:2816,0
DA:2817,0
DA:2818,0
DA:2819,0
DA:2824,0
DA:2825,0
DA:2828,0
DA:2830,0
DA:2831,0
DA:2832,0
DA:2837,0
DA:2838,0
DA:2871,0
DA:2876,0
DA:2893,0
DA:2988,0
DA:2990,0
DA:2991,0
DA:2993,0
DA:2995,0
DA:2997,0
DA:2998,0
DA:2999,0
DA:3001,0
DA:3002,0
DA:3004,0
DA:3006,0
DA:3008,0
DA:3009,0
DA:3011,0
DA:3013,0
DA:3014,0
DA:3016,0
DA:3017,0
DA:3019,0
DA:3031,0
DA:3033,0
DA:3331,0
DA:3340,0
DA:3382,0
DA:3385,0
DA:3386,0
DA:3387,0
DA:3389,0
DA:3392,0
DA:3396,0
DA:3398,0
DA:3401,0
DA:3402,0
DA:3403,0
DA:3406,0
DA:3407,0
DA:3409,0
DA:3412,0
DA:3417,0
DA:3418,0
DA:3419,0
DA:3424,0
DA:3427,0
DA:3430,0
DA:3431,0
DA:3432,0
DA:3434,0
DA:3437,0
DA:3439,0
DA:3452,0
DA:3462,0
DA:3479,0
DA:3481,0
DA:3482,0
DA:3483,0
DA:3485,0
DA:3487,0
DA:3488,0
DA:3489,0
DA:3537,0
DA:3540,0
DA:3541,0
DA:3542,0
DA:3544,0
DA:3547,0
DA:3559,0
DA:3560,0
DA:3561,0
DA:3562,0
DA:3565,0
DA:3594,0
DA:3599,0
DA:3769,0
DA:3774,0
DA:3779,0
DA:3846,0
DA:3851,0
DA:4081,0
DA:4084,0
DA:4085,0
DA:4086,0
DA:4088,0
DA:4091,0
DA:4117,0
DA:4118,0
DA:4119,0
DA:4122,0
DA:4125,0
DA:4128,0
DA:4131,0
DA:4132,0
DA:4133,0
DA:4135,0
DA:4138,0
DA:4142,0
DA:4143,0
DA:4144,0
DA:4148,0
DA:4149,0
DA:4150,0
DA:4153,0
DA:4154,0
DA:4155,0
DA:4160,0
DA:4161,0
DA:4164,0
DA:4168,0
DA:4169,0
DA:4170,0
DA:4173,0
DA:4174,0
DA:4179,0
DA:4182,0
DA:4183,0
DA:4184,0
DA:4186,0
DA:4188,0
DA:4198,0
DA:4199,0
DA:4200,0
DA:4204,0
DA:4274,0
DA:4278,0
DA:4279,0
DA:4281,0
DA:4286,0
DA:4294,0
DA:4298,0
DA:4299,0
DA:4301,0
DA:4306,0
DA:4400,0
DA:4401,0
DA:4402,0
DA:4404,0
DA:4407,0
DA:4410,0
DA:4413,0
DA:4414,0
DA:4418,0
DA:4423,0
DA:4424,0
DA:4425,0
DA:4430,0
DA:4431,0
DA:4449,0
DA:4474,0
DA:4476,0
DA:4478,0
DA:4480,0
DA:4482,0
DA:4483,0
DA:4485,0
DA:4525,0
DA:4530,0
DA:4532,0
DA:4537,0
DA:4576,0
DA:4626,0
DA:4688,0
DA:4691,0
DA:4704,0
DA:4707,0
DA:4852,0
DA:4853,0
DA:4854,0
DA:4855,0
DA:4856,0
DA:4858,0
DA:4859,0
DA:4861,0
DA:4862,0
DA:4863,0
DA:4864,0
DA:4865,0
DA:4866,0
DA:4870,0
DA:4873,0
DA:4875,0
DA:4877,0
DA:4878,0
DA:4880,0
DA:4881,0
DA:4883,0
DA:4885,0
DA:4886,0
DA:4887,0
DA:4889,0
DA:4890,0
DA:4893,0
DA:4894,0
DA:4895,0
DA:4896,0
DA:4897,0
DA:4901,0
DA:4903,0
DA:4915,0
DA:4916,0
DA:4918,0
DA:4937,0
DA:4938,0
DA:4940,0
DA:4941,0
DA:4943,0
DA:4963,0
DA:4999,0
DA:5000,0
LF:387
LH:0
end_of_record
TN:
SF:/root/Kratos/external_libraries/gidpost/source/gidpost.c
FN:31,change_quotes
FN:44,string_hasspace
FN:110,GetMeshFile
FN:115,NewFile
FN:147,GetElementTypeName
FN:208,GiD_PostInit
FN:213,GiD_PostDone
FN:229,GiD_OpenPostMeshFile
FN:262,GiD_fOpenPostMeshFile
FN:291,GiD_ClosePostMeshFile
FN:313,GiD_fClosePostMeshFile
FN:333,_GiD_BeginMesh
FN:359,GiD_BeginMesh
FN:375,GiD_fBeginMesh
FN:393,_GiD_BeginMeshColor
FN:409,GiD_BeginMeshColor
FN:426,GiD_fBeginMeshColor
FN:443,GiD_EndMesh
FN:460,GiD_fEndMesh
FN:465,_GiD_MeshUnit
FN:480,GiD_MeshUnit
FN:492,GiD_fMeshUnit
FN:499,GiD_MeshLocalAxes
FN:514,_GiD_BeginCoordinates
FN:523,GiD_BeginCoordinates
FN:535,GiD_fBeginCoordinates
FN:547,_GiD_EndCoordinates
FN:563,GiD_EndCoordinates
FN:574,GiD_fEndCoordinates
FN:588,_GiD_BeginMeshGroup
FN:606,GiD_BeginMeshGroup
FN:620,GiD_fBeginMeshGroup
FN:634,GiD_EndMeshGroup
FN:645,GiD_fEndMeshGroup
FN:658,GiD_WriteCoordinates
FN:676,GiD_fWriteCoordinates
FN:691,_GiD_WriteCoordinates2D
FN:704,GiD_WriteCoordinates2D
FN:716,GiD_fWriteCoordinates2D
FN:729,_GiD_BeginElements
FN:736,GiD_BeginElements
FN:747,GiD_fBeginElements
FN:759,_GiD_EndElements
FN:767,GiD_EndElements
FN:778,GiD_fEndElements
FN:795,_GiD_WriteElement
FN:803,GiD_WriteElement
FN:814,GiD_fWriteElement
FN:831,_GiD_WriteElementMat
FN:841,GiD_WriteElementMat
FN:852,GiD_fWriteElementMat
FN:874,_GiD_WriteSphere
FN:888,GiD_WriteSphere
FN:899,GiD_fWriteSphere
FN:925,_GiD_WriteSphereMat
FN:937,GiD_WriteSphereMat
FN:948,GiD_fWriteSphereMat
FN:972,_GiD_WriteCircle
FN:991,GiD_WriteCircle
FN:1003,GiD_fWriteCircle
FN:1030,_GiD_WriteCircleMat
FN:1046,GiD_WriteCircleMat
FN:1058,GiD_fWriteCircleMat
FN:1079,_GiD_WriteCluster
FN:1092,GiD_WriteCluster
FN:1103,GiD_fWriteCluster
FN:1127,_GiD_WriteClusterMat
FN:1138,GiD_WriteClusterMat
FN:1149,GiD_fWriteClusterMat
FN:1169,GiD_OpenPostResultFile
FN:1207,GiD_fOpenPostResultFile
FN:1244,GiD_ClosePostResultFile
FN:1271,GiD_fClosePostResultFile
FN:1288,_GiD_BeginGaussPoint
FN:1345,GiD_BeginGaussPoint
FN:1360,GiD_fBeginGaussPoint
FN:1402,_GiD_EndGaussPoint
FN:1415,GiD_EndGaussPoint
FN:1426,GiD_fEndGaussPoint
FN:1439,_GiD_WriteGaussPoint2D
FN:1450,GiD_WriteGaussPoint2D
FN:1461,GiD_fWriteGaussPoint2D
FN:1470,_GiD_WriteGaussPoint3D
FN:1481,GiD_WriteGaussPoint3D
FN:1492,GiD_fWriteGaussPoint3D
FN:1505,_GiD_BeginRangeTable
FN:1523,GiD_BeginRangeTable
FN:1534,GiD_fBeginRangeTable
FN:1547,_GiD_EndRangeTable
FN:1559,GiD_EndRangeTable
FN:1570,GiD_fEndRangeTable
FN:1591,_GiD_WriteMinRange
FN:1605,GiD_WriteMinRange
FN:1616,GiD_fWriteMinRange
FN:1625,_GiD_WriteRange
FN:1640,GiD_WriteRange
FN:1651,GiD_fWriteRange
FN:1660,_GiD_WriteMaxRange
FN:1674,GiD_WriteMaxRange
FN:1685,GiD_fWriteMaxRange
FN:1698,_GiD_BeginResult
FN:1761,GiD_BeginResult
FN:1781,GiD_fBeginResult
FN:1797,_GiD_BeginResultHeader
FN:1840,GiD_BeginResultHeader
FN:1857,GiD_fBeginResultHeader
FN:1883,_GiD_ResultRange
FN:1902,GiD_ResultRange
FN:1913,GiD_fResultRange
FN:1922,_GiD_ResultComponents
FN:1948,GiD_ResultComponents
FN:1959,GiD_fResultComponents
FN:1968,_GiD_ResultUnit
FN:1987,GiD_ResultUnit
FN:1997,GiD_fResultUnit
FN:2004,_GiD_ResultUserDefined
FN:2027,GiD_ResultUserDefined
FN:2037,GiD_fResultUserDefined
FN:2044,_GiD_BeginResultGroup
FN:2084,GiD_BeginResultGroup
FN:2099,GiD_fBeginResultGroup
FN:2124,_GiD_ResultDescription_
FN:2152,GiD_ResultDescription
FN:2163,GiD_fResultDescription
FN:2173,GiD_ResultDescriptionDim
FN:2186,GiD_fResultDescriptionDim
FN:2197,GiD_ResultLocalAxes
FN:2208,GiD_ResultIsDeformationVector
FN:2218,GiD_ResultValues
FN:2229,GiD_fResultValues
FN:2238,_GiD_EndResult
FN:2257,GiD_EndResult
FN:2268,GiD_fEndResult
FN:2283,_GiD_BeginOnMeshGroup
FN:2291,GiD_BeginOnMeshGroup
FN:2302,GiD_fBeginOnMeshGroup
FN:2316,GiD_EndOnMeshGroup
FN:2327,GiD_fEndOnMeshGroup
FN:2340,GiD_FlushPostFile
FN:2354,GiD_fFlushPostFile
FN:2368,GiD_EnsureBeginValues
FN:2385,_GiD_WriteScalar
FN:2397,GiD_WriteScalar
FN:2408,GiD_fWriteScalar
FN:2417,_GiD_Write2DVector
FN:2436,GiD_Write2DVector
FN:2447,GiD_fWrite2DVector
FN:2456,_GiD_WriteVector
FN:2477,GiD_WriteVector
FN:2488,GiD_fWriteVector
FN:2497,_GiD_WriteVectorModule
FN:2513,GiD_WriteVectorModule
FN:2524,GiD_fWriteVectorModule
FN:2538,_GiD_Write2DMatrix
FN:2559,GiD_Write2DMatrix
FN:2570,GiD_fWrite2DMatrix
FN:2579,_GiD_Write3DMatrix
FN:2596,GiD_Write3DMatrix
FN:2611,GiD_fWrite3DMatrix
FN:2624,_GiD_WritePlainDefMatrix
FN:2647,GiD_WritePlainDefMatrix
FN:2660,GiD_fWritePlainDefMatrix
FN:2671,_GiD_WriteMainMatrix
FN:2697,GiD_WriteMainMatrix
FN:2716,GiD_fWriteMainMatrix
FN:2733,_GiD_WriteLocalAxes
FN:2749,GiD_WriteLocalAxes
FN:2760,GiD_fWriteLocalAxes
FN:2774,_GiD_WriteComplexScalar
FN:2789,GiD_WriteComplexScalar
FN:2798,GiD_fWriteComplexScalar
FN:2804,_GiD_Write2DComplexVector
FN:2829,GiD_Write2DComplexVector
FN:2840,GiD_fWrite2DComplexVector
FN:2848,_GiD_WriteComplexVector
FN:2874,GiD_WriteComplexVector
FN:2886,GiD_fWriteComplexVector
FNDA:0,GetElementTypeName
FNDA:0,GetMeshFile
FNDA:0,GiD_BeginCoordinates
FNDA:0,GiD_BeginElements
FNDA:0,GiD_BeginGaussPoint
FNDA:0,GiD_BeginMesh
FNDA:0,GiD_BeginMeshColor
FNDA:0,GiD_BeginMeshGroup
FNDA:0,GiD_BeginOnMeshGroup
FNDA:0,GiD_BeginRangeTable
FNDA:0,GiD_BeginResult
FNDA:0,GiD_BeginResultGroup
FNDA:0,GiD_BeginResultHeader
FNDA:0,GiD_ClosePostMeshFile
FNDA:0,GiD_ClosePostResultFile
FNDA:0,GiD_EndCoordinates
FNDA:0,GiD_EndElements
FNDA:0,GiD_EndGaussPoint
FNDA:0,GiD_EndMesh
FNDA:0,GiD_EndMeshGroup
FNDA:0,GiD_EndOnMeshGroup
FNDA:0,GiD_EndRangeTable
FNDA:0,GiD_EndResult
FNDA:0,GiD_EnsureBeginValues
FNDA:0,GiD_FlushPostFile
FNDA:0,GiD_MeshLocalAxes
FNDA:0,GiD_MeshUnit
FNDA:0,GiD_OpenPostMeshFile
FNDA:0,GiD_OpenPostResultFile
FNDA:0,GiD_PostDone
FNDA:0,GiD_PostInit
FNDA:0,GiD_ResultComponents
FNDA:0,GiD_ResultDescription
FNDA:0,GiD_ResultDescriptionDim
FNDA:0,GiD_ResultIsDeformationVector
FNDA:0,GiD_ResultLocalAxes
FNDA:0,GiD_ResultRange
FNDA:0,GiD_ResultUnit
FNDA:0,GiD_ResultUserDefined
FNDA:0,GiD_ResultValues
FNDA:0,GiD_Write2DComplexVector
FNDA:0,GiD_Write2DMatrix
FNDA:0,GiD_Write2DVector
FNDA:0,GiD_Write3DMatrix
FNDA:0,GiD_WriteCircle
FNDA:0,GiD_WriteCircleMat
FNDA:0,GiD_WriteCluster
FNDA:0,GiD_WriteClusterMat
FNDA:0,GiD_WriteComplexScalar
FNDA:0,GiD_WriteComplexVector
FNDA:0,GiD_WriteCoordinates
FNDA:0,GiD_WriteCoordinates2D
FNDA:0,GiD_WriteElement
FNDA:0,GiD_WriteElementMat
FNDA:0,GiD_WriteGaussPoint2D
FNDA:0,GiD_WriteGaussPoint3D
FNDA:0,GiD_WriteLocalAxes
FNDA:0,GiD_WriteMainMatrix
FNDA:0,GiD_WriteMaxRange
FNDA:0,GiD_WriteMinRange
FNDA:0,GiD_WritePlainDefMatrix
FNDA:0,GiD_WriteRange
FNDA:0,GiD_WriteScalar
FNDA:0,GiD_WriteSphere
FNDA:0,GiD_WriteSphereMat
FNDA:0,GiD_WriteVector
FNDA:0,GiD_WriteVectorModule
FNDA:0,GiD_fBeginCoordinates
FNDA:0,GiD_fBeginElements
FNDA:0,GiD_fBeginGaussPoint
FNDA:0,GiD_fBeginMesh
FNDA:0,GiD_fBeginMeshColor
FNDA:0,GiD_fBeginMeshGroup
FNDA:0,GiD_fBeginOnMeshGroup
FNDA:0,GiD_fBeginRangeTable
FNDA:0,GiD_fBeginResult
FNDA:0,GiD_fBeginResultGroup
FNDA:0,GiD_fBeginResultHeader
FNDA:0,GiD_fClosePostMeshFile
FNDA:0,GiD_fClosePostResultFile
FNDA:0,GiD_fEndCoordinates
FNDA:0,GiD_fEndElements
FNDA:0,GiD_fEndGaussPoint
FNDA:0,GiD_fEndMesh
FNDA:0,GiD_fEndMeshGroup
FNDA:0,GiD_fEndOnMeshGroup
FNDA:0,GiD_fEndRangeTable
FNDA:0,GiD_fEndResult
FNDA:0,GiD_fFlushPostFile
FNDA:0,GiD_fMeshUnit
FNDA:0,GiD_fOpenPostMeshFile
FNDA:0,GiD_fOpenPostResultFile
FNDA:0,GiD_fResultComponents
FNDA:0,GiD_fResultDescription
FNDA:0,GiD_fResultDescriptionDim
FNDA:0,GiD_fResultRange
FNDA:0,GiD_fResultUnit
FNDA:0,GiD_fResultUserDefined
FNDA:0,GiD_fResultValues
FNDA:0,GiD_fWrite2DComplexVector
FNDA:0,GiD_fWrite2DMatrix
FNDA:0,GiD_fWrite2DVector
FNDA:0,GiD_fWrite3DMatrix
FNDA:0,GiD_fWriteCircle
FNDA:0,GiD_fWriteCircleMat
FNDA:0,GiD_fWriteCluster
FNDA:0,GiD_fWriteClusterMat
FNDA:0,GiD_fWriteComplexScalar
FNDA:0,GiD_fWriteComplexVector
FNDA:0,GiD_fWriteCoordinates
FNDA:0,GiD_fWriteCoordinates2D
FNDA:0,GiD_fWriteElement
FNDA:0,GiD_fWriteElementMat
FNDA:0,GiD_fWriteGaussPoint2D
FNDA:0,GiD_fWriteGaussPoint3D
FNDA:0,GiD_fWriteLocalAxes
FNDA:0,GiD_fWriteMainMatrix
FNDA:0,GiD_fWriteMaxRange
FNDA:0,GiD_fWriteMinRange
FNDA:0,GiD_fWritePlainDefMatrix
FNDA:0,GiD_fWriteRange
FNDA:0,GiD_fWriteScalar
FNDA:0,GiD_fWriteSphere
FNDA:0,GiD_fWriteSphereMat
FNDA:0,GiD_fWriteVector
FNDA:0,GiD_fWriteVectorModule
FNDA:0,NewFile
FNDA:0,_GiD_BeginCoordinates
FNDA:0,_GiD_BeginElements
FNDA:0,_GiD_BeginGaussPoint
FNDA:0,_GiD_BeginMesh
FNDA:0,_GiD_BeginMeshColor
FNDA:0,_GiD_BeginMeshGroup
FNDA:0,_GiD_BeginOnMeshGroup
FNDA:0,_GiD_BeginRangeTable
FNDA:0,_GiD_BeginResult
FNDA:0,_GiD_BeginResultGroup
FNDA:0,_GiD_BeginResultHeader
FNDA:0,_GiD_EndCoordinates
FNDA:0,_GiD_EndElements
FNDA:0,_GiD_EndGaussPoint
FNDA:0,_GiD_EndRangeTable
FNDA:0,_GiD_EndResult
FNDA:0,_GiD_MeshUnit
FNDA:0,_GiD_ResultComponents
FNDA:0,_GiD_ResultDescription_
FNDA:0,_GiD_ResultRange
FNDA:0,_GiD_ResultUnit
FNDA:0,_GiD_ResultUserDefined
FNDA:0,_GiD_Write2DComplexVector
FNDA:0,_GiD_Write2DMatrix
FNDA:0,_GiD_Write2DVector
FNDA:0,_GiD_Write3DMatrix
FNDA:0,_GiD_WriteCircle
FNDA:0,_GiD_WriteCircleMat
FNDA:0,_GiD_WriteCluster
FNDA:0,_GiD_WriteClusterMat
FNDA:0,_GiD_WriteComplexScalar
FNDA:0,_GiD_WriteComplexVector
FNDA:0,_GiD_WriteCoordinates2D
FNDA:0,_GiD_WriteElement
FNDA:0,_GiD_WriteElementMat
FNDA:0,_GiD_WriteGaussPoint2D
FNDA:0,_GiD_WriteGaussPoint3D
FNDA:0,_GiD_WriteLocalAxes
FNDA:0,_GiD_WriteMainMatrix
FNDA:0,_GiD_WriteMaxRange
FNDA:0,_GiD_WriteMinRange
FNDA:0,_GiD_WritePlainDefMatrix
FNDA:0,_GiD_WriteRange
FNDA:0,_GiD_WriteScalar
FNDA:0,_GiD_WriteSphere
FNDA:0,_GiD_WriteSphereMat
FNDA:0,_GiD_WriteVector
FNDA:0,_GiD_WriteVectorModule
FNDA:0,change_quotes
FNDA:0,string_hasspace
FNF:177
FNH:0
DA:31,0
DA:34,0
DA:35,0
DA:36,0
DA:37,0
DA:40,0
DA:44,0
DA:49,0
DA:51,0
DA:52,0
DA:54,0
DA:110,0
DA:112,0
DA:115,0
DA:117,0
DA:118,0
DA:119,0
DA:120,0
DA:121,0
DA:122,0
DA:123,0
DA:124,0
DA:147,0
DA:149,0
DA:208,0
DA:210,0
DA:213,0
DA:215,0
DA:229,0
DA:231,0
DA:233,0
DA:243,0
DA:247,0
DA:250,0
DA:252,0
DA:254,0
DA:255,0
DA:256,0
DA:258,0
DA:259,0
DA:262,0
DA:271,0
DA:275,0
DA:279,0
DA:280,0
DA:282,0
DA:283,0
DA:291,0
DA:303,0
DA:304,0
DA:305,0
DA:307,0
DA:310,0
DA:313,0
DA:318,0
DA:320,0
DA:321,0
DA:323,0
DA:333,0
DA:348,0
DA:349,0
DA:352,0
DA:353,0
DA:354,0
DA:355,0
DA:356,0
DA:359,0
DA:370,0
DA:371,0
DA:375,0
DA:380,0
DA:381,0
DA:393,0
DA:401,0
DA:403,0
DA:404,0
DA:406,0
DA:409,0
DA:421,0
DA:422,0
DA:426,0
DA:433,0
DA:435,0
DA:443,0
DA:457,0
DA:460,0
DA:462,0
DA:465,0
DA:467,0
DA:470,0
DA:474,0
DA:475,0
DA:480,0
DA:487,0
DA:492,0
DA:495,0
DA:496,0
DA:499,0
DA:506,0
DA:514,0
DA:519,0
DA:520,0
DA:523,0
DA:532,0
DA:535,0
DA:539,0
DA:540,0
DA:547,0
DA:558,0
DA:559,0
DA:560,0
DA:563,0
DA:571,0
DA:574,0
DA:578,0
DA:580,0
DA:588,0
DA:597,0
DA:600,0
DA:601,0
DA:602,0
DA:603,0
DA:606,0
DA:616,0
DA:617,0
DA:620,0
DA:624,0
DA:626,0
DA:634,0
DA:642,0
DA:645,0
DA:649,0
DA:651,0
DA:658,0
DA:671,0
DA:672,0
DA:673,0
DA:676,0
DA:681,0
DA:686,0
DA:687,0
DA:688,0
DA:691,0
DA:697,0
DA:698,0
DA:699,0
DA:700,0
DA:701,0
DA:704,0
DA:713,0
DA:716,0
DA:720,0
DA:722,0
DA:729,0
DA:733,0
DA:734,0
DA:736,0
DA:744,0
DA:747,0
DA:751,0
DA:752,0
DA:759,0
DA:763,0
DA:764,0
DA:767,0
DA:775,0
DA:778,0
DA:782,0
DA:784,0
DA:795,0
DA:800,0
DA:803,0
DA:811,0
DA:814,0
DA:818,0
DA:820,0
DA:831,0
DA:836,0
DA:837,0
DA:841,0
DA:849,0
DA:852,0
DA:856,0
DA:858,0
DA:874,0
DA:879,0
DA:880,0
DA:881,0
DA:882,0
DA:883,0
DA:885,0
DA:888,0
DA:896,0
DA:899,0
DA:903,0
DA:905,0
DA:925,0
DA:930,0
DA:931,0
DA:932,0
DA:933,0
DA:934,0
DA:937,0
DA:945,0
DA:948,0
DA:952,0
DA:954,0
DA:972,0
DA:979,0
DA:980,0
DA:981,0
DA:982,0
DA:983,0
DA:984,0
DA:985,0
DA:986,0
DA:988,0
DA:991,0
DA:1000,0
DA:1003,0
DA:1008,0
DA:1010,0
DA:1030,0
DA:1036,0
DA:1037,0
DA:1038,0
DA:1039,0
DA:1040,0
DA:1041,0
DA:1042,0
DA:1043,0
DA:1046,0
DA:1055,0
DA:1058,0
DA:1063,0
DA:1065,0
DA:1079,0
DA:1084,0
DA:1085,0
DA:1086,0
DA:1087,0
DA:1089,0
DA:1092,0
DA:1100,0
DA:1103,0
DA:1107,0
DA:1109,0
DA:1127,0
DA:1132,0
DA:1133,0
DA:1134,0
DA:1135,0
DA:1138,0
DA:1146,0
DA:1149,0
DA:1153,0
DA:1155,0
DA:1169,0
DA:1171,0
DA:1173,0
DA:1182,0
DA:1186,0
DA:1189,0
DA:1191,0
DA:1192,0
DA:1194,0
DA:1195,0
DA:1196,0
DA:1198,0
DA:1199,0
DA:1201,0
DA:1202,0
DA:1203,0
DA:1207,0
DA:1213,0
DA:1218,0
DA:1222,0
DA:1223,0
DA:1225,0
DA:1226,0
DA:1229,0
DA:1231,0
DA:1232,0
DA:1234,0
DA:1235,0
DA:1237,0
DA:1244,0
DA:1257,0
DA:1258,0
DA:1259,0
DA:1261,0
DA:1268,0
DA:1271,0
DA:1276,0
DA:1278,0
DA:1279,0
DA:1281,0
DA:1288,0
DA:1300,0
DA:1302,0
DA:1306,0
DA:1307,0
DA:1311,0
DA:1313,0
DA:1315,0
DA:1318,0
DA:1322,0
DA:1323,0
DA:1324,0
DA:1325,0
DA:1328,0
DA:1331,0
DA:1332,0
DA:1334,0
DA:1336,0
DA:1338,0
DA:1345,0
DA:1355,0
DA:1360,0
DA:1367,0
DA:1369,0
DA:1402,0
DA:1410,0
DA:1411,0
DA:1412,0
DA:1415,0
DA:1423,0
DA:1426,0
DA:1430,0
DA:1432,0
DA:1439,0
DA:1443,0
DA:1444,0
DA:1445,0
DA:1450,0
DA:1458,0
DA:1461,0
DA:1465,0
DA:1467,0
DA:1470,0
DA:1474,0
DA:1475,0
DA:1476,0
DA:1481,0
DA:1489,0
DA:1492,0
DA:1496,0
DA:1498,0
DA:1505,0
DA:1513,0
DA:1515,0
DA:1516,0
DA:1517,0
DA:1518,0
DA:1523,0
DA:1531,0
DA:1534,0
DA:1538,0
DA:1540,0
DA:1547,0
DA:1552,0
DA:1553,0
DA:1554,0
DA:1559,0
DA:1567,0
DA:1570,0
DA:1574,0
DA:1576,0
DA:1591,0
DA:1599,0
DA:1601,0
DA:1602,0
DA:1605,0
DA:1613,0
DA:1616,0
DA:1620,0
DA:1622,0
DA:1625,0
DA:1634,0
DA:1636,0
DA:1637,0
DA:1640,0
DA:1648,0
DA:1651,0
DA:1655,0
DA:1657,0
DA:1660,0
DA:1668,0
DA:1670,0
DA:1671,0
DA:1674,0
DA:1682,0
DA:1685,0
DA:1689,0
DA:1691,0
DA:1698,0
DA:1717,0
DA:1718,0
DA:1719,0
DA:1720,0
DA:1722,0
DA:1723,0
DA:1724,0
DA:1726,0
DA:1730,0
DA:1732,0
DA:1734,0
DA:1736,0
DA:1738,0
DA:1739,0
DA:1742,0
DA:1744,0
DA:1745,0
DA:1750,0
DA:1752,0
DA:1755,0
DA:1756,0
DA:1757,0
DA:1758,0
DA:1761,0
DA:1777,0
DA:1781,0
DA:1791,0
DA:1793,0
DA:1797,0
DA:1815,0
DA:1816,0
DA:1817,0
DA:1818,0
DA:1820,0
DA:1821,0
DA:1822,0
DA:1824,0
DA:1828,0
DA:1830,0
DA:1834,0
DA:1835,0
DA:1836,0
DA:1837,0
DA:1840,0
DA:1853,0
DA:1857,0
DA:1865,0
DA:1867,0
DA:1883,0
DA:1893,0
DA:1894,0
DA:1896,0
DA:1897,0
DA:1902,0
DA:1910,0
DA:1913,0
DA:1917,0
DA:1919,0
DA:1922,0
DA:1933,0
DA:1935,0
DA:1936,0
DA:1941,0
DA:1943,0
DA:1948,0
DA:1956,0
DA:1959,0
DA:1963,0
DA:1965,0
DA:1968,0
DA:1974,0
DA:1977,0
DA:1981,0
DA:1982,0
DA:1987,0
DA:1994,0
DA:1997,0
DA:2000,0
DA:2001,0
DA:2004,0
DA:2007,0
DA:2008,0
DA:2009,0
DA:2010,0
DA:2016,0
DA:2022,0
DA:2023,0
DA:2024,0
DA:2027,0
DA:2034,0
DA:2037,0
DA:2040,0
DA:2041,0
DA:2044,0
DA:2059,0
DA:2060,0
DA:2063,0
DA:2064,0
DA:2066,0
DA:2070,0
DA:2072,0
DA:2076,0
DA:2078,0
DA:2079,0
DA:2080,0
DA:2081,0
DA:2084,0
DA:2095,0
DA:2099,0
DA:2105,0
DA:2107,0
DA:2124,0
DA:2137,0
DA:2138,0
DA:2139,0
DA:2141,0
DA:2142,0
DA:2146,0
DA:2148,0
DA:2149,0
DA:2152,0
DA:2160,0
DA:2163,0
DA:2168,0
DA:2170,0
DA:2173,0
DA:2183,0
DA:2186,0
DA:2192,0
DA:2194,0
DA:2197,0
DA:2205,0
DA:2208,0
DA:2215,0
DA:2218,0
DA:2226,0
DA:2229,0
DA:2231,0
DA:2238,0
DA:2246,0
DA:2247,0
DA:2251,0
DA:2252,0
DA:2253,0
DA:2254,0
DA:2257,0
DA:2265,0
DA:2268,0
DA:2272,0
DA:2274,0
DA:2283,0
DA:2288,0
DA:2291,0
DA:2299,0
DA:2302,0
DA:2306,0
DA:2308,0
DA:2316,0
DA:2324,0
DA:2327,0
DA:2331,0
DA:2333,0
DA:2340,0
DA:2349,0
DA:2350,0
DA:2351,0
DA:2354,0
DA:2358,0
DA:2360,0
DA:2368,0
DA:2372,0
DA:2373,0
DA:2374,0
DA:2375,0
DA:2376,0
DA:2378,0
DA:2379,0
DA:2385,0
DA:2387,0
DA:2391,0
DA:2392,0
DA:2393,0
DA:2394,0
DA:2397,0
DA:2405,0
DA:2408,0
DA:2412,0
DA:2414,0
DA:2417,0
DA:2419,0
DA:2423,0
DA:2424,0
DA:2425,0
DA:2426,0
DA:2427,0
DA:2430,0
DA:2432,0
DA:2436,0
DA:2444,0
DA:2447,0
DA:2451,0
DA:2453,0
DA:2456,0
DA:2458,0
DA:2462,0
DA:2463,0
DA:2465,0
DA:2467,0
DA:2468,0
DA:2471,0
DA:2473,0
DA:2477,0
DA:2485,0
DA:2488,0
DA:2492,0
DA:2494,0
DA:2497,0
DA:2500,0
DA:2505,0
DA:2507,0
DA:2509,0
DA:2510,0
DA:2513,0
DA:2521,0
DA:2524,0
DA:2529,0
DA:2531,0
DA:2538,0
DA:2542,0
DA:2543,0
DA:2548,0
DA:2551,0
DA:2553,0
DA:2555,0
DA:2556,0
DA:2559,0
DA:2567,0
DA:2570,0
DA:2574,0
DA:2576,0
DA:2579,0
DA:2583,0
DA:2587,0
DA:2589,0
DA:2592,0
DA:2593,0
DA:2596,0
DA:2606,0
DA:2611,0
DA:2617,0
DA:2619,0
DA:2624,0
DA:2634,0
DA:2638,0
DA:2640,0
DA:2643,0
DA:2644,0
DA:2647,0
DA:2656,0
DA:2660,0
DA:2665,0
DA:2667,0
DA:2671,0
DA:2677,0
DA:2681,0
DA:2683,0
DA:2689,0
DA:2690,0
DA:2697,0
DA:2709,0
DA:2716,0
DA:2724,0
DA:2726,0
DA:2733,0
DA:2736,0
DA:2740,0
DA:2742,0
DA:2745,0
DA:2746,0
DA:2749,0
DA:2757,0
DA:2760,0
DA:2765,0
DA:2767,0
DA:2774,0
DA:2776,0
DA:2780,0
DA:2782,0
DA:2785,0
DA:2786,0
DA:2789,0
DA:2795,0
DA:2798,0
DA:2800,0
DA:2801,0
DA:2804,0
DA:2807,0
DA:2808,0
DA:2809,0
DA:2810,0
DA:2811,0
DA:2813,0
DA:2817,0
DA:2819,0
DA:2823,0
DA:2824,0
DA:2829,0
DA:2837,0
DA:2840,0
DA:2844,0
DA:2845,0
DA:2848,0
DA:2852,0
DA:2853,0
DA:2854,0
DA:2855,0
DA:2856,0
DA:2858,0
DA:2862,0
DA:2864,0
DA:2868,0
DA:2869,0
DA:2874,0
DA:2883,0
DA:2886,0
DA:2891,0
DA:2892,0
LF:723
LH:0
end_of_record
TN:
SF:/root/Kratos/external_libraries/gidpost/source/gidpostHash.c
FN:46,GiD_HashInit
FN:69,GiD_HashDone
FN:84,GiD_HashAdd
FN:105,GiD_HashFind
FN:122,GiD_HashRemove
FNDA:0,GiD_HashAdd
FNDA:0,GiD_HashDone
FNDA:0,GiD_HashFind
FNDA:0,GiD_HashInit
FNDA:0,GiD_HashRemove
FNF:5
FNH:0
DA:46,0
DA:49,0
DA:54,0
DA:56,0
DA:58,0
DA:59,0
DA:62,0
DA:69,0
DA:71,0
DA:73,0
DA:74,0
DA:76,0
DA:77,0
DA:79,0
DA:80,0
DA:81,0
DA:84,0
DA:89,0
DA:92,0
DA:94,0
DA:98,0
DA:100,0
DA:102,0
DA:105,0
DA:109,0
DA:112,0
DA:114,0
DA:115,0
DA:118,0
DA:119,0
DA:122,0
DA:124,0
DA:128,0
DA:130,0
DA:132,0
DA:134,0
DA:137,0
LF:37
LH:0
end_of_record
TN:
SF:/root/Kratos/external_libraries/gidpost/source/gidpostInt.c
FN:55,GetResultTypeName
FN:76,GetResultTypeMinMaxValues
FN:94,CPostFile_Create
FN:130,CPostFile_Release
FN:145,CPostFile_Open
FN:152,CPostFile_Close
FN:159,CPostFile_Flush
FN:166,CPostFile_IsBinary
FN:173,CPostFile_WriteString
FN:180,CPostFile_BeginCoordinates
FN:188,CPostFile_BeginElements
FN:196,CPostFile_BeginValues
FN:204,CPostFile_EndValues
FN:212,CPostFile_WriteInteger
FN:220,CPostFile_WriteDouble
FN:228,CPostFile_WriteValuesVA
FN:243,CPostFile_WriteValues
FN:251,CPostFile_Write2D
FN:259,CPostFile_Write3D
FN:267,CPostFile_WriteElement
FN:275,CPostFile_WritePostHeader
FN:283,CPostFile_ResetLastID
FN:290,CPostFile_SetConnectivity
FN:297,CPostFile_GetConnectivity
FN:304,CPostFile_MatchConnectivity
FN:317,CPostAscii_Create
FN:329,CPostAscii_Open
FN:349,CPostAscii_Close
FN:362,CPostAscii_Flush
FN:368,CPostAscii_IsBinary
FN:374,CPostAscii_WriteString
FN:383,CPostAscii_BeginCoordinates
FN:389,CPostAscii_BeginElements
FN:395,CPostAscii_BeginValues
FN:401,CPostAscii_EndValues
FN:407,CPostAscii_WriteInteger
FN:423,CPostAscii_WriteDouble
FN:436,CPostAscii_WriteValuesVA
FN:457,CPostAscii_WriteValues
FN:473,CPostAscii_Write2D
FN:482,CPostAscii_Write3D
FN:491,CPostAscii_WriteElement
FN:507,CPostAscii_WritePostHeader
FN:543,CPostAsciiZ_Create
FN:555,CPostAsciiZ_Open
FN:576,CPostAsciiZ_Close
FN:589,CPostAsciiZ_Flush
FN:597,CPostAsciiZ_IsBinary
FN:603,CPostAsciiZ_WriteString
FN:612,CPostAsciiZ_BeginCoordinates
FN:618,CPostAsciiZ_BeginElements
FN:624,CPostAsciiZ_BeginValues
FN:630,CPostAsciiZ_EndValues
FN:636,CPostAsciiZ_WriteInteger
FN:654,CPostAsciiZ_WriteDouble
FN:668,CPostAsciiZ_WriteValuesVA
FN:688,CPostAsciiZ_WriteValues
FN:705,CPostAsciiZ_Write2D
FN:714,CPostAsciiZ_Write3D
FN:723,CPostAsciiZ_WriteElement
FN:739,CPostAsciiZ_WritePostHeader
FN:775,CPostBinary_Create
FN:787,CPostBinary_Open
FN:814,CPostBinary_Close
FN:828,CPostBinary_Flush
FN:836,CPostBinary_IsBinary
FN:842,CPostBinary_WriteString
FN:864,CPostBinary_BeginCoordinates
FN:870,CPostBinary_BeginElements
FN:876,CPostBinary_BeginValues
FN:882,CPostBinary_EndValues
FN:895,CPostBinary_WriteInteger
FN:905,CPostBinary_WriteDouble
FN:917,CPostBinary_WriteValuesVA
FN:937,CPostBinary_WriteValues
FN:957,CPostBinary_Write2D
FN:972,CPostBinary_Write3D
FN:988,CPostBinary_WriteElement
FN:1018,CPostBinary_WritePostHeader
FN:1065,CBufferValues_Create
FN:1073,CBufferValues_Destroy
FN:1087,CPostFile_ResultGroupOnBegin
FN:1101,CPostFile_ResultGroupOnNewType
FN:1122,CPostFile_ResultGroupOnBeginValues
FN:1141,CPostFile_ResultGroupFlushValues
FN:1162,CBufferValues_OnWriteType
FN:1180,CPostFile_ResultGroupWriteValues
FN:1208,CPostFile_ResultGroupIsEmpty
FNDA:0,CBufferValues_Create
FNDA:0,CBufferValues_Destroy
FNDA:0,CBufferValues_OnWriteType
FNDA:0,CPostAsciiZ_BeginCoordinates
FNDA:0,CPostAsciiZ_BeginElements
FNDA:0,CPostAsciiZ_BeginValues
FNDA:0,CPostAsciiZ_Close
FNDA:0,CPostAsciiZ_Create
FNDA:0,CPostAsciiZ_EndValues
FNDA:0,CPostAsciiZ_Flush
FNDA:0,CPostAsciiZ_IsBinary
FNDA:0,CPostAsciiZ_Open
FNDA:0,CPostAsciiZ_Write2D
FNDA:0,CPostAsciiZ_Write3D
FNDA:0,CPostAsciiZ_WriteDouble
FNDA:0,CPostAsciiZ_WriteElement
FNDA:0,CPostAsciiZ_WriteInteger
FNDA:0,CPostAsciiZ_WritePostHeader
FNDA:0,CPostAsciiZ_WriteString
FNDA:0,CPostAsciiZ_WriteValues
FNDA:0,CPostAsciiZ_WriteValuesVA
FNDA:0,CPostAscii_BeginCoordinates
FNDA:0,CPostAscii_BeginElements
FNDA:0,CPostAscii_BeginValues
FNDA:0,CPostAscii_Close
FNDA:0,CPostAscii_Create
FNDA:0,CPostAscii_EndValues
FNDA:0,CPostAscii_Flush
FNDA:0,CPostAscii_IsBinary
FNDA:0,CPostAscii_Open
FNDA:0,CPostAscii_Write2D
FNDA:0,CPostAscii_Write3D
FNDA:0,CPostAscii_WriteDouble
FNDA:0,CPostAscii_WriteElement
FNDA:0,CPostAscii_WriteInteger
FNDA:0,CPostAscii_WritePostHeader
FNDA:0,CPostAscii_WriteString
FNDA:0,CPostAscii_WriteValues
FNDA:0,CPostAscii_WriteValuesVA
FNDA:0,CPostBinary_BeginCoordinates
FNDA:0,CPostBinary_BeginElements
FNDA:0,CPostBinary_BeginValues
FNDA:0,CPostBinary_Close
FNDA:0,CPostBinary_Create
FNDA:0,CPostBinary_EndValues
FNDA:0,CPostBinary_Flush
FNDA:0,CPostBinary_IsBinary
FNDA:0,CPostBinary_Open
FNDA:0,CPostBinary_Write2D
FNDA:0,CPostBinary_Write3D
FNDA:0,CPostBinary_WriteDouble
FNDA:0,CPostBinary_WriteElement
FNDA:0,CPostBinary_WriteInteger
FNDA:0,CPostBinary_WritePostHeader
FNDA:0,CPostBinary_WriteString
FNDA:0,CPostBinary_WriteValues
FNDA:0,CPostBinary_WriteValuesVA
FNDA:0,CPostFile_BeginCoordinates
FNDA:0,CPostFile_BeginElements
FNDA:0,CPostFile_BeginValues
FNDA:0,CPostFile_Close
FNDA:0,CPostFile_Create
FNDA:0,CPostFile_EndValues
FNDA:0,CPostFile_Flush
FNDA:0,CPostFile_GetConnectivity
FNDA:0,CPostFile_IsBinary
FNDA:0,CPostFile_MatchConnectivity
FNDA:0,CPostFile_Open
FNDA:0,CPostFile_Release
FNDA:0,CPostFile_ResetLastID
FNDA:0,CPostFile_ResultGroupFlushValues
FNDA:0,CPostFile_ResultGroupIsEmpty
FNDA:0,CPostFile_ResultGroupOnBegin
FNDA:0,CPostFile_ResultGroupOnBeginValues
FNDA:0,CPostFile_ResultGroupOnNewType
FNDA:0,CPostFile_ResultGroupWriteValues
FNDA:0,CPostFile_SetConnectivity
FNDA:0,CPostFile_Write2D
FNDA:0,CPostFile_Write3D
FNDA:0,CPostFile_WriteDouble
FNDA:0,CPostFile_WriteElement
FNDA:0,CPostFile_WriteInteger
FNDA:0,CPostFile_WritePostHeader
FNDA:0,CPostFile_WriteString
FNDA:0,CPostFile_WriteValues
FNDA:0,CPostFile_WriteValuesVA
FNDA:0,GetResultTypeMinMaxValues
FNDA:0,GetResultTypeName
FNF:88
FNH:0
DA:55,0
DA:61,0
DA:62,0
DA:63,0
DA:64,0
DA:65,0
DA:68,0
DA:69,0
DA:71,0
DA:73,0
DA:76,0
DA:80,0
DA:81,0
DA:83,0
DA:84,0
DA:94,0
DA:96,0
DA:98,0
DA:99,0
DA:100,0
DA:101,0
DA:102,0
DA:103,0
DA:104,0
DA:105,0
DA:106,0
DA:107,0
DA:109,0
DA:110,0
DA:111,0
DA:112,0
DA:113,0
DA:114,0
DA:115,0
DA:116,0
DA:117,0
DA:118,0
DA:119,0
DA:120,0
DA:121,0
DA:122,0
DA:123,0
DA:124,0
DA:125,0
DA:127,0
DA:130,0
DA:136,0
DA:137,0
DA:138,0
DA:141,0
DA:142,0
DA:145,0
DA:149,0
DA:152,0
DA:156,0
DA:159,0
DA:163,0
DA:166,0
DA:170,0
DA:173,0
DA:177,0
DA:180,0
DA:185,0
DA:188,0
DA:193,0
DA:196,0
DA:201,0
DA:204,0
DA:209,0
DA:212,0
DA:217,0
DA:220,0
DA:225,0
DA:228,0
DA:236,0
DA:237,0
DA:238,0
DA:240,0
DA:243,0
DA:248,0
DA:251,0
DA:256,0
DA:259,0
DA:264,0
DA:267,0
DA:272,0
DA:275,0
DA:280,0
DA:283,0
DA:287,0
DA:288,0
DA:290,0
DA:294,0
DA:295,0
DA:297,0
DA:301,0
DA:304,0
DA:306,0
DA:307,0
DA:317,0
DA:321,0
DA:323,0
DA:329,0
DA:343,0
DA:345,0
DA:349,0
DA:353,0
DA:354,0
DA:355,0
DA:357,0
DA:358,0
DA:362,0
DA:364,0
DA:368,0
DA:370,0
DA:374,0
DA:378,0
DA:379,0
DA:383,0
DA:385,0
DA:389,0
DA:391,0
DA:395,0
DA:397,0
DA:401,0
DA:403,0
DA:407,0
DA:411,0
DA:412,0
DA:414,0
DA:415,0
DA:416,0
DA:419,0
DA:423,0
DA:428,0
DA:429,0
DA:430,0
DA:432,0
DA:436,0
DA:444,0
DA:445,0
DA:446,0
DA:447,0
DA:448,0
DA:450,0
DA:451,0
DA:453,0
DA:457,0
DA:463,0
DA:464,0
DA:465,0
DA:466,0
DA:467,0
DA:468,0
DA:469,0
DA:473,0
DA:478,0
DA:482,0
DA:487,0
DA:491,0
DA:497,0
DA:498,0
DA:499,0
DA:501,0
DA:503,0
DA:507,0
DA:509,0
DA:517,0
DA:518,0
DA:519,0
DA:520,0
DA:521,0
DA:522,0
DA:523,0
DA:524,0
DA:525,0
DA:526,0
DA:527,0
DA:528,0
DA:529,0
DA:530,0
DA:531,0
DA:532,0
DA:533,0
DA:543,0
DA:547,0
DA:549,0
DA:555,0
DA:570,0
DA:572,0
DA:576,0
DA:580,0
DA:581,0
DA:582,0
DA:584,0
DA:585,0
DA:589,0
DA:593,0
DA:597,0
DA:599,0
DA:603,0
DA:607,0
DA:608,0
DA:612,0
DA:614,0
DA:618,0
DA:620,0
DA:624,0
DA:626,0
DA:630,0
DA:632,0
DA:636,0
DA:640,0
DA:641,0
DA:642,0
DA:644,0
DA:645,0
DA:646,0
DA:650,0
DA:654,0
DA:659,0
DA:660,0
DA:661,0
DA:664,0
DA:668,0
DA:675,0
DA:676,0
DA:677,0
DA:678,0
DA:679,0
DA:681,0
DA:682,0
DA:684,0
DA:688,0
DA:694,0
DA:695,0
DA:696,0
DA:697,0
DA:698,0
DA:699,0
DA:701,0
DA:705,0
DA:710,0
DA:714,0
DA:719,0
DA:723,0
DA:729,0
DA:730,0
DA:731,0
DA:733,0
DA:735,0
DA:739,0
DA:741,0
DA:749,0
DA:750,0
DA:751,0
DA:752,0
DA:753,0
DA:754,0
DA:755,0
DA:756,0
DA:757,0
DA:758,0
DA:759,0
DA:760,0
DA:761,0
DA:762,0
DA:763,0
DA:764,0
DA:765,0
DA:775,0
DA:779,0
DA:781,0
DA:787,0
DA:802,0
DA:806,0
DA:807,0
DA:810,0
DA:814,0
DA:818,0
DA:819,0
DA:820,0
DA:822,0
DA:824,0
DA:828,0
DA:832,0
DA:836,0
DA:838,0
DA:842,0
DA:848,0
DA:849,0
DA:852,0
DA:853,0
DA:854,0
DA:855,0
DA:856,0
DA:857,0
DA:858,0
DA:860,0
DA:864,0
DA:866,0
DA:870,0
DA:872,0
DA:876,0
DA:878,0
DA:882,0
DA:884,0
DA:889,0
DA:891,0
DA:895,0
DA:900,0
DA:901,0
DA:905,0
DA:907,0
DA:912,0
DA:913,0
DA:917,0
DA:925,0
DA:926,0
DA:927,0
DA:929,0
DA:930,0
DA:931,0
DA:933,0
DA:937,0
DA:945,0
DA:946,0
DA:947,0
DA:949,0
DA:950,0
DA:951,0
DA:953,0
DA:957,0
DA:964,0
DA:965,0
DA:966,0
DA:968,0
DA:972,0
DA:979,0
DA:980,0
DA:981,0
DA:982,0
DA:984,0
DA:988,0
DA:995,0
DA:996,0
DA:997,0
DA:1000,0
DA:1001,0
DA:1003,0
DA:1005,0
DA:1018,0
DA:1020,0
DA:1028,0
DA:1029,0
DA:1030,0
DA:1031,0
DA:1032,0
DA:1033,0
DA:1034,0
DA:1035,0
DA:1036,0
DA:1037,0
DA:1038,0
DA:1039,0
DA:1040,0
DA:1041,0
DA:1042,0
DA:1043,0
DA:1044,0
DA:1054,0
DA:1055,0
DA:1056,0
DA:1057,0
DA:1058,0
DA:1059,0
DA:1060,0
DA:1061,0
DA:1062,0
DA:1065,0
DA:1067,0
DA:1070,0
DA:1073,0
DA:1077,0
DA:1078,0
DA:1079,0
DA:1081,0
DA:1082,0
DA:1083,0
DA:1085,0
DA:1087,0
DA:1094,0
DA:1095,0
DA:1096,0
DA:1097,0
DA:1098,0
DA:1099,0
DA:1101,0
DA:1109,0
DA:1111,0
DA:1112,0
DA:1113,0
DA:1114,0
DA:1116,0
DA:1117,0
DA:1118,0
DA:1119,0
DA:1120,0
DA:1122,0
DA:1129,0
DA:1131,0
DA:1132,0
DA:1133,0
DA:1134,0
DA:1135,0
DA:1136,0
DA:1138,0
DA:1139,0
DA:1141,0
DA:1148,0
DA:1152,0
DA:1154,0
DA:1155,0
DA:1158,0
DA:1159,0
DA:1162,0
DA:1166,0
DA:1167,0
DA:1168,0
DA:1169,0
DA:1173,0
DA:1174,0
DA:1176,0
DA:1180,0
DA:1191,0
DA:1195,0
DA:1196,0
DA:1198,0
DA:1199,0
DA:1200,0
DA:1201,0
DA:1203,0
DA:1204,0
DA:1208,0
DA:1215,0
DA:1218,0
LF:446
LH:0
end_of_record
TN:
SF:/root/Kratos/external_libraries/gidpost/source/hashtab.c
FN:82,hgrow
FN:119,gid_hcreate
FN:139,htabdestroy
FN:154,hfind
FN:180,hadd
FN:231,hdel
FN:260,hfirst
FN:274,hnbucket
FN:306,hstat
FNDA:0,gid_hcreate
FNDA:0,hadd
FNDA:0,hdel
FNDA:0,hfind
FNDA:0,hfirst
FNDA:0,hgrow
FNDA:0,hnbucket
FNDA:0,hstat
FNDA:0,htabdestroy
FNF:9
FNH:0
DA:82,0
DA:85,0
DA:86,0
DA:88,0
DA:89,0
DA:92,0
DA:93,0
DA:94,0
DA:97,0
DA:100,0
DA:103,0
DA:104,0
DA:105,0
DA:106,0
DA:111,0
DA:114,0
DA:116,0
DA:119,0
DA:123,0
DA:125,0
DA:126,0
DA:127,0
DA:128,0
DA:129,0
DA:130,0
DA:131,0
DA:132,0
DA:133,0
DA:134,0
DA:135,0
DA:139,0
DA:143,0
DA:144,0
DA:145,0
DA:146,0
DA:154,0
DA:160,0
DA:162,0
DA:164,0
DA:165,0
DA:166,0
DA:168,0
DA:169,0
DA:170,0
DA:180,0
DA:187,0
DA:190,0
DA:192,0
DA:193,0
DA:194,0
DA:196,0
DA:197,0
DA:198,0
DA:203,0
DA:206,0
DA:208,0
DA:209,0
DA:213,0
DA:214,0
DA:215,0
DA:216,0
DA:217,0
DA:218,0
DA:219,0
DA:220,0
DA:221,0
DA:227,0
DA:231,0
DA:238,0
DA:241,0
DA:243,0
DA:244,0
DA:247,0
DA:250,0
DA:256,0
DA:260,0
DA:263,0
DA:264,0
DA:265,0
DA:274,0
DA:277,0
DA:278,0
DA:282,0
DA:284,0
DA:286,0
DA:287,0
DA:288,0
DA:293,0
DA:295,0
DA:297,0
DA:298,0
DA:299,0
DA:306,0
DA:315,0
DA:317,0
DA:319,0
DA:321,0
DA:323,0
DA:327,0
DA:328,0
DA:329,0
DA:330,0
DA:334,0
DA:337,0
DA:338,0
DA:344,0
DA:346,0
DA:348,0
DA:353,0
DA:355,0
DA:357,0
DA:358,0
DA:361,0
DA:363,0
DA:364,0
DA:367,0
LF:116
LH:0
end_of_record
TN:
SF:/root/Kratos/external_libraries/gidpost/source/lookupa.c
FN:82,lookup
FN:170,checksum
FNDA:0,checksum
FNDA:0,lookup
FNF:2
FNH:0
DA:82,0
DA:95,0
DA:97,0
DA:98,0
DA:99,0
DA:100,0
DA:101,0
DA:105,0
DA:106,0
DA:108,0
DA:109,0
DA:110,0
DA:112,0
DA:113,0
DA:114,0
DA:115,0
DA:116,0
DA:117,0
DA:118,0
DA:119,0
DA:122,0
DA:124,0
DA:170,0
DA:179,0
DA:180,0
DA:183,0
DA:185,0
DA:186,0
DA:187,0
DA:188,0
DA:189,0
DA:190,0
DA:191,0
DA:192,0
DA:193,0
DA:194,0
DA:195,0
DA:196,0
DA:197,0
DA:201,0
DA:202,0
DA:204,0
DA:205,0
DA:206,0
DA:207,0
DA:208,0
DA:209,0
DA:210,0
DA:211,0
DA:212,0
DA:213,0
DA:214,0
DA:215,0
DA:216,0
DA:217,0
DA:218,0
DA:219,0
DA:220,0
DA:221,0
DA:222,0
DA:223,0
DA:224,0
DA:225,0
DA:226,0
DA:227,0
DA:228,0
DA:229,0
DA:230,0
DA:231,0
DA:232,0
DA:233,0
DA:234,0
DA:236,0
DA:237,0
DA:238,0
DA:239,0
DA:242,0
DA:243,0
DA:244,0
LF:79
LH:0
end_of_record
TN:
SF:/root/Kratos/external_libraries/gidpost/source/recycle.c
FN:23,remkroot
FN:35,refree
FN:50,renewx
FN:75,remalloc
FNDA:0,refree
FNDA:0,remalloc
FNDA:0,remkroot
FNDA:0,renewx
FNF:4
FNH:0
DA:23,0
DA:26,0
DA:27,0
DA:28,0
DA:29,0
DA:30,0
DA:31,0
DA:32,0
DA:35,0
DA:39,0
DA:41,0
DA:42,0
DA:43,0
DA:45,0
DA:46,0
DA:50,0
DA:54,0
DA:57,0
DA:59,0
DA:63,0
DA:64,0
DA:65,0
DA:67,0
DA:68,0
DA:69,0
DA:70,0
DA:72,0
DA:75,0
DA:79,0
DA:80,0
DA:82,0
DA:84,0
DA:86,0
LF:33
LH:0
end_of_record
TN:
SF:/root/Kratos/external_libraries/intrusive_ptr/intrusive_ptr.hpp
FN:88,_ZN6Kratos13intrusive_ptrINS_4NodeILm3ENS_3DofIdEEEEED2Ev
FN:128,_ZN6Kratos13intrusive_ptrINS_13VariablesListEEaSERKS2_
FN:128,_ZN6Kratos13intrusive_ptrINS_17GeometricalObjectEEaSERKS2_
FN:128,_ZN6Kratos13intrusive_ptrINS_4NodeILm3ENS_3DofIdEEEEEaSERKS5_
FN:128,_ZN6Kratos13intrusive_ptrINS_7ElementEEaSERKS2_
FN:128,_ZN6Kratos13intrusive_ptrINS_9ConditionEEaSERKS2_
FNDA:0,_ZN6Kratos13intrusive_ptrINS_17GeometricalObjectEEaSERKS2_
FNDA:0,_ZN6Kratos13intrusive_ptrINS_4NodeILm3ENS_3DofIdEEEEEaSERKS5_
FNDA:0,_ZN6Kratos13intrusive_ptrINS_7ElementEEaSERKS2_
FNDA:0,_ZN6Kratos13intrusive_ptrINS_9ConditionEEaSERKS2_
FNDA:1,_ZN6Kratos13intrusive_ptrINS_13VariablesListEEaSERKS2_
FNDA:2,_ZN6Kratos13intrusive_ptrINS_4NodeILm3ENS_3DofIdEEEEED2Ev
FNF:6
FNH:2
DA:63,365
DA:67,5
DA:69,0
DA:75,0
DA:76,0
DA:78,0
DA:83,368
DA:85,373
DA:86,0
DA:88,2
DA:90,746
DA:91,741
DA:101,1
DA:103,0
DA:104,0
DA:115,0
DA:116,0
DA:118,0
DA:128,1
DA:131,1
DA:157,1
DA:170,1
DA:176,4
DA:186,8
DA:191,0
DA:192,1
DA:193,1
LF:27
LH:16
end_of_record
TN:
SF:/root/Kratos/external_libraries/json/json.hpp
FN:149,_ZNK8nlohmann6detail9exception4whatEv
FN:160,_ZN8nlohmann6detail9exception4nameERKNSt7__cxx1112basic_stringIcSt11char_traitsIcESaIcEEEi
FN:226,_ZN8nlohmann6detail11parse_error6createEiRKNS0_10position_tERKNSt7__cxx1112basic_stringIcSt11char_traitsIcESaIcEEE
FN:256,_ZN8nlohmann6detail11parse_error15position_stringB5cxx11ERKNS0_10position_tE
FN:303,_ZN8nlohmann6detail16invalid_iterator6createEiRKNSt7__cxx1112basic_stringIcSt11char_traitsIcESaIcEEE
FN:310,_ZN8nlohmann6detail16invalid_iteratorC2EiPKc
FN:356,_ZN8nlohmann6detail10type_error6createEiRKNSt7__cxx1112basic_stringIcSt11char_traitsIcESaIcEEE
FN:363,_ZN8nlohmann6detail10type_errorC2EiPKc
FN:402,_ZN8nlohmann6detail12out_of_range6createEiRKNSt7__cxx1112basic_stringIcSt11char_traitsIcESaIcEEE
FN:409,_ZN8nlohmann6detail12out_of_rangeC2EiPKc
FN:439,_ZN8nlohmann6detail11other_error6createEiRKNSt7__cxx1112basic_stringIcSt11char_traitsIcESaIcEEE
FN:446,_ZN8nlohmann6detail11other_errorC2EiPKc
FN:1312,_ZN8nlohmann6detail20get_arithmetic_valueINS_10basic_jsonISt3mapSt6vectorNSt7__cxx1112basic_stringIcSt11char_traitsIcESaIcEEEblmdSaNS_14adl_serializerEEEdLi0EEEvRKT_RT0_
FN:1338,_ZN8nlohmann6detail9from_jsonINS_10basic_jsonISt3mapSt6vectorNSt7__cxx1112basic_stringIcSt11char_traitsIcESaIcEEEblmdSaNS_14adl_serializerEEEEEvRKT_RNSD_9boolean_tE
FN:1348,_ZN8nlohmann6detail9from_jsonINS_10basic_jsonISt3mapSt6vectorNSt7__cxx1112basic_stringIcSt11char_traitsIcESaIcEEEblmdSaNS_14adl_serializerEEEEEvRKT_RNSD_8string_tE
FN:1536,_ZN8nlohmann6detail9from_jsonINS_10basic_jsonISt3mapSt6vectorNSt7__cxx1112basic_stringIcSt11char_traitsIcESaIcEEEblmdSaNS_14adl_serializerEEEiLi0EEEvRKT_RT0_
FN:2302,_ZN8nlohmann6detail18file_input_adapterD0Ev
FN:2302,_ZN8nlohmann6detail18file_input_adapterD2Ev
FN:2304,_ZN8nlohmann6detail18file_input_adapter13get_characterEv
FN:2327,_ZN8nlohmann6detail20input_stream_adapterD0Ev
FN:2327,_ZN8nlohmann6detail20input_stream_adapterD2Ev
FN:2347,_ZN8nlohmann6detail20input_stream_adapter13get_characterEv
FN:2377,_ZN8nlohmann6detail20input_buffer_adapterD0Ev
FN:2377,_ZN8nlohmann6detail20input_buffer_adapterD2Ev
FN:2379,_ZN8nlohmann6detail20input_buffer_adapter13get_characterEv
FN:2400,_ZN8nlohmann6detail24wide_string_input_helperINSt7__cxx1112basic_stringIDiSt11char_traitsIDiESaIDiEEELm4EE11fill_bufferERKS7_RmRSt5arrayIiLm4EESB_SB_
FN:2400,_ZN8nlohmann6detail24wide_string_input_helperINSt7__cxx1112basic_stringIwSt11char_traitsIwESaIwEEELm4EE11fill_bufferERKS7_RmRSt5arrayIiLm4EESB_SB_
FN:2459,_ZN8nlohmann6detail24wide_string_input_helperINSt7__cxx1112basic_stringIDsSt11char_traitsIDsESaIDsEEELm2EE11fill_bufferERKS7_RmRSt5arrayIiLm4EESB_SB_
FN:2528,_ZN8nlohmann6detail25wide_string_input_adapterINSt7__cxx1112basic_stringIDiSt11char_traitsIDiESaIDiEEEE13get_characterEv
FN:2528,_ZN8nlohmann6detail25wide_string_input_adapterINSt7__cxx1112basic_stringIDsSt11char_traitsIDsESaIDsEEEE13get_characterEv
FN:2528,_ZN8nlohmann6detail25wide_string_input_adapterINSt7__cxx1112basic_stringIwSt11char_traitsIwESaIwEEEE13get_characterEv
FN:2618,_ZN8nlohmann6detail13input_adapterC2IN9__gnu_cxx17__normal_iteratorIPKcNSt7__cxx1112basic_stringIcSt11char_traitsIcESaIcEEEEELi0EEET_SE_
FN:2618,_ZN8nlohmann6detail13input_adapterC2IPKcLi0EEET_S5_
FN:2883,_ZN8nlohmann6detail19json_sax_dom_parserINS_10basic_jsonISt3mapSt6vectorNSt7__cxx1112basic_stringIcSt11char_traitsIcESaIcEEEblmdSaNS_14adl_serializerEEEE12start_objectEm
FN:2909,_ZN8nlohmann6detail19json_sax_dom_parserINS_10basic_jsonISt3mapSt6vectorNSt7__cxx1112basic_stringIcSt11char_traitsIcESaIcEEEblmdSaNS_14adl_serializerEEEE11start_arrayEm
FN:2928,_ZN8nlohmann6detail19json_sax_dom_parserINS_10basic_jsonISt3mapSt6vectorNSt7__cxx1112basic_stringIcSt11char_traitsIcESaIcEEEblmdSaNS_14adl_serializerEEEE11parse_errorEmRKSA_RKNS0_9exceptionE
FN:2969,_ZN8nlohmann6detail19json_sax_dom_parserINS_10basic_jsonISt3mapSt6vectorNSt7__cxx1112basic_stringIcSt11char_traitsIcESaIcEEEblmdSaNS_14adl_serializerEEEE12handle_valueIDnEEPSC_OT_
FN:2969,_ZN8nlohmann6detail19json_sax_dom_parserINS_10basic_jsonISt3mapSt6vectorNSt7__cxx1112basic_stringIcSt11char_traitsIcESaIcEEEblmdSaNS_14adl_serializerEEEE12handle_valueINS0_7value_tEEEPSC_OT_
FN:2969,_ZN8nlohmann6detail19json_sax_dom_parserINS_10basic_jsonISt3mapSt6vectorNSt7__cxx1112basic_stringIcSt11char_traitsIcESaIcEEEblmdSaNS_14adl_serializerEEEE12handle_valueIRSA_EEPSC_OT_
FN:2969,_ZN8nlohmann6detail19json_sax_dom_parserINS_10basic_jsonISt3mapSt6vectorNSt7__cxx1112basic_stringIcSt11char_traitsIcESaIcEEEblmdSaNS_14adl_serializerEEEE12handle_valueIRbEEPSC_OT_
FN:2969,_ZN8nlohmann6detail19json_sax_dom_parserINS_10basic_jsonISt3mapSt6vectorNSt7__cxx1112basic_stringIcSt11char_traitsIcESaIcEEEblmdSaNS_14adl_serializerEEEE12handle_valueIRdEEPSC_OT_
FN:2969,_ZN8nlohmann6detail19json_sax_dom_parserINS_10basic_jsonISt3mapSt6vectorNSt7__cxx1112basic_stringIcSt11char_traitsIcESaIcEEEblmdSaNS_14adl_serializerEEEE12handle_valueIRlEEPSC_OT_
FN:2969,_ZN8nlohmann6detail19json_sax_dom_parserINS_10basic_jsonISt3mapSt6vectorNSt7__cxx1112basic_stringIcSt11char_traitsIcESaIcEEEblmdSaNS_14adl_serializerEEEE12handle_valueIRmEEPSC_OT_
FN:3014,_ZN8nlohmann6detail28json_sax_dom_callback_parserINS_10basic_jsonISt3mapSt6vectorNSt7__cxx1112basic_stringIcSt11char_traitsIcESaIcEEEblmdSaNS_14adl_serializerEEEEC2ERSC_St8functionIFbiNS0_6parserISC_E13parse_event_tESE_EEb
FN:3027,_ZN8nlohmann6detail28json_sax_dom_callback_parserINS_10basic_jsonISt3mapSt6vectorNSt7__cxx1112basic_stringIcSt11char_traitsIcESaIcEEEblmdSaNS_14adl_serializerEEEED2Ev
FN:3065,_ZN8nlohmann6detail28json_sax_dom_callback_parserINS_10basic_jsonISt3mapSt6vectorNSt7__cxx1112basic_stringIcSt11char_traitsIcESaIcEEEblmdSaNS_14adl_serializerEEEE12start_objectEm
FN:3083,_ZN8nlohmann6detail28json_sax_dom_callback_parserINS_10basic_jsonISt3mapSt6vectorNSt7__cxx1112basic_stringIcSt11char_traitsIcESaIcEEEblmdSaNS_14adl_serializerEEEE3keyERSA_
FN:3100,_ZN8nlohmann6detail28json_sax_dom_callback_parserINS_10basic_jsonISt3mapSt6vectorNSt7__cxx1112basic_stringIcSt11char_traitsIcESaIcEEEblmdSaNS_14adl_serializerEEEE10end_objectEv
FN:3129,_ZN8nlohmann6detail28json_sax_dom_callback_parserINS_10basic_jsonISt3mapSt6vectorNSt7__cxx1112basic_stringIcSt11char_traitsIcESaIcEEEblmdSaNS_14adl_serializerEEEE11start_arrayEm
FN:3146,_ZN8nlohmann6detail28json_sax_dom_callback_parserINS_10basic_jsonISt3mapSt6vectorNSt7__cxx1112basic_stringIcSt11char_traitsIcESaIcEEEblmdSaNS_14adl_serializerEEEE9end_arrayEv
FN:3174,_ZN8nlohmann6detail28json_sax_dom_callback_parserINS_10basic_jsonISt3mapSt6vectorNSt7__cxx1112basic_stringIcSt11char_traitsIcESaIcEEEblmdSaNS_14adl_serializerEEEE11parse_errorEmRKSA_RKNS0_9exceptionE
FN:3224,_ZN8nlohmann6detail28json_sax_dom_callback_parserINS_10basic_jsonISt3mapSt6vectorNSt7__cxx1112basic_stringIcSt11char_traitsIcESaIcEEEblmdSaNS_14adl_serializerEEEE12handle_valueIDnEESt4pairIbPSC_EOT_b
FN:3224,_ZN8nlohmann6detail28json_sax_dom_callback_parserINS_10basic_jsonISt3mapSt6vectorNSt7__cxx1112basic_stringIcSt11char_traitsIcESaIcEEEblmdSaNS_14adl_serializerEEEE12handle_valueINS0_7value_tEEESt4pairIbPSC_EOT_b
FN:3224,_ZN8nlohmann6detail28json_sax_dom_callback_parserINS_10basic_jsonISt3mapSt6vectorNSt7__cxx1112basic_stringIcSt11char_traitsIcESaIcEEEblmdSaNS_14adl_serializerEEEE12handle_valueIRSA_EESt4pairIbPSC_EOT_b
FN:3224,_ZN8nlohmann6detail28json_sax_dom_callback_parserINS_10basic_jsonISt3mapSt6vectorNSt7__cxx1112basic_stringIcSt11char_traitsIcESaIcEEEblmdSaNS_14adl_serializerEEEE12handle_valueIRbEESt4pairIbPSC_EOT_b
FN:3224,_ZN8nlohmann6detail28json_sax_dom_callback_parserINS_10basic_jsonISt3mapSt6vectorNSt7__cxx1112basic_stringIcSt11char_traitsIcESaIcEEEblmdSaNS_14adl_serializerEEEE12handle_valueIRdEESt4pairIbPSC_EOT_b
FN:3224,_ZN8nlohmann6detail28json_sax_dom_callback_parserINS_10basic_jsonISt3mapSt6vectorNSt7__cxx1112basic_stringIcSt11char_traitsIcESaIcEEEblmdSaNS_14adl_serializerEEEE12handle_valueIRlEESt4pairIbPSC_EOT_b
FN:3224,_ZN8nlohmann6detail28json_sax_dom_callback_parserINS_10basic_jsonISt3mapSt6vectorNSt7__cxx1112basic_stringIcSt11char_traitsIcESaIcEEEblmdSaNS_14adl_serializerEEEE12handle_valueIRmEESt4pairIbPSC_EOT_b
FN:5563,_ZN8nlohmann6detail5lexerINS_10basic_jsonISt3mapSt6vectorNSt7__cxx1112basic_stringIcSt11char_traitsIcESaIcEEEblmdSaNS_14adl_serializerEEEE15token_type_nameENSD_10token_typeE
FN:5606,_ZN8nlohmann6detail5lexerINS_10basic_jsonISt3mapSt6vectorNSt7__cxx1112basic_stringIcSt11char_traitsIcESaIcEEEblmdSaNS_14adl_serializerEEEEC2EOSt10shared_ptrINS0_22input_adapter_protocolEE
FN:5614,_ZN8nlohmann6detail5lexerINS_10basic_jsonISt3mapSt6vectorNSt7__cxx1112basic_stringIcSt11char_traitsIcESaIcEEEblmdSaNS_14adl_serializerEEEED2Ev
FN:5648,_ZN8nlohmann6detail5lexerINS_10basic_jsonISt3mapSt6vectorNSt7__cxx1112basic_stringIcSt11char_traitsIcESaIcEEEblmdSaNS_14adl_serializerEEEE13get_codepointEv
FN:5696,_ZN8nlohmann6detail5lexerINS_10basic_jsonISt3mapSt6vectorNSt7__cxx1112basic_stringIcSt11char_traitsIcESaIcEEEblmdSaNS_14adl_serializerEEEE18next_byte_in_rangeESt16initializer_listIiE
FN:5733,_ZN8nlohmann6detail5lexerINS_10basic_jsonISt3mapSt6vectorNSt7__cxx1112basic_stringIcSt11char_traitsIcESaIcEEEblmdSaNS_14adl_serializerEEEE11scan_stringEv
FN:6374,_ZN8nlohmann6detail5lexerINS_10basic_jsonISt3mapSt6vectorNSt7__cxx1112basic_stringIcSt11char_traitsIcESaIcEEEblmdSaNS_14adl_serializerEEEE11scan_numberEv
FN:6724,_ZN8nlohmann6detail5lexerINS_10basic_jsonISt3mapSt6vectorNSt7__cxx1112basic_stringIcSt11char_traitsIcESaIcEEEblmdSaNS_14adl_serializerEEEE5resetEv
FN:6741,_ZN8nlohmann6detail5lexerINS_10basic_jsonISt3mapSt6vectorNSt7__cxx1112basic_stringIcSt11char_traitsIcESaIcEEEblmdSaNS_14adl_serializerEEEE3getEv
FN:6852,_ZNK8nlohmann6detail5lexerINS_10basic_jsonISt3mapSt6vectorNSt7__cxx1112basic_stringIcSt11char_traitsIcESaIcEEEblmdSaNS_14adl_serializerEEEE16get_token_stringEv
FN:6889,_ZN8nlohmann6detail5lexerINS_10basic_jsonISt3mapSt6vectorNSt7__cxx1112basic_stringIcSt11char_traitsIcESaIcEEEblmdSaNS_14adl_serializerEEEE8skip_bomEv
FN:6903,_ZN8nlohmann6detail5lexerINS_10basic_jsonISt3mapSt6vectorNSt7__cxx1112basic_stringIcSt11char_traitsIcESaIcEEEblmdSaNS_14adl_serializerEEEE4scanEv
FN:7077,_ZN8nlohmann6detail6parserINS_10basic_jsonISt3mapSt6vectorNSt7__cxx1112basic_stringIcSt11char_traitsIcESaIcEEEblmdSaNS_14adl_serializerEEEEC2EOSt10shared_ptrINS0_22input_adapter_protocolEESt8functionIFbiNSD_13parse_event_tERSC_EEb
FN:7096,_ZN8nlohmann6detail6parserINS_10basic_jsonISt3mapSt6vectorNSt7__cxx1112basic_stringIcSt11char_traitsIcESaIcEEEblmdSaNS_14adl_serializerEEEE5parseEbRSC_
FN:7183,_ZN8nlohmann6detail6parserINS_10basic_jsonISt3mapSt6vectorNSt7__cxx1112basic_stringIcSt11char_traitsIcESaIcEEEblmdSaNS_14adl_serializerEEEE18sax_parse_internalINS0_19json_sax_dom_parserISC_EEEEbPT_
FN:7183,_ZN8nlohmann6detail6parserINS_10basic_jsonISt3mapSt6vectorNSt7__cxx1112basic_stringIcSt11char_traitsIcESaIcEEEblmdSaNS_14adl_serializerEEEE18sax_parse_internalINS0_28json_sax_dom_callback_parserISC_EEEEbPT_
FN:7470,_ZN8nlohmann6detail6parserINS_10basic_jsonISt3mapSt6vectorNSt7__cxx1112basic_stringIcSt11char_traitsIcESaIcEEEblmdSaNS_14adl_serializerEEEE17exception_messageENS0_5lexerISC_E10token_typeERKSA_
FN:7882,_ZNK8nlohmann6detail9iter_implIKNS_10basic_jsonISt3mapSt6vectorNSt7__cxx1112basic_stringIcSt11char_traitsIcESaIcEEEblmdSaNS_14adl_serializerEEEEdeEv
FN:7882,_ZNK8nlohmann6detail9iter_implINS_10basic_jsonISt3mapSt6vectorNSt7__cxx1112basic_stringIcSt11char_traitsIcESaIcEEEblmdSaNS_14adl_serializerEEEEdeEv
FN:7919,_ZNK8nlohmann6detail9iter_implIKNS_10basic_jsonISt3mapSt6vectorNSt7__cxx1112basic_stringIcSt11char_traitsIcESaIcEEEblmdSaNS_14adl_serializerEEEEptEv
FN:7919,_ZNK8nlohmann6detail9iter_implINS_10basic_jsonISt3mapSt6vectorNSt7__cxx1112basic_stringIcSt11char_traitsIcESaIcEEEblmdSaNS_14adl_serializerEEEEptEv
FN:7964,_ZN8nlohmann6detail9iter_implIKNS_10basic_jsonISt3mapSt6vectorNSt7__cxx1112basic_stringIcSt11char_traitsIcESaIcEEEblmdSaNS_14adl_serializerEEEEppEv
FN:7964,_ZN8nlohmann6detail9iter_implINS_10basic_jsonISt3mapSt6vectorNSt7__cxx1112basic_stringIcSt11char_traitsIcESaIcEEEblmdSaNS_14adl_serializerEEEEppEv
FN:8039,_ZNK8nlohmann6detail9iter_implIKNS_10basic_jsonISt3mapSt6vectorNSt7__cxx1112basic_stringIcSt11char_traitsIcESaIcEEEblmdSaNS_14adl_serializerEEEEeqERKSE_
FN:8039,_ZNK8nlohmann6detail9iter_implINS_10basic_jsonISt3mapSt6vectorNSt7__cxx1112basic_stringIcSt11char_traitsIcESaIcEEEblmdSaNS_14adl_serializerEEEEeqERKSD_
FN:8252,_ZNK8nlohmann6detail9iter_implIKNS_10basic_jsonISt3mapSt6vectorNSt7__cxx1112basic_stringIcSt11char_traitsIcESaIcEEEblmdSaNS_14adl_serializerEEEE3keyEv
FN:8252,_ZNK8nlohmann6detail9iter_implINS_10basic_jsonISt3mapSt6vectorNSt7__cxx1112basic_stringIcSt11char_traitsIcESaIcEEEblmdSaNS_14adl_serializerEEEE3keyEv
FN:9501,_ZN8nlohmann6detail21output_stream_adapterIcE15write_characterEc
FN:9506,_ZN8nlohmann6detail21output_stream_adapterIcE16write_charactersEPKcm
FN:9524,_ZN8nlohmann6detail21output_string_adapterIcNSt7__cxx1112basic_stringIcSt11char_traitsIcESaIcEEEE15write_characterEc
FN:9529,_ZN8nlohmann6detail21output_string_adapterIcNSt7__cxx1112basic_stringIcSt11char_traitsIcESaIcEEEE16write_charactersEPKcm
FN:10980,_ZN8nlohmann6detail9dtoa_impl5diyfp3mulERKS2_S4_
FN:11087,_ZN8nlohmann6detail9dtoa_impl18compute_boundariesIdEENS1_10boundariesET_
FN:11390,_ZN8nlohmann6detail9dtoa_impl18find_largest_pow10EjRj
FN:11487,_ZN8nlohmann6detail9dtoa_impl16grisu2_digit_genEPcRiS3_NS1_5diyfpES4_S4_
FN:11727,_ZN8nlohmann6detail9dtoa_impl6grisu2EPcRiS3_NS1_5diyfpES4_S4_
FN:11786,_ZN8nlohmann6detail9dtoa_impl6grisu2IdEEvPcRiS4_T_
FN:11824,_ZN8nlohmann6detail9dtoa_impl15append_exponentEPci
FN:11874,_ZN8nlohmann6detail9dtoa_impl13format_bufferEPciiii
FN:11957,_ZN8nlohmann6detail8to_charsIdEEPcS2_PKcT_
FN:12050,_ZN8nlohmann6detail10serializerINS_10basic_jsonISt3mapSt6vectorNSt7__cxx1112basic_stringIcSt11char_traitsIcESaIcEEEblmdSaNS_14adl_serializerEEEEC2ESt10shared_ptrINS0_23output_adapter_protocolIcEEEcNS0_15error_handler_tE
FN:12066,_ZN8nlohmann6detail10serializerINS_10basic_jsonISt3mapSt6vectorNSt7__cxx1112basic_stringIcSt11char_traitsIcESaIcEEEblmdSaNS_14adl_serializerEEEED2Ev
FN:12085,_ZN8nlohmann6detail10serializerINS_10basic_jsonISt3mapSt6vectorNSt7__cxx1112basic_stringIcSt11char_traitsIcESaIcEEEblmdSaNS_14adl_serializerEEEE4dumpERKSC_bbjj
FN:12295,_ZN8nlohmann6detail10serializerINS_10basic_jsonISt3mapSt6vectorNSt7__cxx1112basic_stringIcSt11char_traitsIcESaIcEEEblmdSaNS_14adl_serializerEEEE12dump_escapedERKSA_b
FN:12590,_ZN8nlohmann6detail10serializerINS_10basic_jsonISt3mapSt6vectorNSt7__cxx1112basic_stringIcSt11char_traitsIcESaIcEEEblmdSaNS_14adl_serializerEEEE12dump_integerIlLi0EEEvT_
FN:12590,_ZN8nlohmann6detail10serializerINS_10basic_jsonISt3mapSt6vectorNSt7__cxx1112basic_stringIcSt11char_traitsIcESaIcEEEblmdSaNS_14adl_serializerEEEE12dump_integerImLi0EEEvT_
FN:12676,_ZN8nlohmann6detail10serializerINS_10basic_jsonISt3mapSt6vectorNSt7__cxx1112basic_stringIcSt11char_traitsIcESaIcEEEblmdSaNS_14adl_serializerEEEE10dump_floatEd
FN:12697,_ZN8nlohmann6detail10serializerINS_10basic_jsonISt3mapSt6vectorNSt7__cxx1112basic_stringIcSt11char_traitsIcESaIcEEEblmdSaNS_14adl_serializerEEEE10dump_floatEdSt17integral_constantIbLb1EE
FN:13592,_ZN8nlohmann10basic_jsonISt3mapSt6vectorNSt7__cxx1112basic_stringIcSt11char_traitsIcESaIcEEEblmdSaNS_14adl_serializerEE6createIS1_IS8_SA_St4lessIS8_ESaISt4pairIKS8_SA_EEEJEEEPT_DpOT0_
FN:13592,_ZN8nlohmann10basic_jsonISt3mapSt6vectorNSt7__cxx1112basic_stringIcSt11char_traitsIcESaIcEEEblmdSaNS_14adl_serializerEE6createIS1_IS8_SA_St4lessIS8_ESaISt4pairIKS8_SA_EEEJRKSI_EEEPT_DpOT0_
FN:13592,_ZN8nlohmann10basic_jsonISt3mapSt6vectorNSt7__cxx1112basic_stringIcSt11char_traitsIcESaIcEEEblmdSaNS_14adl_serializerEE6createIS2_ISA_SaISA_EEJRKSD_EEEPT_DpOT0_
FN:13592,_ZN8nlohmann10basic_jsonISt3mapSt6vectorNSt7__cxx1112basic_stringIcSt11char_traitsIcESaIcEEEblmdSaNS_14adl_serializerEE6createIS2_ISA_SaISA_EEJRmRKSA_EEEPT_DpOT0_
FN:13592,_ZN8nlohmann10basic_jsonISt3mapSt6vectorNSt7__cxx1112basic_stringIcSt11char_traitsIcESaIcEEEblmdSaNS_14adl_serializerEE6createIS8_JRA1_KcEEEPT_DpOT0_
FN:13592,_ZN8nlohmann10basic_jsonISt3mapSt6vectorNSt7__cxx1112basic_stringIcSt11char_traitsIcESaIcEEEblmdSaNS_14adl_serializerEE6createIS8_JRKS8_EEEPT_DpOT0_
FN:13663,_ZN8nlohmann10basic_jsonISt3mapSt6vectorNSt7__cxx1112basic_stringIcSt11char_traitsIcESaIcEEEblmdSaNS_14adl_serializerEE10json_valueC2ENS_6detail7value_tE
FN:13752,_ZN8nlohmann10basic_jsonISt3mapSt6vectorNSt7__cxx1112basic_stringIcSt11char_traitsIcESaIcEEEblmdSaNS_14adl_serializerEE10json_valueC2ERKS2_ISA_SaISA_EE
FN:13763,_ZN8nlohmann10basic_jsonISt3mapSt6vectorNSt7__cxx1112basic_stringIcSt11char_traitsIcESaIcEEEblmdSaNS_14adl_serializerEE10json_value7destroyENS_6detail7value_tE
FN:14523,_ZN8nlohmann10basic_jsonISt3mapSt6vectorNSt7__cxx1112basic_stringIcSt11char_traitsIcESaIcEEEblmdSaNS_14adl_serializerEEC2ERKSA_
FN:14676,_ZN8nlohmann10basic_jsonISt3mapSt6vectorNSt7__cxx1112basic_stringIcSt11char_traitsIcESaIcEEEblmdSaNS_14adl_serializerEED2Ev
FN:14734,_ZNK8nlohmann10basic_jsonISt3mapSt6vectorNSt7__cxx1112basic_stringIcSt11char_traitsIcESaIcEEEblmdSaNS_14adl_serializerEE4dumpEicbNS_6detail15error_handler_tE
FN:15348,_ZNK8nlohmann10basic_jsonISt3mapSt6vectorNSt7__cxx1112basic_stringIcSt11char_traitsIcESaIcEEEblmdSaNS_14adl_serializerEE3getIS8_S8_Li0EEET0_v
FN:15875,_ZN8nlohmann10basic_jsonISt3mapSt6vectorNSt7__cxx1112basic_stringIcSt11char_traitsIcESaIcEEEblmdSaNS_14adl_serializerEEixEm
FN:15959,_ZN8nlohmann10basic_jsonISt3mapSt6vectorNSt7__cxx1112basic_stringIcSt11char_traitsIcESaIcEEEblmdSaNS_14adl_serializerEEixERKS8_
FN:16394,_ZN8nlohmann10basic_jsonISt3mapSt6vectorNSt7__cxx1112basic_stringIcSt11char_traitsIcESaIcEEEblmdSaNS_14adl_serializerEE5eraseINS_6detail9iter_implISA_EELi0EEET_SF_
FN:16586,_ZN8nlohmann10basic_jsonISt3mapSt6vectorNSt7__cxx1112basic_stringIcSt11char_traitsIcESaIcEEEblmdSaNS_14adl_serializerEE5eraseERKS8_
FN:16674,_ZN8nlohmann10basic_jsonISt3mapSt6vectorNSt7__cxx1112basic_stringIcSt11char_traitsIcESaIcEEEblmdSaNS_14adl_serializerEE4findIRKS8_EENS_6detail9iter_implISA_EEOT_
FN:16795,_ZN8nlohmann10basic_jsonISt3mapSt6vectorNSt7__cxx1112basic_stringIcSt11char_traitsIcESaIcEEEblmdSaNS_14adl_serializerEE5beginEv
FN:16835,_ZNK8nlohmann10basic_jsonISt3mapSt6vectorNSt7__cxx1112basic_stringIcSt11char_traitsIcESaIcEEEblmdSaNS_14adl_serializerEE6cbeginEv
FN:16866,_ZN8nlohmann10basic_jsonISt3mapSt6vectorNSt7__cxx1112basic_stringIcSt11char_traitsIcESaIcEEEblmdSaNS_14adl_serializerEE3endEv
FN:16906,_ZNK8nlohmann10basic_jsonISt3mapSt6vectorNSt7__cxx1112basic_stringIcSt11char_traitsIcESaIcEEEblmdSaNS_14adl_serializerEE4cendEv
FN:17564,_ZN8nlohmann10basic_jsonISt3mapSt6vectorNSt7__cxx1112basic_stringIcSt11char_traitsIcESaIcEEEblmdSaNS_14adl_serializerEE9push_backERKSA_
FN:18328,_ZN8nlohmanneqERKNS_10basic_jsonISt3mapSt6vectorNSt7__cxx1112basic_stringIcSt11char_traitsIcESaIcEEEblmdSaNS_14adl_serializerEEESC_
FN:18756,_ZN8nlohmannlsERSoRKNS_10basic_jsonISt3mapSt6vectorNSt7__cxx1112basic_stringIcSt11char_traitsIcESaIcEEEblmdSaNS_14adl_serializerEEE
FN:18859,_ZN8nlohmann10basic_jsonISt3mapSt6vectorNSt7__cxx1112basic_stringIcSt11char_traitsIcESaIcEEEblmdSaNS_14adl_serializerEE5parseEONS_6detail13input_adapterESt8functionIFbiNSB_6parserISA_E13parse_event_tERSA_EEb
FNDA:0,_ZN8nlohmann10basic_jsonISt3mapSt6vectorNSt7__cxx1112basic_stringIcSt11char_traitsIcESaIcEEEblmdSaNS_14adl_serializerEE10json_value7destroyENS_6detail7value_tE
FNDA:0,_ZN8nlohmann10basic_jsonISt3mapSt6vectorNSt7__cxx1112basic_stringIcSt11char_traitsIcESaIcEEEblmdSaNS_14adl_serializerEE10json_valueC2ENS_6detail7value_tE
FNDA:0,_ZN8nlohmann10basic_jsonISt3mapSt6vectorNSt7__cxx1112basic_stringIcSt11char_traitsIcESaIcEEEblmdSaNS_14adl_serializerEE10json_valueC2ERKS2_ISA_SaISA_EE
FNDA:0,_ZN8nlohmann10basic_jsonISt3mapSt6vectorNSt7__cxx1112basic_stringIcSt11char_traitsIcESaIcEEEblmdSaNS_14adl_serializerEE3endEv
FNDA:0,_ZN8nlohmann10basic_jsonISt3mapSt6vectorNSt7__cxx1112basic_stringIcSt11char_traitsIcESaIcEEEblmdSaNS_14adl_serializerEE4findIRKS8_EENS_6detail9iter_implISA_EEOT_
FNDA:0,_ZN8nlohmann10basic_jsonISt3mapSt6vectorNSt7__cxx1112basic_stringIcSt11char_traitsIcESaIcEEEblmdSaNS_14adl_serializerEE5beginEv
FNDA:0,_ZN8nlohmann10basic_jsonISt3mapSt6vectorNSt7__cxx1112basic_stringIcSt11char_traitsIcESaIcEEEblmdSaNS_14adl_serializerEE5eraseERKS8_
FNDA:0,_ZN8nlohmann10basic_jsonISt3mapSt6vectorNSt7__cxx1112basic_stringIcSt11char_traitsIcESaIcEEEblmdSaNS_14adl_serializerEE5eraseINS_6detail9iter_implISA_EELi0EEET_SF_
FNDA:0,_ZN8nlohmann10basic_jsonISt3mapSt6vectorNSt7__cxx1112basic_stringIcSt11char_traitsIcESaIcEEEblmdSaNS_14adl_serializerEE5parseEONS_6detail13input_adapterESt8functionIFbiNSB_6parserISA_E13parse_event_tERSA_EEb
FNDA:0,_ZN8nlohmann10basic_jsonISt3mapSt6vectorNSt7__cxx1112basic_stringIcSt11char_traitsIcESaIcEEEblmdSaNS_14adl_serializerEE6createIS1_IS8_SA_St4lessIS8_ESaISt4pairIKS8_SA_EEEJEEEPT_DpOT0_
FNDA:0,_ZN8nlohmann10basic_jsonISt3mapSt6vectorNSt7__cxx1112basic_stringIcSt11char_traitsIcESaIcEEEblmdSaNS_14adl_serializerEE6createIS1_IS8_SA_St4lessIS8_ESaISt4pairIKS8_SA_EEEJRKSI_EEEPT_DpOT0_
FNDA:0,_ZN8nlohmann10basic_jsonISt3mapSt6vectorNSt7__cxx1112basic_stringIcSt11char_traitsIcESaIcEEEblmdSaNS_14adl_serializerEE6createIS2_ISA_SaISA_EEJRKSD_EEEPT_DpOT0_
FNDA:0,_ZN8nlohmann10basic_jsonISt3mapSt6vectorNSt7__cxx1112basic_stringIcSt11char_traitsIcESaIcEEEblmdSaNS_14adl_serializerEE6createIS2_ISA_SaISA_EEJRmRKSA_EEEPT_DpOT0_
FNDA:0,_ZN8nlohmann10basic_jsonISt3mapSt6vectorNSt7__cxx1112basic_stringIcSt11char_traitsIcESaIcEEEblmdSaNS_14adl_serializerEE6createIS8_JRA1_KcEEEPT_DpOT0_
FNDA:0,_ZN8nlohmann10basic_jsonISt3mapSt6vectorNSt7__cxx1112basic_stringIcSt11char_traitsIcESaIcEEEblmdSaNS_14adl_serializerEE6createIS8_JRKS8_EEEPT_DpOT0_
FNDA:0,_ZN8nlohmann10basic_jsonISt3mapSt6vectorNSt7__cxx1112basic_stringIcSt11char_traitsIcESaIcEEEblmdSaNS_14adl_serializerEE9push_backERKSA_
FNDA:0,_ZN8nlohmann10basic_jsonISt3mapSt6vectorNSt7__cxx1112basic_stringIcSt11char_traitsIcESaIcEEEblmdSaNS_14adl_serializerEEC2ERKSA_
FNDA:0,_ZN8nlohmann10basic_jsonISt3mapSt6vectorNSt7__cxx1112basic_stringIcSt11char_traitsIcESaIcEEEblmdSaNS_14adl_serializerEED2Ev
FNDA:0,_ZN8nlohmann10basic_jsonISt3mapSt6vectorNSt7__cxx1112basic_stringIcSt11char_traitsIcESaIcEEEblmdSaNS_14adl_serializerEEixERKS8_
FNDA:0,_ZN8nlohmann10basic_jsonISt3mapSt6vectorNSt7__cxx1112basic_stringIcSt11char_traitsIcESaIcEEEblmdSaNS_14adl_serializerEEixEm
FNDA:0,_ZN8nlohmann6detail10serializerINS_10basic_jsonISt3mapSt6vectorNSt7__cxx1112basic_stringIcSt11char_traitsIcESaIcEEEblmdSaNS_14adl_serializerEEEE10dump_floatEd
FNDA:0,_ZN8nlohmann6detail10serializerINS_10basic_jsonISt3mapSt6vectorNSt7__cxx1112basic_stringIcSt11char_traitsIcESaIcEEEblmdSaNS_14adl_serializerEEEE10dump_floatEdSt17integral_constantIbLb1EE
FNDA:0,_ZN8nlohmann6detail10serializerINS_10basic_jsonISt3mapSt6vectorNSt7__cxx1112basic_stringIcSt11char_traitsIcESaIcEEEblmdSaNS_14adl_serializerEEEE12dump_escapedERKSA_b
FNDA:0,_ZN8nlohmann6detail10serializerINS_10basic_jsonISt3mapSt6vectorNSt7__cxx1112basic_stringIcSt11char_traitsIcESaIcEEEblmdSaNS_14adl_serializerEEEE12dump_integerIlLi0EEEvT_
FNDA:0,_ZN8nlohmann6detail10serializerINS_10basic_jsonISt3mapSt6vectorNSt7__cxx1112basic_stringIcSt11char_traitsIcESaIcEEEblmdSaNS_14adl_serializerEEEE12dump_integerImLi0EEEvT_
FNDA:0,_ZN8nlohmann6detail10serializerINS_10basic_jsonISt3mapSt6vectorNSt7__cxx1112basic_stringIcSt11char_traitsIcESaIcEEEblmdSaNS_14adl_serializerEEEE4dumpERKSC_bbjj
FNDA:0,_ZN8nlohmann6detail10serializerINS_10basic_jsonISt3mapSt6vectorNSt7__cxx1112basic_stringIcSt11char_traitsIcESaIcEEEblmdSaNS_14adl_serializerEEEEC2ESt10shared_ptrINS0_23output_adapter_protocolIcEEEcNS0_15error_handler_tE
FNDA:0,_ZN8nlohmann6detail10serializerINS_10basic_jsonISt3mapSt6vectorNSt7__cxx1112basic_stringIcSt11char_traitsIcESaIcEEEblmdSaNS_14adl_serializerEEEED2Ev
FNDA:0,_ZN8nlohmann6detail10type_error6createEiRKNSt7__cxx1112basic_stringIcSt11char_traitsIcESaIcEEE
FNDA:0,_ZN8nlohmann6detail10type_errorC2EiPKc
FNDA:0,_ZN8nlohmann6detail11other_error6createEiRKNSt7__cxx1112basic_stringIcSt11char_traitsIcESaIcEEE
FNDA:0,_ZN8nlohmann6detail11other_errorC2EiPKc
FNDA:0,_ZN8nlohmann6detail11parse_error15position_stringB5cxx11ERKNS0_10position_tE
FNDA:0,_ZN8nlohmann6detail11parse_error6createEiRKNS0_10position_tERKNSt7__cxx1112basic_stringIcSt11char_traitsIcESaIcEEE
FNDA:0,_ZN8nlohmann6detail12out_of_range6createEiRKNSt7__cxx1112basic_stringIcSt11char_traitsIcESaIcEEE
FNDA:0,_ZN8nlohmann6detail12out_of_rangeC2EiPKc
FNDA:0,_ZN8nlohmann6detail13input_adapterC2IN9__gnu_cxx17__normal_iteratorIPKcNSt7__cxx1112basic_stringIcSt11char_traitsIcESaIcEEEEELi0EEET_SE_
FNDA:0,_ZN8nlohmann6detail13input_adapterC2IPKcLi0EEET_S5_
FNDA:0,_ZN8nlohmann6detail16invalid_iterator6createEiRKNSt7__cxx1112basic_stringIcSt11char_traitsIcESaIcEEE
FNDA:0,_ZN8nlohmann6detail16invalid_iteratorC2EiPKc
FNDA:0,_ZN8nlohmann6detail18file_input_adapter13get_characterEv
FNDA:0,_ZN8nlohmann6detail18file_input_adapterD0Ev
FNDA:0,_ZN8nlohmann6detail18file_input_adapterD2Ev
FNDA:0,_ZN8nlohmann6detail19json_sax_dom_parserINS_10basic_jsonISt3mapSt6vectorNSt7__cxx1112basic_stringIcSt11char_traitsIcESaIcEEEblmdSaNS_14adl_serializerEEEE11parse_errorEmRKSA_RKNS0_9exceptionE
FNDA:0,_ZN8nlohmann6detail19json_sax_dom_parserINS_10basic_jsonISt3mapSt6vectorNSt7__cxx1112basic_stringIcSt11char_traitsIcESaIcEEEblmdSaNS_14adl_serializerEEEE11start_arrayEm
FNDA:0,_ZN8nlohmann6detail19json_sax_dom_parserINS_10basic_jsonISt3mapSt6vectorNSt7__cxx1112basic_stringIcSt11char_traitsIcESaIcEEEblmdSaNS_14adl_serializerEEEE12handle_valueIDnEEPSC_OT_
FNDA:0,_ZN8nlohmann6detail19json_sax_dom_parserINS_10basic_jsonISt3mapSt6vectorNSt7__cxx1112basic_stringIcSt11char_traitsIcESaIcEEEblmdSaNS_14adl_serializerEEEE12handle_valueINS0_7value_tEEEPSC_OT_
FNDA:0,_ZN8nlohmann6detail19json_sax_dom_parserINS_10basic_jsonISt3mapSt6vectorNSt7__cxx1112basic_stringIcSt11char_traitsIcESaIcEEEblmdSaNS_14adl_serializerEEEE12handle_valueIRSA_EEPSC_OT_
FNDA:0,_ZN8nlohmann6detail19json_sax_dom_parserINS_10basic_jsonISt3mapSt6vectorNSt7__cxx1112basic_stringIcSt11char_traitsIcESaIcEEEblmdSaNS_14adl_serializerEEEE12handle_valueIRbEEPSC_OT_
FNDA:0,_ZN8nlohmann6detail19json_sax_dom_parserINS_10basic_jsonISt3mapSt6vectorNSt7__cxx1112basic_stringIcSt11char_traitsIcESaIcEEEblmdSaNS_14adl_serializerEEEE12handle_valueIRdEEPSC_OT_
FNDA:0,_ZN8nlohmann6detail19json_sax_dom_parserINS_10basic_jsonISt3mapSt6vectorNSt7__cxx1112basic_stringIcSt11char_traitsIcESaIcEEEblmdSaNS_14adl_serializerEEEE12handle_valueIRlEEPSC_OT_
FNDA:0,_ZN8nlohmann6detail19json_sax_dom_parserINS_10basic_jsonISt3mapSt6vectorNSt7__cxx1112basic_stringIcSt11char_traitsIcESaIcEEEblmdSaNS_14adl_serializerEEEE12handle_valueIRmEEPSC_OT_
FNDA:0,_ZN8nlohmann6detail19json_sax_dom_parserINS_10basic_jsonISt3mapSt6vectorNSt7__cxx1112basic_stringIcSt11char_traitsIcESaIcEEEblmdSaNS_14adl_serializerEEEE12start_objectEm
FNDA:0,_ZN8nlohmann6detail20get_arithmetic_valueINS_10basic_jsonISt3mapSt6vectorNSt7__cxx1112basic_stringIcSt11char_traitsIcESaIcEEEblmdSaNS_14adl_serializerEEEdLi0EEEvRKT_RT0_
FNDA:0,_ZN8nlohmann6detail20input_buffer_adapter13get_characterEv
FNDA:0,_ZN8nlohmann6detail20input_buffer_adapterD0Ev
FNDA:0,_ZN8nlohmann6detail20input_buffer_adapterD2Ev
FNDA:0,_ZN8nlohmann6detail20input_stream_adapter13get_characterEv
FNDA:0,_ZN8nlohmann6detail20input_stream_adapterD0Ev
FNDA:0,_ZN8nlohmann6detail20input_stream_adapterD2Ev
FNDA:0,_ZN8nlohmann6detail21output_stream_adapterIcE15write_characterEc
FNDA:0,_ZN8nlohmann6detail21output_stream_adapterIcE16write_charactersEPKcm
FNDA:0,_ZN8nlohmann6detail21output_string_adapterIcNSt7__cxx1112basic_stringIcSt11char_traitsIcESaIcEEEE15write_characterEc
FNDA:0,_ZN8nlohmann6detail21output_string_adapterIcNSt7__cxx1112basic_stringIcSt11char_traitsIcESaIcEEEE16write_charactersEPKcm
FNDA:0,_ZN8nlohmann6detail24wide_string_input_helperINSt7__cxx1112basic_stringIDiSt11char_traitsIDiESaIDiEEELm4EE11fill_bufferERKS7_RmRSt5arrayIiLm4EESB_SB_
FNDA:0,_ZN8nlohmann6detail24wide_string_input_helperINSt7__cxx1112basic_stringIDsSt11char_traitsIDsESaIDsEEELm2EE11fill_bufferERKS7_RmRSt5arrayIiLm4EESB_SB_
FNDA:0,_ZN8nlohmann6detail24wide_string_input_helperINSt7__cxx1112basic_stringIwSt11char_traitsIwESaIwEEELm4EE11fill_bufferERKS7_RmRSt5arrayIiLm4EESB_SB_
FNDA:0,_ZN8nlohmann6detail25wide_string_input_adapterINSt7__cxx1112basic_stringIDiSt11char_traitsIDiESaIDiEEEE13get_characterEv
FNDA:0,_ZN8nlohmann6detail25wide_string_input_adapterINSt7__cxx1112basic_stringIDsSt11char_traitsIDsESaIDsEEEE13get_characterEv
FNDA:0,_ZN8nlohmann6detail25wide_string_input_adapterINSt7__cxx1112basic_stringIwSt11char_traitsIwESaIwEEEE13get_characterEv
FNDA:0,_ZN8nlohmann6detail28json_sax_dom_callback_parserINS_10basic_jsonISt3mapSt6vectorNSt7__cxx1112basic_stringIcSt11char_traitsIcESaIcEEEblmdSaNS_14adl_serializerEEEE10end_objectEv
FNDA:0,_ZN8nlohmann6detail28json_sax_dom_callback_parserINS_10basic_jsonISt3mapSt6vectorNSt7__cxx1112basic_stringIcSt11char_traitsIcESaIcEEEblmdSaNS_14adl_serializerEEEE11parse_errorEmRKSA_RKNS0_9exceptionE
FNDA:0,_ZN8nlohmann6detail28json_sax_dom_callback_parserINS_10basic_jsonISt3mapSt6vectorNSt7__cxx1112basic_stringIcSt11char_traitsIcESaIcEEEblmdSaNS_14adl_serializerEEEE11start_arrayEm
FNDA:0,_ZN8nlohmann6detail28json_sax_dom_callback_parserINS_10basic_jsonISt3mapSt6vectorNSt7__cxx1112basic_stringIcSt11char_traitsIcESaIcEEEblmdSaNS_14adl_serializerEEEE12handle_valueIDnEESt4pairIbPSC_EOT_b
FNDA:0,_ZN8nlohmann6detail28json_sax_dom_callback_parserINS_10basic_jsonISt3mapSt6vectorNSt7__cxx1112basic_stringIcSt11char_traitsIcESaIcEEEblmdSaNS_14adl_serializerEEEE12handle_valueINS0_7value_tEEESt4pairIbPSC_EOT_b
FNDA:0,_ZN8nlohmann6detail28json_sax_dom_callback_parserINS_10basic_jsonISt3mapSt6vectorNSt7__cxx1112basic_stringIcSt11char_traitsIcESaIcEEEblmdSaNS_14adl_serializerEEEE12handle_valueIRSA_EESt4pairIbPSC_EOT_b
FNDA:0,_ZN8nlohmann6detail28json_sax_dom_callback_parserINS_10basic_jsonISt3mapSt6vectorNSt7__cxx1112basic_stringIcSt11char_traitsIcESaIcEEEblmdSaNS_14adl_serializerEEEE12handle_valueIRbEESt4pairIbPSC_EOT_b
FNDA:0,_ZN8nlohmann6detail28json_sax_dom_callback_parserINS_10basic_jsonISt3mapSt6vectorNSt7__cxx1112basic_stringIcSt11char_traitsIcESaIcEEEblmdSaNS_14adl_serializerEEEE12handle_valueIRdEESt4pairIbPSC_EOT_b
FNDA:0,_ZN8nlohmann6detail28json_sax_dom_callback_parserINS_10basic_jsonISt3mapSt6vectorNSt7__cxx1112basic_stringIcSt11char_traitsIcESaIcEEEblmdSaNS_14adl_serializerEEEE12handle_valueIRlEESt4pairIbPSC_EOT_b
FNDA:0,_ZN8nlohmann6detail28json_sax_dom_callback_parserINS_10basic_jsonISt3mapSt6vectorNSt7__cxx1112basic_stringIcSt11char_traitsIcESaIcEEEblmdSaNS_14adl_serializerEEEE12handle_valueIRmEESt4pairIbPSC_EOT_b
FNDA:0,_ZN8nlohmann6detail28json_sax_dom_callback_parserINS_10basic_jsonISt3mapSt6vectorNSt7__cxx1112basic_stringIcSt11char_traitsIcESaIcEEEblmdSaNS_14adl_serializerEEEE12start_objectEm
FNDA:0,_ZN8nlohmann6detail28json_sax_dom_callback_parserINS_10basic_jsonISt3mapSt6vectorNSt7__cxx1112basic_stringIcSt11char_traitsIcESaIcEEEblmdSaNS_14adl_serializerEEEE3keyERSA_
FNDA:0,_ZN8nlohmann6detail28json_sax_dom_callback_parserINS_10basic_jsonISt3mapSt6vectorNSt7__cxx1112basic_stringIcSt11char_traitsIcESaIcEEEblmdSaNS_14adl_serializerEEEE9end_arrayEv
FNDA:0,_ZN8nlohmann6detail28json_sax_dom_callback_parserINS_10basic_jsonISt3mapSt6vectorNSt7__cxx1112basic_stringIcSt11char_traitsIcESaIcEEEblmdSaNS_14adl_serializerEEEEC2ERSC_St8functionIFbiNS0_6parserISC_E13parse_event_tESE_EEb
FNDA:0,_ZN8nlohmann6detail28json_sax_dom_callback_parserINS_10basic_jsonISt3mapSt6vectorNSt7__cxx1112basic_stringIcSt11char_traitsIcESaIcEEEblmdSaNS_14adl_serializerEEEED2Ev
FNDA:0,_ZN8nlohmann6detail5lexerINS_10basic_jsonISt3mapSt6vectorNSt7__cxx1112basic_stringIcSt11char_traitsIcESaIcEEEblmdSaNS_14adl_serializerEEEE11scan_numberEv
FNDA:0,_ZN8nlohmann6detail5lexerINS_10basic_jsonISt3mapSt6vectorNSt7__cxx1112basic_stringIcSt11char_traitsIcESaIcEEEblmdSaNS_14adl_serializerEEEE11scan_stringEv
FNDA:0,_ZN8nlohmann6detail5lexerINS_10basic_jsonISt3mapSt6vectorNSt7__cxx1112basic_stringIcSt11char_traitsIcESaIcEEEblmdSaNS_14adl_serializerEEEE13get_codepointEv
FNDA:0,_ZN8nlohmann6detail5lexerINS_10basic_jsonISt3mapSt6vectorNSt7__cxx1112basic_stringIcSt11char_traitsIcESaIcEEEblmdSaNS_14adl_serializerEEEE15token_type_nameENSD_10token_typeE
FNDA:0,_ZN8nlohmann6detail5lexerINS_10basic_jsonISt3mapSt6vectorNSt7__cxx1112basic_stringIcSt11char_traitsIcESaIcEEEblmdSaNS_14adl_serializerEEEE18next_byte_in_rangeESt16initializer_listIiE
FNDA:0,_ZN8nlohmann6detail5lexerINS_10basic_jsonISt3mapSt6vectorNSt7__cxx1112basic_stringIcSt11char_traitsIcESaIcEEEblmdSaNS_14adl_serializerEEEE3getEv
FNDA:0,_ZN8nlohmann6detail5lexerINS_10basic_jsonISt3mapSt6vectorNSt7__cxx1112basic_stringIcSt11char_traitsIcESaIcEEEblmdSaNS_14adl_serializerEEEE4scanEv
FNDA:0,_ZN8nlohmann6detail5lexerINS_10basic_jsonISt3mapSt6vectorNSt7__cxx1112basic_stringIcSt11char_traitsIcESaIcEEEblmdSaNS_14adl_serializerEEEE5resetEv
FNDA:0,_ZN8nlohmann6detail5lexerINS_10basic_jsonISt3mapSt6vectorNSt7__cxx1112basic_stringIcSt11char_traitsIcESaIcEEEblmdSaNS_14adl_serializerEEEE8skip_bomEv
FNDA:0,_ZN8nlohmann6detail5lexerINS_10basic_jsonISt3mapSt6vectorNSt7__cxx1112basic_stringIcSt11char_traitsIcESaIcEEEblmdSaNS_14adl_serializerEEEEC2EOSt10shared_ptrINS0_22input_adapter_protocolEE
FNDA:0,_ZN8nlohmann6detail5lexerINS_10basic_jsonISt3mapSt6vectorNSt7__cxx1112basic_stringIcSt11char_traitsIcESaIcEEEblmdSaNS_14adl_serializerEEEED2Ev
FNDA:0,_ZN8nlohmann6detail6parserINS_10basic_jsonISt3mapSt6vectorNSt7__cxx1112basic_stringIcSt11char_traitsIcESaIcEEEblmdSaNS_14adl_serializerEEEE17exception_messageENS0_5lexerISC_E10token_typeERKSA_
FNDA:0,_ZN8nlohmann6detail6parserINS_10basic_jsonISt3mapSt6vectorNSt7__cxx1112basic_stringIcSt11char_traitsIcESaIcEEEblmdSaNS_14adl_serializerEEEE18sax_parse_internalINS0_19json_sax_dom_parserISC_EEEEbPT_
FNDA:0,_ZN8nlohmann6detail6parserINS_10basic_jsonISt3mapSt6vectorNSt7__cxx1112basic_stringIcSt11char_traitsIcESaIcEEEblmdSaNS_14adl_serializerEEEE18sax_parse_internalINS0_28json_sax_dom_callback_parserISC_EEEEbPT_
FNDA:0,_ZN8nlohmann6detail6parserINS_10basic_jsonISt3mapSt6vectorNSt7__cxx1112basic_stringIcSt11char_traitsIcESaIcEEEblmdSaNS_14adl_serializerEEEE5parseEbRSC_
FNDA:0,_ZN8nlohmann6detail6parserINS_10basic_jsonISt3mapSt6vectorNSt7__cxx1112basic_stringIcSt11char_traitsIcESaIcEEEblmdSaNS_14adl_serializerEEEEC2EOSt10shared_ptrINS0_22input_adapter_protocolEESt8functionIFbiNSD_13parse_event_tERSC_EEb
FNDA:0,_ZN8nlohmann6detail8to_charsIdEEPcS2_PKcT_
FNDA:0,_ZN8nlohmann6detail9dtoa_impl13format_bufferEPciiii
FNDA:0,_ZN8nlohmann6detail9dtoa_impl15append_exponentEPci
FNDA:0,_ZN8nlohmann6detail9dtoa_impl16grisu2_digit_genEPcRiS3_NS1_5diyfpES4_S4_
FNDA:0,_ZN8nlohmann6detail9dtoa_impl18compute_boundariesIdEENS1_10boundariesET_
FNDA:0,_ZN8nlohmann6detail9dtoa_impl18find_largest_pow10EjRj
FNDA:0,_ZN8nlohmann6detail9dtoa_impl5diyfp3mulERKS2_S4_
FNDA:0,_ZN8nlohmann6detail9dtoa_impl6grisu2EPcRiS3_NS1_5diyfpES4_S4_
FNDA:0,_ZN8nlohmann6detail9dtoa_impl6grisu2IdEEvPcRiS4_T_
FNDA:0,_ZN8nlohmann6detail9exception4nameERKNSt7__cxx1112basic_stringIcSt11char_traitsIcESaIcEEEi
FNDA:0,_ZN8nlohmann6detail9from_jsonINS_10basic_jsonISt3mapSt6vectorNSt7__cxx1112basic_stringIcSt11char_traitsIcESaIcEEEblmdSaNS_14adl_serializerEEEEEvRKT_RNSD_8string_tE
FNDA:0,_ZN8nlohmann6detail9from_jsonINS_10basic_jsonISt3mapSt6vectorNSt7__cxx1112basic_stringIcSt11char_traitsIcESaIcEEEblmdSaNS_14adl_serializerEEEEEvRKT_RNSD_9boolean_tE
FNDA:0,_ZN8nlohmann6detail9from_jsonINS_10basic_jsonISt3mapSt6vectorNSt7__cxx1112basic_stringIcSt11char_traitsIcESaIcEEEblmdSaNS_14adl_serializerEEEiLi0EEEvRKT_RT0_
FNDA:0,_ZN8nlohmann6detail9iter_implIKNS_10basic_jsonISt3mapSt6vectorNSt7__cxx1112basic_stringIcSt11char_traitsIcESaIcEEEblmdSaNS_14adl_serializerEEEEppEv
FNDA:0,_ZN8nlohmann6detail9iter_implINS_10basic_jsonISt3mapSt6vectorNSt7__cxx1112basic_stringIcSt11char_traitsIcESaIcEEEblmdSaNS_14adl_serializerEEEEppEv
FNDA:0,_ZN8nlohmanneqERKNS_10basic_jsonISt3mapSt6vectorNSt7__cxx1112basic_stringIcSt11char_traitsIcESaIcEEEblmdSaNS_14adl_serializerEEESC_
FNDA:0,_ZN8nlohmannlsERSoRKNS_10basic_jsonISt3mapSt6vectorNSt7__cxx1112basic_stringIcSt11char_traitsIcESaIcEEEblmdSaNS_14adl_serializerEEE
FNDA:0,_ZNK8nlohmann10basic_jsonISt3mapSt6vectorNSt7__cxx1112basic_stringIcSt11char_traitsIcESaIcEEEblmdSaNS_14adl_serializerEE3getIS8_S8_Li0EEET0_v
FNDA:0,_ZNK8nlohmann10basic_jsonISt3mapSt6vectorNSt7__cxx1112basic_stringIcSt11char_traitsIcESaIcEEEblmdSaNS_14adl_serializerEE4cendEv
FNDA:0,_ZNK8nlohmann10basic_jsonISt3mapSt6vectorNSt7__cxx1112basic_stringIcSt11char_traitsIcESaIcEEEblmdSaNS_14adl_serializerEE4dumpEicbNS_6detail15error_handler_tE
FNDA:0,_ZNK8nlohmann10basic_jsonISt3mapSt6vectorNSt7__cxx1112basic_stringIcSt11char_traitsIcESaIcEEEblmdSaNS_14adl_serializerEE6cbeginEv
FNDA:0,_ZNK8nlohmann6detail5lexerINS_10basic_jsonISt3mapSt6vectorNSt7__cxx1112basic_stringIcSt11char_traitsIcESaIcEEEblmdSaNS_14adl_serializerEEEE16get_token_stringEv
FNDA:0,_ZNK8nlohmann6detail9exception4whatEv
FNDA:0,_ZNK8nlohmann6detail9iter_implIKNS_10basic_jsonISt3mapSt6vectorNSt7__cxx1112basic_stringIcSt11char_traitsIcESaIcEEEblmdSaNS_14adl_serializerEEEE3keyEv
FNDA:0,_ZNK8nlohmann6detail9iter_implIKNS_10basic_jsonISt3mapSt6vectorNSt7__cxx1112basic_stringIcSt11char_traitsIcESaIcEEEblmdSaNS_14adl_serializerEEEEdeEv
FNDA:0,_ZNK8nlohmann6detail9iter_implIKNS_10basic_jsonISt3mapSt6vectorNSt7__cxx1112basic_stringIcSt11char_traitsIcESaIcEEEblmdSaNS_14adl_serializerEEEEeqERKSE_
FNDA:0,_ZNK8nlohmann6detail9iter_implIKNS_10basic_jsonISt3mapSt6vectorNSt7__cxx1112basic_stringIcSt11char_traitsIcESaIcEEEblmdSaNS_14adl_serializerEEEEptEv
FNDA:0,_ZNK8nlohmann6detail9iter_implINS_10basic_jsonISt3mapSt6vectorNSt7__cxx1112basic_stringIcSt11char_traitsIcESaIcEEEblmdSaNS_14adl_serializerEEEE3keyEv
FNDA:0,_ZNK8nlohmann6detail9iter_implINS_10basic_jsonISt3mapSt6vectorNSt7__cxx1112basic_stringIcSt11char_traitsIcESaIcEEEblmdSaNS_14adl_serializerEEEEdeEv
FNDA:0,_ZNK8nlohmann6detail9iter_implINS_10basic_jsonISt3mapSt6vectorNSt7__cxx1112basic_stringIcSt11char_traitsIcESaIcEEEblmdSaNS_14adl_serializerEEEEeqERKSD_
FNDA:0,_ZNK8nlohmann6detail9iter_implINS_10basic_jsonISt3mapSt6vectorNSt7__cxx1112basic_stringIcSt11char_traitsIcESaIcEEEblmdSaNS_14adl_serializerEEEEptEv
FNF:132
FNH:0
DA:145,0
DA:149,0
DA:151,0
DA:158,0
DA:160,0
DA:162,0
DA:214,0
DA:226,0
DA:228,0
DA:229,0
DA:230,0
DA:254,0
DA:256,0
DA:258,0
DA:259,0
DA:300,0
DA:303,0
DA:305,0
DA:306,0
DA:310,0
DA:311,0
DA:353,0
DA:356,0
DA:358,0
DA:359,0
DA:363,0
DA:399,0
DA:402,0
DA:404,0
DA:405,0
DA:409,0
DA:436,0
DA:439,0
DA:441,0
DA:442,0
DA:446,0
DA:1312,0
DA:1314,0
DA:1318,0
DA:1319,0
DA:1323,0
DA:1324,0
DA:1328,0
DA:1329,0
DA:1332,0
DA:1333,0
DA:1335,0
DA:1338,0
DA:1340,0
DA:1342,0
DA:1344,0
DA:1345,0
DA:1348,0
DA:1350,0
DA:1352,0
DA:1355,0
DA:1377,0
DA:1536,0
DA:1538,0
DA:1542,0
DA:1543,0
DA:1547,0
DA:1548,0
DA:1552,0
DA:1553,0
DA:1557,0
DA:1558,0
DA:1561,0
DA:1562,0
DA:1564,0
DA:1629,0
DA:1853,0
DA:1854,0
DA:1865,0
DA:1866,0
DA:1895,0
DA:1896,0
DA:1907,0
DA:1908,0
DA:1919,0
DA:1920,0
DA:2055,0
DA:2153,0
DA:2187,0
DA:2302,0
DA:2304,0
DA:2306,0
DA:2327,0
DA:2328,0
DA:2331,0
DA:2332,0
DA:2347,0
DA:2349,0
DA:2351,0
DA:2353,0
DA:2355,0
DA:2369,0
DA:2377,0
DA:2379,0
DA:2381,0
DA:2383,0
DA:2400,0
DA:2406,0
DA:2408,0
DA:2410,0
DA:2411,0
DA:2416,0
DA:2419,0
DA:2421,0
DA:2422,0
DA:2424,0
DA:2426,0
DA:2427,0
DA:2428,0
DA:2430,0
DA:2432,0
DA:2433,0
DA:2434,0
DA:2435,0
DA:2437,0
DA:2439,0
DA:2440,0
DA:2441,0
DA:2442,0
DA:2443,0
DA:2448,0
DA:2449,0
DA:2452,0
DA:2459,0
DA:2465,0
DA:2467,0
DA:2469,0
DA:2470,0
DA:2475,0
DA:2478,0
DA:2480,0
DA:2481,0
DA:2483,0
DA:2485,0
DA:2486,0
DA:2487,0
DA:2489,0
DA:2491,0
DA:2492,0
DA:2493,0
DA:2494,0
DA:2498,0
DA:2500,0
DA:2501,0
DA:2502,0
DA:2503,0
DA:2504,0
DA:2505,0
DA:2506,0
DA:2511,0
DA:2512,0
DA:2513,0
DA:2517,0
DA:2528,0
DA:2531,0
DA:2542,0
DA:2549,0
DA:2550,0
DA:2567,0
DA:2618,0
DA:2638,0
DA:2639,0
DA:2642,0
DA:2647,0
DA:2649,0
DA:2653,0
DA:2654,0
DA:2661,0
DA:2662,0
DA:2836,0
DA:2837,0
DA:2849,0
DA:2855,0
DA:2861,0
DA:2867,0
DA:2873,0
DA:2879,0
DA:2883,0
DA:2885,0
DA:2887,0
DA:2889,0
DA:2893,0
DA:2899,0
DA:2909,0
DA:2911,0
DA:2913,0
DA:2915,0
DA:2919,0
DA:2928,0
DA:2931,0
DA:2932,0
DA:2935,0
DA:2937,0
DA:2938,0
DA:2939,0
DA:2940,0
DA:2953,0
DA:2958,0
DA:2969,0
DA:2971,0
DA:2973,0
DA:2974,0
DA:2979,0
DA:2981,0
DA:2982,0
DA:2987,0
DA:2988,0
DA:3014,0
DA:3017,0
DA:3019,0
DA:3020,0
DA:3027,0
DA:3031,0
DA:3037,0
DA:3043,0
DA:3049,0
DA:3055,0
DA:3061,0
DA:3065,0
DA:3068,0
DA:3069,0
DA:3071,0
DA:3072,0
DA:3075,0
DA:3077,0
DA:3080,0
DA:3083,0
DA:3088,0
DA:3089,0
DA:3092,0
DA:3094,0
DA:3097,0
DA:3100,0
DA:3102,0
DA:3105,0
DA:3113,0
DA:3116,0
DA:3118,0
DA:3120,0
DA:3121,0
DA:3126,0
DA:3129,0
DA:3131,0
DA:3132,0
DA:3134,0
DA:3135,0
DA:3138,0
DA:3140,0
DA:3143,0
DA:3146,0
DA:3150,0
DA:3152,0
DA:3153,0
DA:3156,0
DA:3166,0
DA:3168,0
DA:3171,0
DA:3174,0
DA:3177,0
DA:3178,0
DA:3181,0
DA:3183,0
DA:3184,0
DA:3185,0
DA:3186,0
DA:3199,0
DA:3204,0
DA:3224,0
DA:3230,0
DA:3232,0
DA:3236,0
DA:3239,0
DA:3244,0
DA:3247,0
DA:3249,0
DA:3250,0
DA:3255,0
DA:3257,0
DA:3264,0
DA:3266,0
DA:3267,0
DA:3277,0
DA:3279,0
DA:3283,0
DA:3284,0
DA:5563,0
DA:5565,0
DA:5569,0
DA:5570,0
DA:5571,0
DA:5572,0
DA:5573,0
DA:5574,0
DA:5575,0
DA:5576,0
DA:5577,0
DA:5580,0
DA:5581,0
DA:5582,0
DA:5583,0
DA:5584,0
DA:5585,0
DA:5586,0
DA:5587,0
DA:5588,0
DA:5589,0
DA:5590,0
DA:5591,0
DA:5592,0
DA:5593,0
DA:5594,0
DA:5595,0
DA:5596,0
DA:5597,0
DA:5598,0
DA:5606,0
DA:5607,0
DA:5614,0
DA:5624,0
DA:5626,0
DA:5648,0
DA:5654,0
DA:5655,0
DA:5657,0
DA:5659,0
DA:5661,0
DA:5663,0
DA:5665,0
DA:5667,0
DA:5669,0
DA:5696,0
DA:5699,0
DA:5701,0
DA:5703,0
DA:5704,0
DA:5710,0
DA:5711,0
DA:5733,0
DA:5736,0
DA:5744,0
DA:5747,0
DA:5749,0
DA:5750,0
DA:5760,0
DA:5762,0
DA:5798,0
DA:5800,0
DA:5803,0
DA:5805,0
DA:5806,0
DA:5810,0
DA:5813,0
DA:5815,0
DA:5817,0
DA:5819,0
DA:5820,0
DA:5824,0
DA:5827,0
DA:5829,0
DA:5831,0
DA:5835,0
DA:5839,0
DA:5840,0
DA:5845,0
DA:5846,0
DA:5851,0
DA:5853,0
DA:5854,0
DA:5862,0
DA:5867,0
DA:5870,0
DA:5871,0
DA:5873,0
DA:5876,0
DA:5877,0
DA:5878,0
DA:5883,0
DA:5884,0
DA:5885,0
DA:5886,0
DA:5893,0
DA:5894,0
DA:5895,0
DA:5902,0
DA:5904,0
DA:5905,0
DA:5908,0
DA:5910,0
DA:5911,0
DA:5914,0
DA:5916,0
DA:5917,0
DA:5920,0
DA:5922,0
DA:5923,0
DA:5926,0
DA:5928,0
DA:5929,0
DA:5932,0
DA:5934,0
DA:5935,0
DA:5938,0
DA:5940,0
DA:5941,0
DA:5944,0
DA:5946,0
DA:5947,0
DA:5950,0
DA:5952,0
DA:5953,0
DA:5956,0
DA:5958,0
DA:5959,0
DA:5962,0
DA:5964,0
DA:5965,0
DA:5968,0
DA:5970,0
DA:5971,0
DA:5974,0
DA:5976,0
DA:5977,0
DA:5980,0
DA:5982,0
DA:5983,0
DA:5986,0
DA:5988,0
DA:5989,0
DA:5992,0
DA:5994,0
DA:5995,0
DA:5998,0
DA:6000,0
DA:6001,0
DA:6004,0
DA:6006,0
DA:6007,0
DA:6010,0
DA:6012,0
DA:6013,0
DA:6016,0
DA:6018,0
DA:6019,0
DA:6022,0
DA:6024,0
DA:6025,0
DA:6028,0
DA:6030,0
DA:6031,0
DA:6034,0
DA:6036,0
DA:6037,0
DA:6040,0
DA:6042,0
DA:6043,0
DA:6046,0
DA:6048,0
DA:6049,0
DA:6052,0
DA:6054,0
DA:6055,0
DA:6058,0
DA:6060,0
DA:6061,0
DA:6064,0
DA:6066,0
DA:6067,0
DA:6070,0
DA:6072,0
DA:6073,0
DA:6076,0
DA:6078,0
DA:6079,0
DA:6082,0
DA:6084,0
DA:6085,0
DA:6088,0
DA:6090,0
DA:6091,0
DA:6095,0
DA:6190,0
DA:6195,0
DA:6226,0
DA:6234,0
DA:6236,0
DA:6245,0
DA:6260,0
DA:6268,0
DA:6270,0
DA:6278,0
DA:6280,0
DA:6288,0
DA:6292,0
DA:6300,0
DA:6302,0
DA:6310,0
DA:6312,0
DA:6313,0
DA:6326,0
DA:6374,0
DA:6377,0
DA:6384,0
DA:6386,0
DA:6389,0
DA:6392,0
DA:6395,0
DA:6398,0
DA:6409,0
DA:6417,0
DA:6420,0
DA:6422,0
DA:6424,0
DA:6425,0
DA:6428,0
DA:6438,0
DA:6439,0
DA:6442,0
DA:6444,0
DA:6445,0
DA:6449,0
DA:6451,0
DA:6453,0
DA:6455,0
DA:6456,0
DA:6459,0
DA:6462,0
DA:6463,0
DA:6466,0
DA:6467,0
DA:6470,0
DA:6472,0
DA:6474,0
DA:6485,0
DA:6486,0
DA:6489,0
DA:6491,0
DA:6492,0
DA:6495,0
DA:6498,0
DA:6499,0
DA:6502,0
DA:6503,0
DA:6506,0
DA:6509,0
DA:6511,0
DA:6522,0
DA:6523,0
DA:6526,0
DA:6528,0
DA:6529,0
DA:6533,0
DA:6535,0
DA:6537,0
DA:6548,0
DA:6549,0
DA:6552,0
DA:6555,0
DA:6556,0
DA:6559,0
DA:6560,0
DA:6563,0
DA:6566,0
DA:6568,0
DA:6571,0
DA:6572,0
DA:6575,0
DA:6586,0
DA:6587,0
DA:6590,0
DA:6592,0
DA:6594,0
DA:6600,0
DA:6602,0
DA:6613,0
DA:6614,0
DA:6617,0
DA:6619,0
DA:6620,0
DA:6626,0
DA:6628,0
DA:6639,0
DA:6640,0
DA:6643,0
DA:6644,0
DA:6647,0
DA:6652,0
DA:6653,0
DA:6656,0
DA:6658,0
DA:6663,0
DA:6665,0
DA:6668,0
DA:6672,0
DA:6674,0
DA:6679,0
DA:6681,0
DA:6684,0
DA:6696,0
DA:6708,0
DA:6710,0
DA:6712,0
DA:6713,0
DA:6724,0
DA:6727,0
DA:6728,0
DA:6729,0
DA:6741,0
DA:6743,0
DA:6744,0
DA:6746,0
DA:6749,0
DA:6753,0
DA:6756,0
DA:6758,0
DA:6761,0
DA:6763,0
DA:6764,0
DA:6767,0
DA:6780,0
DA:6782,0
DA:6785,0
DA:6787,0
DA:6789,0
DA:6794,0
DA:6797,0
DA:6807,0
DA:6808,0
DA:6818,0
DA:6824,0
DA:6830,0
DA:6836,0
DA:6846,0
DA:6852,0
DA:6856,0
DA:6858,0
DA:6861,0
DA:6862,0
DA:6868,0
DA:6872,0
DA:6878,0
DA:6889,0
DA:6891,0
DA:6894,0
DA:6903,0
DA:6906,0
DA:6908,0
DA:6909,0
DA:6915,0
DA:6917,0
DA:6919,0
DA:6924,0
DA:6925,0
DA:6926,0
DA:6927,0
DA:6928,0
DA:6929,0
DA:6930,0
DA:6931,0
DA:6932,0
DA:6933,0
DA:6944,0
DA:6945,0
DA:6948,0
DA:6959,0
DA:6963,0
DA:6965,0
DA:6968,0
DA:6969,0
DA:6970,0
DA:7077,0
DA:7080,0
DA:7084,0
DA:7096,0
DA:7098,0
DA:7100,0
DA:7101,0
DA:7105,0
DA:7107,0
DA:7109,0
DA:7114,0
DA:7116,0
DA:7122,0
DA:7124,0
DA:7126,0
DA:7129,0
DA:7130,0
DA:7134,0
DA:7136,0
DA:7138,0
DA:7143,0
DA:7145,0
DA:7183,0
DA:7196,0
DA:7198,0
DA:7200,0
DA:7206,0
DA:7208,0
DA:7216,0
DA:7218,0
DA:7220,0
DA:7223,0
DA:7229,0
DA:7231,0
DA:7233,0
DA:7238,0
DA:7242,0
DA:7245,0
DA:7247,0
DA:7253,0
DA:7255,0
DA:7263,0
DA:7266,0
DA:7269,0
DA:7273,0
DA:7275,0
DA:7280,0
DA:7288,0
DA:7290,0
DA:7306,0
DA:7308,0
DA:7315,0
DA:7317,0
DA:7324,0
DA:7333,0
DA:7335,0
DA:7342,0
DA:7345,0
DA:7347,0
DA:7351,0
DA:7353,0
DA:7355,0
DA:7358,0
DA:7372,0
DA:7375,0
DA:7379,0
DA:7383,0
DA:7385,0
DA:7400,0
DA:7402,0
DA:7408,0
DA:7411,0
DA:7413,0
DA:7415,0
DA:7419,0
DA:7425,0
DA:7427,0
DA:7429,0
DA:7435,0
DA:7439,0
DA:7441,0
DA:7456,0
DA:7458,0
DA:7467,0
DA:7470,0
DA:7472,0
DA:7474,0
DA:7476,0
DA:7481,0
DA:7483,0
DA:7488,0
DA:7491,0
DA:7493,0
DA:7496,0
DA:7534,0
DA:7553,0
DA:7554,0
DA:7559,0
DA:7560,0
DA:7565,0
DA:7576,0
DA:7598,0
DA:7599,0
DA:7753,0
DA:7757,0
DA:7761,0
DA:7762,0
DA:7767,0
DA:7768,0
DA:7771,0
DA:7773,0
DA:7774,0
DA:7793,0
DA:7794,0
DA:7818,0
DA:7820,0
DA:7822,0
DA:7823,0
DA:7826,0
DA:7828,0
DA:7829,0
DA:7832,0
DA:7839,0
DA:7855,0
DA:7857,0
DA:7859,0
DA:7860,0
DA:7863,0
DA:7865,0
DA:7866,0
DA:7869,0
DA:7882,0
DA:7886,0
DA:7888,0
DA:7891,0
DA:7894,0
DA:7897,0
DA:7900,0
DA:7901,0
DA:7903,0
DA:7905,0
DA:7910,0
DA:7919,0
DA:7923,0
DA:7925,0
DA:7928,0
DA:7931,0
DA:7934,0
DA:7937,0
DA:7939,0
DA:7944,0
DA:7956,0
DA:7964,0
DA:7968,0
DA:7970,0
DA:7972,0
DA:7976,0
DA:7982,0
DA:7989,0
DA:8039,0
DA:8042,0
DA:8044,0
DA:8049,0
DA:8051,0
DA:8052,0
DA:8054,0
DA:8055,0
DA:8057,0
DA:8058,0
DA:8068,0
DA:8252,0
DA:8256,0
DA:8258,0
DA:8261,0
DA:8270,0
DA:9497,0
DA:9498,0
DA:9501,0
DA:9503,0
DA:9504,0
DA:9506,0
DA:9508,0
DA:9509,0
DA:9520,0
DA:9521,0
DA:9524,0
DA:9526,0
DA:9527,0
DA:9529,0
DA:9531,0
DA:9532,0
DA:9539,0
DA:9545,0
DA:9546,0
DA:9548,0
DA:9549,0
DA:10962,0
DA:10973,0
DA:10980,0
DA:11007,0
DA:11008,0
DA:11009,0
DA:11010,0
DA:11012,0
DA:11013,0
DA:11014,0
DA:11015,0
DA:11017,0
DA:11018,0
DA:11019,0
DA:11020,0
DA:11021,0
DA:11023,0
DA:11034,0
DA:11036,0
DA:11038,0
DA:11049,0
DA:11051,0
DA:11052,0
DA:11064,0
DA:11069,0
DA:11087,0
DA:11110,0
DA:11111,0
DA:11114,0
DA:11139,0
DA:11140,0
DA:11141,0
DA:11142,0
DA:11151,0
DA:11372,0
DA:11373,0
DA:11375,0
DA:11379,0
DA:11390,0
DA:11399,0
DA:11401,0
DA:11402,0
DA:11404,0
DA:11406,0
DA:11407,0
DA:11409,0
DA:11411,0
DA:11412,0
DA:11414,0
DA:11416,0
DA:11417,0
DA:11419,0
DA:11421,0
DA:11422,0
DA:11424,0
DA:11426,0
DA:11427,0
DA:11429,0
DA:11431,0
DA:11432,0
DA:11434,0
DA:11436,0
DA:11437,0
DA:11441,0
DA:11442,0
DA:11473,0
DA:11474,0
DA:11475,0
DA:11478,0
DA:11487,0
DA:11518,0
DA:11520,0
DA:11521,0
DA:11530,0
DA:11551,0
DA:11557,0
DA:11558,0
DA:11564,0
DA:11569,0
DA:11583,0
DA:11584,0
DA:11588,0
DA:11599,0
DA:11600,0
DA:11602,0
DA:11605,0
DA:11662,0
DA:11663,0
DA:11664,0
DA:11671,0
DA:11676,0
DA:11686,0
DA:11687,0
DA:11688,0
DA:11696,0
DA:11705,0
DA:11727,0
DA:11742,0
DA:11747,0
DA:11748,0
DA:11749,0
DA:11772,0
DA:11773,0
DA:11775,0
DA:11777,0
DA:11778,0
DA:11786,0
DA:11813,0
DA:11816,0
DA:11817,0
DA:11824,0
DA:11829,0
DA:11831,0
DA:11832,0
DA:11836,0
DA:11839,0
DA:11840,0
DA:11844,0
DA:11845,0
DA:11847,0
DA:11849,0
DA:11850,0
DA:11851,0
DA:11855,0
DA:11856,0
DA:11857,0
DA:11858,0
DA:11859,0
DA:11862,0
DA:11874,0
DA:11881,0
DA:11887,0
DA:11892,0
DA:11894,0
DA:11895,0
DA:11896,0
DA:11899,0
DA:11906,0
DA:11907,0
DA:11908,0
DA:11911,0
DA:11916,0
DA:11917,0
DA:11918,0
DA:11919,0
DA:11920,0
DA:11923,0
DA:11928,0
DA:11935,0
DA:11936,0
DA:11937,0
DA:11940,0
DA:11941,0
DA:11957,0
DA:11963,0
DA:11965,0
DA:11966,0
DA:11969,0
DA:11971,0
DA:11973,0
DA:11974,0
DA:11975,0
DA:11984,0
DA:11985,0
DA:11986,0
DA:11999,0
DA:12050,0
DA:12053,0
DA:12054,0
DA:12055,0
DA:12056,0
DA:12057,0
DA:12058,0
DA:12059,0
DA:12066,0
DA:12085,0
DA:12090,0
DA:12092,0
DA:12094,0
DA:12096,0
DA:12097,0
DA:12100,0
DA:12102,0
DA:12105,0
DA:12106,0
DA:12108,0
DA:12112,0
DA:12113,0
DA:12115,0
DA:12116,0
DA:12117,0
DA:12118,0
DA:12119,0
DA:12120,0
DA:12126,0
DA:12127,0
DA:12128,0
DA:12129,0
DA:12130,0
DA:12132,0
DA:12133,0
DA:12134,0
DA:12138,0
DA:12141,0
DA:12142,0
DA:12144,0
DA:12145,0
DA:12146,0
DA:12147,0
DA:12148,0
DA:12154,0
DA:12155,0
DA:12156,0
DA:12157,0
DA:12159,0
DA:12165,0
DA:12167,0
DA:12169,0
DA:12170,0
DA:12173,0
DA:12175,0
DA:12178,0
DA:12179,0
DA:12181,0
DA:12185,0
DA:12186,0
DA:12188,0
DA:12189,0
DA:12190,0
DA:12195,0
DA:12196,0
DA:12198,0
DA:12199,0
DA:12200,0
DA:12204,0
DA:12207,0
DA:12208,0
DA:12210,0
DA:12211,0
DA:12216,0
DA:12218,0
DA:12224,0
DA:12226,0
DA:12227,0
DA:12228,0
DA:12229,0
DA:12232,0
DA:12234,0
DA:12236,0
DA:12240,0
DA:12245,0
DA:12247,0
DA:12248,0
DA:12251,0
DA:12253,0
DA:12254,0
DA:12257,0
DA:12259,0
DA:12260,0
DA:12263,0
DA:12265,0
DA:12266,0
DA:12269,0
DA:12271,0
DA:12272,0
DA:12295,0
DA:12305,0
DA:12307,0
DA:12309,0
DA:12311,0
DA:12315,0
DA:12317,0
DA:12318,0
DA:12319,0
DA:12322,0
DA:12324,0
DA:12325,0
DA:12326,0
DA:12329,0
DA:12331,0
DA:12332,0
DA:12333,0
DA:12336,0
DA:12338,0
DA:12339,0
DA:12340,0
DA:12343,0
DA:12345,0
DA:12346,0
DA:12347,0
DA:12350,0
DA:12352,0
DA:12353,0
DA:12354,0
DA:12357,0
DA:12359,0
DA:12360,0
DA:12361,0
DA:12364,0
DA:12368,0
DA:12370,0
DA:12372,0
DA:12374,0
DA:12378,0
DA:12379,0
DA:12380,0
DA:12381,0
DA:12388,0
DA:12397,0
DA:12399,0
DA:12409,0
DA:12411,0
DA:12417,0
DA:12420,0
DA:12427,0
DA:12429,0
DA:12436,0
DA:12439,0
DA:12441,0
DA:12442,0
DA:12443,0
DA:12444,0
DA:12445,0
DA:12446,0
DA:12450,0
DA:12451,0
DA:12452,0
DA:12458,0
DA:12460,0
DA:12480,0
DA:12482,0
DA:12485,0
DA:12487,0
DA:12488,0
DA:12494,0
DA:12497,0
DA:12499,0
DA:12505,0
DA:12510,0
DA:12511,0
DA:12514,0
DA:12517,0
DA:12521,0
DA:12524,0
DA:12526,0
DA:12528,0
DA:12532,0
DA:12541,0
DA:12556,0
DA:12560,0
DA:12562,0
DA:12564,0
DA:12566,0
DA:12568,0
DA:12570,0
DA:12572,0
DA:12573,0
DA:12590,0
DA:12609,0
DA:12611,0
DA:12612,0
DA:12623,0
DA:12625,0
DA:12626,0
DA:12629,0
DA:12633,0
DA:12642,0
DA:12646,0
DA:12648,0
DA:12649,0
DA:12650,0
DA:12651,0
DA:12654,0
DA:12657,0
DA:12658,0
DA:12662,0
DA:12665,0
DA:12676,0
DA:12679,0
DA:12681,0
DA:12682,0
DA:12694,0
DA:12697,0
DA:12700,0
DA:12702,0
DA:12703,0
DA:12797,0
DA:12800,0
DA:12801,0
DA:12803,0
DA:13592,0
DA:13597,0
DA:13604,0
DA:13655,0
DA:13663,0
DA:13665,0
DA:13667,0
DA:13669,0
DA:13670,0
DA:13675,0
DA:13676,0
DA:13679,0
DA:13681,0
DA:13682,0
DA:13685,0
DA:13687,0
DA:13688,0
DA:13691,0
DA:13693,0
DA:13694,0
DA:13697,0
DA:13699,0
DA:13700,0
DA:13703,0
DA:13705,0
DA:13706,0
DA:13709,0
DA:13711,0
DA:13712,0
DA:13715,0
DA:13717,0
DA:13718,0
DA:13725,0
DA:13730,0
DA:13742,0
DA:13752,0
DA:13754,0
DA:13755,0
DA:13763,0
DA:13765,0
DA:13770,0
DA:13771,0
DA:13778,0
DA:13779,0
DA:13786,0
DA:13787,0
DA:13796,0
DA:13813,0
DA:13926,0
DA:13927,0
DA:13930,0
DA:14017,0
DA:14020,0
DA:14334,0
DA:14335,0
DA:14337,0
DA:14523,0
DA:14524,0
DA:14529,0
DA:14531,0
DA:14533,0
DA:14534,0
DA:14537,0
DA:14539,0
DA:14540,0
DA:14543,0
DA:14545,0
DA:14546,0
DA:14549,0
DA:14551,0
DA:14552,0
DA:14555,0
DA:14557,0
DA:14558,0
DA:14561,0
DA:14563,0
DA:14564,0
DA:14567,0
DA:14569,0
DA:14570,0
DA:14578,0
DA:14606,0
DA:14607,0
DA:14608,0
DA:14614,0
DA:14615,0
DA:14676,0
DA:14679,0
DA:14680,0
DA:14734,0
DA:14740,0
DA:14742,0
DA:14744,0
DA:14748,0
DA:14751,0
DA:14752,0
DA:14788,0
DA:14867,0
DA:14889,0
DA:14919,0
DA:14948,0
DA:15004,0
DA:15026,0
DA:15048,0
DA:15070,0
DA:15097,0
DA:15123,0
DA:15177,0
DA:15189,0
DA:15201,0
DA:15213,0
DA:15225,0
DA:15348,0
DA:15361,0
DA:15875,0
DA:15878,0
DA:15880,0
DA:15881,0
DA:15886,0
DA:15889,0
DA:15891,0
DA:15892,0
DA:15893,0
DA:15896,0
DA:15899,0
DA:15959,0
DA:15962,0
DA:15964,0
DA:15965,0
DA:15970,0
DA:15972,0
DA:15975,0
DA:16394,0
DA:16397,0
DA:16399,0
DA:16402,0
DA:16404,0
DA:16406,0
DA:16412,0
DA:16414,0
DA:16417,0
DA:16420,0
DA:16421,0
DA:16422,0
DA:16425,0
DA:16430,0
DA:16432,0
DA:16433,0
DA:16436,0
DA:16438,0
DA:16439,0
DA:16442,0
DA:16443,0
DA:16446,0
DA:16586,0
DA:16589,0
DA:16591,0
DA:16594,0
DA:16674,0
DA:16676,0
DA:16678,0
DA:16680,0
DA:16683,0
DA:16758,0
DA:16795,0
DA:16799,0
DA:16807,0
DA:16835,0
DA:16839,0
DA:16866,0
DA:16870,0
DA:16878,0
DA:16906,0
DA:16910,0
DA:17318,0
DA:17326,0
DA:17329,0
DA:17332,0
DA:17335,0
DA:17338,0
DA:17341,0
DA:17388,0
DA:17396,0
DA:17399,0
DA:17564,0
DA:17567,0
DA:17569,0
DA:17573,0
DA:17575,0
DA:17576,0
DA:17581,0
DA:17582,0
DA:18328,0
DA:18333,0
DA:18335,0
DA:18337,0
DA:18338,0
DA:18340,0
DA:18341,0
DA:18346,0
DA:18347,0
DA:18349,0
DA:18350,0
DA:18352,0
DA:18353,0
DA:18355,0
DA:18356,0
DA:18358,0
DA:18359,0
DA:18361,0
DA:18362,0
DA:18365,0
DA:18367,0
DA:18369,0
DA:18371,0
DA:18373,0
DA:18375,0
DA:18377,0
DA:18379,0
DA:18381,0
DA:18383,0
DA:18385,0
DA:18387,0
DA:18435,0
DA:18756,0
DA:18759,0
DA:18766,0
DA:18767,0
DA:18768,0
DA:18769,0
DA:18859,0
DA:18864,0
DA:18865,0
DA:19101,0
DA:19105,0
DA:19106,0
DA:19107,0
DA:19108,0
DA:19109,0
DA:19110,0
DA:19111,0
DA:19112,0
DA:19113,0
DA:19114,0
DA:19115,0
DA:19116,0
LF:1506
LH:0
end_of_record
TN:
SF:/root/Kratos/external_libraries/pybind11/attr.h
FN:202,_ZN8pybind116detail11type_recordC2Ev
FN:253,_ZN8pybind116detail11type_record8add_baseERKSt9type_infoPFPvS5_E
FN:281,_ZN8pybind116detail13function_callC2ERNS0_15function_recordENS_6handleE
FN:363,_ZN8pybind116detail17process_attributeINS_5arg_vEvE4initERKS2_PNS0_15function_recordE
FNDA:1,_ZN8pybind116detail17process_attributeINS_5arg_vEvE4initERKS2_PNS0_15function_recordE
FNDA:14,_ZN8pybind116detail13function_callC2ERNS0_15function_recordENS_6handleE
FNDA:179,_ZN8pybind116detail11type_record8add_baseERKSt9type_infoPFPvS5_E
FNDA:307,_ZN8pybind116detail11type_recordC2Ev
FNF:4
FNH:4
DA:21,1855
DA:27,70
DA:33,3177
DA:68,0
DA:130,2
DA:134,3132
DA:136,3280
DA:137,3280
DA:202,307
DA:203,307
DA:253,179
DA:254,179
DA:255,179
DA:256,0
DA:257,0
DA:258,0
DA:259,0
DA:262,179
DA:263,0
DA:264,0
DA:265,0
DA:266,0
DA:267,0
DA:268,0
DA:271,179
DA:273,179
DA:274,0
DA:276,179
DA:277,179
DA:278,179
DA:281,14
DA:282,14
DA:283,14
DA:284,14
DA:285,14
DA:308,3177
DA:325,185
DA:330,3177
DA:335,2457
DA:340,118
DA:345,134
DA:349,529
DA:363,1
DA:364,1
DA:365,1
DA:367,1
DA:383,0
DA:388,1
DA:389,1
DA:427,0
DA:450,0
DA:456,1
DA:468,0
LF:53
LH:37
end_of_record
TN:
SF:/root/Kratos/external_libraries/pybind11/buffer_info.h
FN:76,_ZN8pybind1111buffer_infoD2Ev
FNDA:0,_ZN8pybind1111buffer_infoD2Ev
FNF:1
FNH:0
DA:76,0
DA:77,0
DA:78,0
LF:3
LH:0
end_of_record
TN:
SF:/root/Kratos/external_libraries/pybind11/cast.h
FN:47,_ZN8pybind116detail19loader_life_supportD2Ev
FN:63,_ZN8pybind116detail19loader_life_support11add_patientENS_6handleE
FN:90,_ZN8pybind116detail22all_type_info_populateEP11_typeobjectRSt6vectorIPNS0_9type_infoESaIS5_EE
FN:145,_ZN8pybind116detail13all_type_infoEP11_typeobject
FN:159,_ZN8pybind116detail13get_type_infoEP11_typeobject
FN:168,_ZN8pybind116detail19get_local_type_infoERKSt10type_index
FN:176,_ZN8pybind116detail20get_global_type_infoERKSt10type_index
FN:185,_ZN8pybind116detail13get_type_infoERKSt10type_indexb
FN:200,_ZN8pybind116detail15get_type_handleERKSt9type_infob
FN:288,_ZN8pybind116detail18values_and_holders8iteratorppEv
FN:302,_ZN8pybind116detail18values_and_holders4findEPKNS0_9type_infoE
FN:321,_ZN8pybind116detail8instance20get_value_and_holderEPKNS0_9type_infoEb
FN:345,_ZN8pybind116detail8instance15allocate_layoutEv
FN:393,_ZN8pybind116detail8instance17deallocate_layoutEv
FN:398,_ZN8pybind116detail18isinstance_genericENS_6handleERKSt9type_info
FN:405,_ZN8pybind116detail12error_stringB5cxx11Ev
FN:452,_ZN8pybind116detail17get_object_handleEPKvPKNS0_9type_infoE
FN:484,_ZN8pybind116detail19type_caster_genericC2ERKSt9type_info
FN:490,_ZN8pybind116detail19type_caster_generic4loadENS_6handleEb
FN:494,_ZN8pybind116detail19type_caster_generic4castEPKvNS_19return_value_policyENS_6handleEPKNS0_9type_infoEPFPvS3_ESB_S3_
FN:577,_ZN8pybind116detail19type_caster_generic18try_implicit_castsENS_6handleEb
FN:596,_ZN8pybind116detail19type_caster_generic10local_loadEP7_objectPKNS0_9type_infoE
FN:605,_ZN8pybind116detail19type_caster_generic29try_load_foreign_module_localENS_6handleE
FN:628,_ZN8pybind116detail19type_caster_generic9load_implINS0_22copyable_holder_casterIN5boost7numeric5ublas17compressed_matrixISt7complexIdENS6_15basic_row_majorImlEELm0ENS6_15unbounded_arrayImSaImEEENSC_IS9_SaIS9_EEEEESt10shared_ptrISH_EEEEEbNS_6handleEb
FN:628,_ZN8pybind116detail19type_caster_generic9load_implINS0_22copyable_holder_casterIN5boost7numeric5ublas17compressed_matrixIdNS6_15basic_row_majorImlEELm0ENS6_15unbounded_arrayImSaImEEENSA_IdSaIdEEEEESt10shared_ptrISF_EEEEEbNS_6handleEb
FN:628,_ZN8pybind116detail19type_caster_generic9load_implINS0_22copyable_holder_casterIN5boost7numeric5ublas6vectorISt7complexIdENS6_15unbounded_arrayIS9_SaIS9_EEEEESt10shared_ptrISD_EEEEEbNS_6handleEb
FN:628,_ZN8pybind116detail19type_caster_generic9load_implINS0_22copyable_holder_casterIN5boost7numeric5ublas6vectorIdNS6_15unbounded_arrayIdSaIdEEEEESt10shared_ptrISB_EEEEEbNS_6handleEb
FN:628,_ZN8pybind116detail19type_caster_generic9load_implINS0_22copyable_holder_casterIN6Kratos10PropertiesESt10shared_ptrIS5_EEEEEbNS_6handleEb
FN:628,_ZN8pybind116detail19type_caster_generic9load_implINS0_22copyable_holder_casterIN6Kratos11ProcessInfoESt10shared_ptrIS5_EEEEEbNS_6handleEb
FN:628,_ZN8pybind116detail19type_caster_generic9load_implINS0_22copyable_holder_casterIN6Kratos12LinearSolverINS4_10UblasSpaceIdN5boost7numeric5ublas17compressed_matrixIdNS9_15basic_row_majorImlEELm0ENS9_15unbounded_arrayImSaImEEENSD_IdSaIdEEEEENS9_6vectorIdSH_EEEENS6_IdNS9_6matrixIdSC_SH_EESK_EENS4_9ReordererISL_SO_EEEESt10shared_ptrISR_EEEEEbNS_6handleEb
FN:628,_ZN8pybind116detail19type_caster_generic9load_implINS0_22copyable_holder_casterIN6Kratos12LoggerOutputESt10shared_ptrIS5_EEEEEbNS_6handleEb
FN:628,_ZN8pybind116detail19type_caster_generic9load_implINS0_22copyable_holder_casterIN6Kratos14PreconditionerINS4_10UblasSpaceIdN5boost7numeric5ublas17compressed_matrixIdNS9_15basic_row_majorImlEELm0ENS9_15unbounded_arrayImSaImEEENSD_IdSaIdEEEEENS9_6vectorIdSH_EEEENS6_IdNS9_6matrixIdSC_SH_EESK_EEEESt10shared_ptrISP_EEEEEbNS_6handleEb
FN:628,_ZN8pybind116detail19type_caster_generic9load_implINS0_22copyable_holder_casterIN6Kratos15ConstitutiveLawESt10shared_ptrIS5_EEEEEbNS_6handleEb
FN:628,_ZN8pybind116detail19type_caster_generic9load_implINS0_22copyable_holder_casterIN6Kratos16BuilderAndSolverINS4_10UblasSpaceIdN5boost7numeric5ublas17compressed_matrixIdNS9_15basic_row_majorImlEELm0ENS9_15unbounded_arrayImSaImEEENSD_IdSaIdEEEEENS9_6vectorIdSH_EEEENS6_IdNS9_6matrixIdSC_SH_EESK_EENS4_12LinearSolverISL_SO_NS4_9ReordererISL_SO_EEEEEESt10shared_ptrIST_EEEEEbNS_6handleEb
FN:628,_ZN8pybind116detail19type_caster_generic9load_implINS0_22copyable_holder_casterIN6Kratos16PointerVectorSetINS4_10PropertiesENS4_13IndexedObjectESt4lessImESt8equal_toImESt10shared_ptrIS6_ESt6vectorISD_SaISD_EEEESC_ISH_EEEEEbNS_6handleEb
FN:628,_ZN8pybind116detail19type_caster_generic9load_implINS0_22copyable_holder_casterIN6Kratos16PointerVectorSetINS4_4NodeILm3ENS4_3DofIdEEEENS4_13IndexedObjectESt4lessImESt8equal_toImENS4_13intrusive_ptrIS9_EESt6vectorISG_SaISG_EEEESt10shared_ptrISK_EEEEEbNS_6handleEb
FN:628,_ZN8pybind116detail19type_caster_generic9load_implINS0_22copyable_holder_casterIN6Kratos16PointerVectorSetINS4_7ElementENS4_13IndexedObjectESt4lessImESt8equal_toImENS4_13intrusive_ptrIS6_EESt6vectorISD_SaISD_EEEESt10shared_ptrISH_EEEEEbNS_6handleEb
FN:628,_ZN8pybind116detail19type_caster_generic9load_implINS0_22copyable_holder_casterIN6Kratos16PointerVectorSetINS4_9ConditionENS4_13IndexedObjectESt4lessImESt8equal_toImENS4_13intrusive_ptrIS6_EESt6vectorISD_SaISD_EEEESt10shared_ptrISH_EEEEEbNS_6handleEb
FN:628,_ZN8pybind116detail19type_caster_generic9load_implINS0_22copyable_holder_casterIN6Kratos17KratosApplicationESt10shared_ptrIS5_EEEEEbNS_6handleEb
FN:628,_ZN8pybind116detail19type_caster_generic9load_implINS0_22copyable_holder_casterIN6Kratos17RadiationSettingsESt10shared_ptrIS5_EEEEEbNS_6handleEb
FN:628,_ZN8pybind116detail19type_caster_generic9load_implINS0_22copyable_holder_casterIN6Kratos18TableStreamUtilityESt10shared_ptrIS5_EEEEEbNS_6handleEb
FN:628,_ZN8pybind116detail19type_caster_generic9load_implINS0_22copyable_holder_casterIN6Kratos19ConvergenceCriteriaINS4_10UblasSpaceIdN5boost7numeric5ublas17compressed_matrixIdNS9_15basic_row_majorImlEELm0ENS9_15unbounded_arrayImSaImEEENSD_IdSaIdEEEEENS9_6vectorIdSH_EEEENS6_IdNS9_6matrixIdSC_SH_EESK_EEEESt10shared_ptrISP_EEEEEbNS_6handleEb
FN:628,_ZN8pybind116detail19type_caster_generic9load_implINS0_22copyable_holder_casterIN6Kratos21MasterSlaveConstraintESt10shared_ptrIS5_EEEEEbNS_6handleEb
FN:628,_ZN8pybind116detail19type_caster_generic9load_implINS0_22copyable_holder_casterIN6Kratos23AdjointResponseFunctionESt10shared_ptrIS5_EEEEEbNS_6handleEb
FN:628,_ZN8pybind116detail19type_caster_generic9load_implINS0_22copyable_holder_casterIN6Kratos24BinBasedFastPointLocatorILm2ENS4_26SpatialContainersConfigureILm2ENS4_7ElementEEEEESt10shared_ptrIS9_EEEEEbNS_6handleEb
FN:628,_ZN8pybind116detail19type_caster_generic9load_implINS0_22copyable_holder_casterIN6Kratos24BinBasedFastPointLocatorILm3ENS4_26SpatialContainersConfigureILm3ENS4_7ElementEEEEESt10shared_ptrIS9_EEEEEbNS_6handleEb
FN:628,_ZN8pybind116detail19type_caster_generic9load_implINS0_22copyable_holder_casterIN6Kratos27ConvectionDiffusionSettingsESt10shared_ptrIS5_EEEEEbNS_6handleEb
FN:628,_ZN8pybind116detail19type_caster_generic9load_implINS0_22copyable_holder_casterIN6Kratos28PythonGenericFunctionUtilityESt10shared_ptrIS5_EEEEEbNS_6handleEb
FN:628,_ZN8pybind116detail19type_caster_generic9load_implINS0_22copyable_holder_casterIN6Kratos29CoordinateTransformationUtilsIN5boost7numeric5ublas6matrixIdNS8_15basic_row_majorImlEENS8_15unbounded_arrayIdSaIdEEEEENS8_6vectorIdSE_EEdEESt10shared_ptrISI_EEEEEbNS_6handleEb
FN:628,_ZN8pybind116detail19type_caster_generic9load_implINS0_22copyable_holder_casterIN6Kratos4NodeILm3ENS4_3DofIdEEEENS4_13intrusive_ptrIS8_EEEEEEbNS_6handleEb
FN:628,_ZN8pybind116detail19type_caster_generic9load_implINS0_22copyable_holder_casterIN6Kratos5TableIddLm1EEESt10shared_ptrIS6_EEEEEbNS_6handleEb
FN:628,_ZN8pybind116detail19type_caster_generic9load_implINS0_22copyable_holder_casterIN6Kratos6SchemeINS4_10UblasSpaceIdN5boost7numeric5ublas17compressed_matrixIdNS9_15basic_row_majorImlEELm0ENS9_15unbounded_arrayImSaImEEENSD_IdSaIdEEEEENS9_6vectorIdSH_EEEENS6_IdNS9_6matrixIdSC_SH_EESK_EEEESt10shared_ptrISP_EEEEEbNS_6handleEb
FN:628,_ZN8pybind116detail19type_caster_generic9load_implINS0_22copyable_holder_casterIN6Kratos7ElementENS4_13intrusive_ptrIS5_EEEEEEbNS_6handleEb
FN:628,_ZN8pybind116detail19type_caster_generic9load_implINS0_22copyable_holder_casterIN6Kratos8GeometryINS4_4NodeILm3ENS4_3DofIdEEEEEESt10shared_ptrISA_EEEEEbNS_6handleEb
FN:628,_ZN8pybind116detail19type_caster_generic9load_implINS0_22copyable_holder_casterIN6Kratos9ConditionENS4_13intrusive_ptrIS5_EEEEEEbNS_6handleEb
FN:628,_ZN8pybind116detail19type_caster_generic9load_implIS1_EEbNS_6handleEb
FN:712,_ZN8pybind116detail19type_caster_generic12src_and_typeEPKvRKSt9type_infoPS5_
FN:799,_ZN8pybind116detail16type_caster_baseIN6Kratos10ParametersEE12src_and_typeIS3_Li0EEESt4pairIPKvPKNS0_9type_infoEEPKS3_
FN:799,_ZN8pybind116detail16type_caster_baseIN6Kratos10PropertiesEE12src_and_typeIS3_Li0EEESt4pairIPKvPKNS0_9type_infoEEPKS3_
FN:799,_ZN8pybind116detail16type_caster_baseIN6Kratos10QuaternionIdEEE12src_and_typeIS4_Li0EEESt4pairIPKvPKNS0_9type_infoEEPKS4_
FN:799,_ZN8pybind116detail16type_caster_baseIN6Kratos11ProcessInfoEE12src_and_typeIS3_Li0EEESt4pairIPKvPKNS0_9type_infoEEPKS3_
FN:799,_ZN8pybind116detail16type_caster_baseIN6Kratos12CommunicatorEE12src_and_typeIS3_Li0EEESt4pairIPKvPKNS0_9type_infoEEPKS3_
FN:799,_ZN8pybind116detail16type_caster_baseIN6Kratos12LinearSolverINS2_10UblasSpaceISt7complexIdEN5boost7numeric5ublas17compressed_matrixIS6_NS9_15basic_row_majorImlEELm0ENS9_15unbounded_arrayImSaImEEENSD_IS6_SaIS6_EEEEENS9_6vectorIS6_SH_EEEENS4_IS6_NS9_6matrixIS6_SC_SH_EESK_EENS2_9ReordererISL_SO_EEEEE12src_and_typeISR_Li0EEESt4pairIPKvPKNS0_9type_infoEEPKSR_
FN:799,_ZN8pybind116detail16type_caster_baseIN6Kratos12LinearSolverINS2_10UblasSpaceIdN5boost7numeric5ublas17compressed_matrixIdNS7_15basic_row_majorImlEELm0ENS7_15unbounded_arrayImSaImEEENSB_IdSaIdEEEEENS7_6vectorIdSF_EEEENS4_IdNS7_6matrixIdSA_SF_EESI_EENS2_9ReordererISJ_SM_EEEEE12src_and_typeISP_Li0EEESt4pairIPKvPKNS0_9type_infoEEPKSP_
FN:799,_ZN8pybind116detail16type_caster_baseIN6Kratos12LoggerOutputEE12src_and_typeIS3_Li0EEESt4pairIPKvPKNS0_9type_infoEEPKS3_
FN:799,_ZN8pybind116detail16type_caster_baseIN6Kratos12VariableDataEE12src_and_typeIS3_Li0EEESt4pairIPKvPKNS0_9type_infoEEPKS3_
FN:799,_ZN8pybind116detail16type_caster_baseIN6Kratos14PreconditionerINS2_10UblasSpaceIdN5boost7numeric5ublas17compressed_matrixIdNS7_15basic_row_majorImlEELm0ENS7_15unbounded_arrayImSaImEEENSB_IdSaIdEEEEENS7_6vectorIdSF_EEEENS4_IdNS7_6matrixIdSA_SF_EESI_EEEEE12src_and_typeISN_Li0EEESt4pairIPKvPKNS0_9type_infoEEPKSN_
FN:799,_ZN8pybind116detail16type_caster_baseIN6Kratos15ConstitutiveLawEE12src_and_typeIS3_Li0EEESt4pairIPKvPKNS0_9type_infoEEPKS3_
FN:799,_ZN8pybind116detail16type_caster_baseIN6Kratos16DataCommunicatorEE12src_and_typeIS3_Li0EEESt4pairIPKvPKNS0_9type_infoEEPKS3_
FN:799,_ZN8pybind116detail16type_caster_baseIN6Kratos16PointerVectorSetINS2_10PropertiesENS2_13IndexedObjectESt4lessImESt8equal_toImESt10shared_ptrIS4_ESt6vectorISB_SaISB_EEEEE12src_and_typeISF_Li0EEESt4pairIPKvPKNS0_9type_infoEEPKSF_
FN:799,_ZN8pybind116detail16type_caster_baseIN6Kratos16PointerVectorSetINS2_21MasterSlaveConstraintENS2_13IndexedObjectESt4lessImESt8equal_toImESt10shared_ptrIS4_ESt6vectorISB_SaISB_EEEEE12src_and_typeISF_Li0EEESt4pairIPKvPKNS0_9type_infoEEPKSF_
FN:799,_ZN8pybind116detail16type_caster_baseIN6Kratos16PointerVectorSetINS2_3DofIdEENS2_19SetIdentityFunctionIS5_EESt4lessIS5_ESt8equal_toIS5_EPS5_St6vectorISC_SaISC_EEEEE12src_and_typeISG_Li0EEESt4pairIPKvPKNS0_9type_infoEEPKSG_
FN:799,_ZN8pybind116detail16type_caster_baseIN6Kratos16PointerVectorSetINS2_4NodeILm3ENS2_3DofIdEEEENS2_13IndexedObjectESt4lessImESt8equal_toImENS2_13intrusive_ptrIS7_EESt6vectorISE_SaISE_EEEEE12src_and_typeISI_Li0EEESt4pairIPKvPKNS0_9type_infoEEPKSI_
FN:799,_ZN8pybind116detail16type_caster_baseIN6Kratos16PointerVectorSetINS2_7ElementENS2_13IndexedObjectESt4lessImESt8equal_toImENS2_13intrusive_ptrIS4_EESt6vectorISB_SaISB_EEEEE12src_and_typeISF_Li0EEESt4pairIPKvPKNS0_9type_infoEEPKSF_
FN:799,_ZN8pybind116detail16type_caster_baseIN6Kratos16PointerVectorSetINS2_9ConditionENS2_13IndexedObjectESt4lessImESt8equal_toImENS2_13intrusive_ptrIS4_EESt6vectorISB_SaISB_EEEEE12src_and_typeISF_Li0EEESt4pairIPKvPKNS0_9type_infoEEPKSF_
FN:799,_ZN8pybind116detail16type_caster_baseIN6Kratos17PointerHashMapSetINS2_8GeometryINS2_4NodeILm3ENS2_3DofIdEEEEEESt4hashImENS2_17GeometryContainerIS9_E13GetGeometryIdESt10shared_ptrIS9_EEEE12src_and_typeISH_Li0EEESt4pairIPKvPKNS0_9type_infoEEPKSH_
FN:799,_ZN8pybind116detail16type_caster_baseIN6Kratos17PointerHashMapSetINS2_9ModelPartESt4hashINSt7__cxx1112basic_stringIcSt11char_traitsIcESaIcEEEENS4_16GetModelPartNameESt10shared_ptrIS4_EEEE12src_and_typeISG_Li0EEESt4pairIPKvPKNS0_9type_infoEEPKSG_
FN:799,_ZN8pybind116detail16type_caster_baseIN6Kratos17RadiationSettingsEE12src_and_typeIS3_Li0EEESt4pairIPKvPKNS0_9type_infoEEPKS3_
FN:799,_ZN8pybind116detail16type_caster_baseIN6Kratos17VariableComponentINS2_22VectorComponentAdaptorINS2_8array_1dIdLm3EEEEEEEE12src_and_typeIS8_Li0EEESt4pairIPKvPKNS0_9type_infoEEPKS8_
FN:799,_ZN8pybind116detail16type_caster_baseIN6Kratos17VariableComponentINS2_22VectorComponentAdaptorINS2_8array_1dIdLm4EEEEEEEE12src_and_typeIS8_Li0EEESt4pairIPKvPKNS0_9type_infoEEPKS8_
FN:799,_ZN8pybind116detail16type_caster_baseIN6Kratos17VariableComponentINS2_22VectorComponentAdaptorINS2_8array_1dIdLm6EEEEEEEE12src_and_typeIS8_Li0EEESt4pairIPKvPKNS0_9type_infoEEPKS8_
FN:799,_ZN8pybind116detail16type_caster_baseIN6Kratos17VariableComponentINS2_22VectorComponentAdaptorINS2_8array_1dIdLm9EEEEEEEE12src_and_typeIS8_Li0EEESt4pairIPKvPKNS0_9type_infoEEPKS8_
FN:799,_ZN8pybind116detail16type_caster_baseIN6Kratos21MasterSlaveConstraintEE12src_and_typeIS3_Li0EEESt4pairIPKvPKNS0_9type_infoEEPKS3_
FN:799,_ZN8pybind116detail16type_caster_baseIN6Kratos27ConvectionDiffusionSettingsEE12src_and_typeIS3_Li0EEESt4pairIPKvPKNS0_9type_infoEEPKS3_
FN:799,_ZN8pybind116detail16type_caster_baseIN6Kratos4MeshINS2_4NodeILm3ENS2_3DofIdEEEENS2_10PropertiesENS2_7ElementENS2_9ConditionEEEE12src_and_typeISB_Li0EEESt4pairIPKvPKNS0_9type_infoEEPKSB_
FN:799,_ZN8pybind116detail16type_caster_baseIN6Kratos4NodeILm3ENS2_3DofIdEEEEE12src_and_typeIS6_Li0EEESt4pairIPKvPKNS0_9type_infoEEPKS6_
FN:799,_ZN8pybind116detail16type_caster_baseIN6Kratos5FlagsEE12src_and_typeIS3_Li0EEESt4pairIPKvPKNS0_9type_infoEEPKS3_
FN:799,_ZN8pybind116detail16type_caster_baseIN6Kratos5ModelEE12src_and_typeIS3_Li0EEESt4pairIPKvPKNS0_9type_infoEEPKS3_
FN:799,_ZN8pybind116detail16type_caster_baseIN6Kratos5PointEE12src_and_typeIS3_Li0EEESt4pairIPKvPKNS0_9type_infoEEPKS3_
FN:799,_ZN8pybind116detail16type_caster_baseIN6Kratos5TableIddLm1EEEE12src_and_typeIS4_Li0EEESt4pairIPKvPKNS0_9type_infoEEPKS4_
FN:799,_ZN8pybind116detail16type_caster_baseIN6Kratos6SchemeINS2_10UblasSpaceIdN5boost7numeric5ublas17compressed_matrixIdNS7_15basic_row_majorImlEELm0ENS7_15unbounded_arrayImSaImEEENSB_IdSaIdEEEEENS7_6vectorIdSF_EEEENS4_IdNS7_6matrixIdSA_SF_EESI_EEEEE12src_and_typeISN_Li0EEESt4pairIPKvPKNS0_9type_infoEEPKSN_
FN:799,_ZN8pybind116detail16type_caster_baseIN6Kratos7ElementEE12src_and_typeIS3_Li0EEESt4pairIPKvPKNS0_9type_infoEEPKS3_
FN:799,_ZN8pybind116detail16type_caster_baseIN6Kratos7ProcessEE12src_and_typeIS3_Li0EEESt4pairIPKvPKNS0_9type_infoEEPKS3_
FN:799,_ZN8pybind116detail16type_caster_baseIN6Kratos8GeometryINS2_4NodeILm3ENS2_3DofIdEEEEEEE12src_and_typeIS8_Li0EEESt4pairIPKvPKNS0_9type_infoEEPKS8_
FN:799,_ZN8pybind116detail16type_caster_baseIN6Kratos8VariableIN5boost7numeric5ublas6matrixIdNS6_15basic_row_majorImlEENS6_15unbounded_arrayIdSaIdEEEEEEEE12src_and_typeISE_Li0EEESt4pairIPKvPKNS0_9type_infoEEPKSE_
FN:799,_ZN8pybind116detail16type_caster_baseIN6Kratos8VariableIN5boost7numeric5ublas6vectorIdNS6_15unbounded_arrayIdSaIdEEEEEEEE12src_and_typeISC_Li0EEESt4pairIPKvPKNS0_9type_infoEEPKSC_
FN:799,_ZN8pybind116detail16type_caster_baseIN6Kratos8VariableIN5boost7numeric5ublas6vectorIiNS6_15unbounded_arrayIiSaIiEEEEEEEE12src_and_typeISC_Li0EEESt4pairIPKvPKNS0_9type_infoEEPKSC_
FN:799,_ZN8pybind116detail16type_caster_baseIN6Kratos8VariableINS2_5FlagsEEEE12src_and_typeIS5_Li0EEESt4pairIPKvPKNS0_9type_infoEEPKS5_
FN:799,_ZN8pybind116detail16type_caster_baseIN6Kratos8VariableINS2_8array_1dIdLm3EEEEEE12src_and_typeIS6_Li0EEESt4pairIPKvPKNS0_9type_infoEEPKS6_
FN:799,_ZN8pybind116detail16type_caster_baseIN6Kratos8VariableINS2_8array_1dIdLm4EEEEEE12src_and_typeIS6_Li0EEESt4pairIPKvPKNS0_9type_infoEEPKS6_
FN:799,_ZN8pybind116detail16type_caster_baseIN6Kratos8VariableINS2_8array_1dIdLm6EEEEEE12src_and_typeIS6_Li0EEESt4pairIPKvPKNS0_9type_infoEEPKS6_
FN:799,_ZN8pybind116detail16type_caster_baseIN6Kratos8VariableINS2_8array_1dIdLm9EEEEEE12src_and_typeIS6_Li0EEESt4pairIPKvPKNS0_9type_infoEEPKS6_
FN:799,_ZN8pybind116detail16type_caster_baseIN6Kratos8VariableINSt7__cxx1112basic_stringIcSt11char_traitsIcESaIcEEEEEE12src_and_typeISA_Li0EEESt4pairIPKvPKNS0_9type_infoEEPKSA_
FN:799,_ZN8pybind116detail16type_caster_baseIN6Kratos8VariableISt10shared_ptrINS2_15ConstitutiveLawEEEEE12src_and_typeIS7_Li0EEESt4pairIPKvPKNS0_9type_infoEEPKS7_
FN:799,_ZN8pybind116detail16type_caster_baseIN6Kratos8VariableISt10shared_ptrINS2_17RadiationSettingsEEEEE12src_and_typeIS7_Li0EEESt4pairIPKvPKNS0_9type_infoEEPKS7_
FN:799,_ZN8pybind116detail16type_caster_baseIN6Kratos8VariableISt10shared_ptrINS2_27ConvectionDiffusionSettingsEEEEE12src_and_typeIS7_Li0EEESt4pairIPKvPKNS0_9type_infoEEPKS7_
FN:799,_ZN8pybind116detail16type_caster_baseIN6Kratos8VariableIbEEE12src_and_typeIS4_Li0EEESt4pairIPKvPKNS0_9type_infoEEPKS4_
FN:799,_ZN8pybind116detail16type_caster_baseIN6Kratos8VariableIdEEE12src_and_typeIS4_Li0EEESt4pairIPKvPKNS0_9type_infoEEPKS4_
FN:799,_ZN8pybind116detail16type_caster_baseIN6Kratos8VariableIiEEE12src_and_typeIS4_Li0EEESt4pairIPKvPKNS0_9type_infoEEPKS4_
FN:799,_ZN8pybind116detail16type_caster_baseIN6Kratos8VariableIjEEE12src_and_typeIS4_Li0EEESt4pairIPKvPKNS0_9type_infoEEPKS4_
FN:799,_ZN8pybind116detail16type_caster_baseIN6Kratos9ConditionEE12src_and_typeIS3_Li0EEESt4pairIPKvPKNS0_9type_infoEEPKS3_
FN:799,_ZN8pybind116detail16type_caster_baseIN6Kratos9ModelPartEE12src_and_typeIS3_Li0EEESt4pairIPKvPKNS0_9type_infoEEPKS3_
FN:824,_ZN8pybind116detail16type_caster_baseI12GiD_PostModeE4castEPKS2_NS_19return_value_policyENS_6handleE
FN:824,_ZN8pybind116detail16type_caster_baseIN5boost7numeric5ublas12vector_sliceIN6Kratos8array_1dIdLm3EEEEEE4castEPKS9_NS_19return_value_policyENS_6handleE
FN:824,_ZN8pybind116detail16type_caster_baseIN5boost7numeric5ublas12vector_sliceIN6Kratos8array_1dIdLm4EEEEEE4castEPKS9_NS_19return_value_policyENS_6handleE
FN:824,_ZN8pybind116detail16type_caster_baseIN5boost7numeric5ublas12vector_sliceIN6Kratos8array_1dIdLm6EEEEEE4castEPKS9_NS_19return_value_policyENS_6handleE
FN:824,_ZN8pybind116detail16type_caster_baseIN5boost7numeric5ublas12vector_sliceIN6Kratos8array_1dIdLm9EEEEEE4castEPKS9_NS_19return_value_policyENS_6handleE
FN:824,_ZN8pybind116detail16type_caster_baseIN5boost7numeric5ublas12vector_sliceINS4_6vectorISt7complexIdENS4_15unbounded_arrayIS8_SaIS8_EEEEEEEE4castEPKSD_NS_19return_value_policyENS_6handleE
FN:824,_ZN8pybind116detail16type_caster_baseIN5boost7numeric5ublas12vector_sliceINS4_6vectorIdNS4_15unbounded_arrayIdSaIdEEEEEEEE4castEPKSB_NS_19return_value_policyENS_6handleE
FN:824,_ZN8pybind116detail16type_caster_baseIN5boost7numeric5ublas12vector_sliceINS4_6vectorIiNS4_15unbounded_arrayIiSaIiEEEEEEEE4castEPKSB_NS_19return_value_policyENS_6handleE
FN:824,_ZN8pybind116detail16type_caster_baseIN5boost7numeric5ublas17compressed_matrixISt7complexIdENS4_15basic_row_majorImlEELm0ENS4_15unbounded_arrayImSaImEEENSA_IS7_SaIS7_EEEEEE4castEPKSF_NS_19return_value_policyENS_6handleE
FN:824,_ZN8pybind116detail16type_caster_baseIN5boost7numeric5ublas17compressed_matrixIdNS4_15basic_row_majorImlEELm0ENS4_15unbounded_arrayImSaImEEENS8_IdSaIdEEEEEE4castEPKSD_NS_19return_value_policyENS_6handleE
FN:824,_ZN8pybind116detail16type_caster_baseIN5boost7numeric5ublas6matrixISt7complexIdENS4_15basic_row_majorImlEENS4_15unbounded_arrayIS7_SaIS7_EEEEEE4castEPKSD_NS_19return_value_policyENS_6handleE
FN:824,_ZN8pybind116detail16type_caster_baseIN5boost7numeric5ublas6matrixIdNS4_15basic_row_majorImlEENS4_15unbounded_arrayIdSaIdEEEEEE4castEPKSB_NS_19return_value_policyENS_6handleE
FN:824,_ZN8pybind116detail16type_caster_baseIN5boost7numeric5ublas6vectorISt7complexIdENS4_15unbounded_arrayIS7_SaIS7_EEEEEE4castEPKSB_NS_19return_value_policyENS_6handleE
FN:824,_ZN8pybind116detail16type_caster_baseIN5boost7numeric5ublas6vectorIdNS4_15unbounded_arrayIdSaIdEEEEEE4castEPKS9_NS_19return_value_policyENS_6handleE
FN:824,_ZN8pybind116detail16type_caster_baseIN5boost7numeric5ublas6vectorIiNS4_15unbounded_arrayIiSaIiEEEEEE4castEPKS9_NS_19return_value_policyENS_6handleE
FN:824,_ZN8pybind116detail16type_caster_baseIN6Kratos10ParametersEE4castEPKS3_NS_19return_value_policyENS_6handleE
FN:824,_ZN8pybind116detail16type_caster_baseIN6Kratos10PropertiesEE4castEPKS3_NS_19return_value_policyENS_6handleE
FN:824,_ZN8pybind116detail16type_caster_baseIN6Kratos10QuaternionIdEEE4castEPKS4_NS_19return_value_policyENS_6handleE
FN:824,_ZN8pybind116detail16type_caster_baseIN6Kratos10Serializer9TraceTypeEE4castEPKS4_NS_19return_value_policyENS_6handleE
FN:824,_ZN8pybind116detail16type_caster_baseIN6Kratos11ProcessInfoEE4castEPKS3_NS_19return_value_policyENS_6handleE
FN:824,_ZN8pybind116detail16type_caster_baseIN6Kratos12CommunicatorEE4castEPKS3_NS_19return_value_policyENS_6handleE
FN:824,_ZN8pybind116detail16type_caster_baseIN6Kratos12LoggerOutputEE4castEPKS3_NS_19return_value_policyENS_6handleE
FN:824,_ZN8pybind116detail16type_caster_baseIN6Kratos12VariableDataEE4castEPKS3_NS_19return_value_policyENS_6handleE
FN:824,_ZN8pybind116detail16type_caster_baseIN6Kratos13AMGCLSmootherEE4castEPKS3_NS_19return_value_policyENS_6handleE
FN:824,_ZN8pybind116detail16type_caster_baseIN6Kratos13LoggerMessage8CategoryEE4castEPKS4_NS_19return_value_policyENS_6handleE
FN:824,_ZN8pybind116detail16type_caster_baseIN6Kratos13LoggerMessage8SeverityEE4castEPKS4_NS_19return_value_policyENS_6handleE
FN:824,_ZN8pybind116detail16type_caster_baseIN6Kratos13MultiFileFlagEE4castEPKS3_NS_19return_value_policyENS_6handleE
FN:824,_ZN8pybind116detail16type_caster_baseIN6Kratos15ConstitutiveLaw13StrainMeasureEE4castEPKS4_NS_19return_value_policyENS_6handleE
FN:824,_ZN8pybind116detail16type_caster_baseIN6Kratos15ConstitutiveLaw13StressMeasureEE4castEPKS4_NS_19return_value_policyENS_6handleE
FN:824,_ZN8pybind116detail16type_caster_baseIN6Kratos15ConstitutiveLawEE4castEPKS3_NS_19return_value_policyENS_6handleE
FN:824,_ZN8pybind116detail16type_caster_baseIN6Kratos16DataCommunicatorEE4castEPKS3_NS_19return_value_policyENS_6handleE
FN:824,_ZN8pybind116detail16type_caster_baseIN6Kratos16PointerVectorSetINS2_10PropertiesENS2_13IndexedObjectESt4lessImESt8equal_toImESt10shared_ptrIS4_ESt6vectorISB_SaISB_EEEEE4castEPKSF_NS_19return_value_policyENS_6handleE
FN:824,_ZN8pybind116detail16type_caster_baseIN6Kratos16PointerVectorSetINS2_21MasterSlaveConstraintENS2_13IndexedObjectESt4lessImESt8equal_toImESt10shared_ptrIS4_ESt6vectorISB_SaISB_EEEEE4castEPKSF_NS_19return_value_policyENS_6handleE
FN:824,_ZN8pybind116detail16type_caster_baseIN6Kratos16PointerVectorSetINS2_3DofIdEENS2_19SetIdentityFunctionIS5_EESt4lessIS5_ESt8equal_toIS5_EPS5_St6vectorISC_SaISC_EEEEE4castEPKSG_NS_19return_value_policyENS_6handleE
FN:824,_ZN8pybind116detail16type_caster_baseIN6Kratos16PointerVectorSetINS2_4NodeILm3ENS2_3DofIdEEEENS2_13IndexedObjectESt4lessImESt8equal_toImENS2_13intrusive_ptrIS7_EESt6vectorISE_SaISE_EEEEE4castEPKSI_NS_19return_value_policyENS_6handleE
FN:824,_ZN8pybind116detail16type_caster_baseIN6Kratos17PointerHashMapSetINS2_8GeometryINS2_4NodeILm3ENS2_3DofIdEEEEEESt4hashImENS2_17GeometryContainerIS9_E13GetGeometryIdESt10shared_ptrIS9_EEEE4castEPKSH_NS_19return_value_policyENS_6handleE
FN:824,_ZN8pybind116detail16type_caster_baseIN6Kratos17PointerHashMapSetINS2_9ModelPartESt4hashINSt7__cxx1112basic_stringIcSt11char_traitsIcESaIcEEEENS4_16GetModelPartNameESt10shared_ptrIS4_EEEE4castEPKSG_NS_19return_value_policyENS_6handleE
FN:824,_ZN8pybind116detail16type_caster_baseIN6Kratos17VariableComponentINS2_22VectorComponentAdaptorINS2_8array_1dIdLm3EEEEEEEE4castEPKS8_NS_19return_value_policyENS_6handleE
FN:824,_ZN8pybind116detail16type_caster_baseIN6Kratos17VariableComponentINS2_22VectorComponentAdaptorINS2_8array_1dIdLm4EEEEEEEE4castEPKS8_NS_19return_value_policyENS_6handleE
FN:824,_ZN8pybind116detail16type_caster_baseIN6Kratos17VariableComponentINS2_22VectorComponentAdaptorINS2_8array_1dIdLm6EEEEEEEE4castEPKS8_NS_19return_value_policyENS_6handleE
FN:824,_ZN8pybind116detail16type_caster_baseIN6Kratos17VariableComponentINS2_22VectorComponentAdaptorINS2_8array_1dIdLm9EEEEEEEE4castEPKS8_NS_19return_value_policyENS_6handleE
FN:824,_ZN8pybind116detail16type_caster_baseIN6Kratos19AMGCLCoarseningTypeEE4castEPKS3_NS_19return_value_policyENS_6handleE
FN:824,_ZN8pybind116detail16type_caster_baseIN6Kratos19WriteConditionsFlagEE4castEPKS3_NS_19return_value_policyENS_6handleE
FN:824,_ZN8pybind116detail16type_caster_baseIN6Kratos21WriteDeformedMeshFlagEE4castEPKS3_NS_19return_value_policyENS_6handleE
FN:824,_ZN8pybind116detail16type_caster_baseIN6Kratos24AMGCLIterativeSolverTypeEE4castEPKS3_NS_19return_value_policyENS_6handleE
FN:824,_ZN8pybind116detail16type_caster_baseIN6Kratos36FastTransferBetweenModelPartsProcess16EntityTransferedEE4castEPKS4_NS_19return_value_policyENS_6handleE
FN:824,_ZN8pybind116detail16type_caster_baseIN6Kratos3DofIdEEE4castEPKS4_NS_19return_value_policyENS_6handleE
FN:824,_ZN8pybind116detail16type_caster_baseIN6Kratos4MeshINS2_4NodeILm3ENS2_3DofIdEEEENS2_10PropertiesENS2_7ElementENS2_9ConditionEEEE4castEPKSB_NS_19return_value_policyENS_6handleE
FN:824,_ZN8pybind116detail16type_caster_baseIN6Kratos4NodeILm3ENS2_3DofIdEEEEE4castEPKS6_NS_19return_value_policyENS_6handleE
FN:824,_ZN8pybind116detail16type_caster_baseIN6Kratos5FlagsEE4castEPKS3_NS_19return_value_policyENS_6handleE
FN:824,_ZN8pybind116detail16type_caster_baseIN6Kratos5ModelEE4castEPKS3_NS_19return_value_policyENS_6handleE
FN:824,_ZN8pybind116detail16type_caster_baseIN6Kratos5PointEE4castEPKS3_NS_19return_value_policyENS_6handleE
FN:824,_ZN8pybind116detail16type_caster_baseIN6Kratos5TableIddLm1EEEE4castEPKS4_NS_19return_value_policyENS_6handleE
FN:824,_ZN8pybind116detail16type_caster_baseIN6Kratos7Testing6Tester9VerbosityEE4castEPKS5_NS_19return_value_policyENS_6handleE
FN:824,_ZN8pybind116detail16type_caster_baseIN6Kratos8GeometryINS2_4NodeILm3ENS2_3DofIdEEEEEEE4castEPKS8_NS_19return_value_policyENS_6handleE
FN:824,_ZN8pybind116detail16type_caster_baseIN6Kratos8VariableIN5boost7numeric5ublas6matrixIdNS6_15basic_row_majorImlEENS6_15unbounded_arrayIdSaIdEEEEEEEE4castEPKSE_NS_19return_value_policyENS_6handleE
FN:824,_ZN8pybind116detail16type_caster_baseIN6Kratos8VariableIN5boost7numeric5ublas6vectorIdNS6_15unbounded_arrayIdSaIdEEEEEEEE4castEPKSC_NS_19return_value_policyENS_6handleE
FN:824,_ZN8pybind116detail16type_caster_baseIN6Kratos8VariableIN5boost7numeric5ublas6vectorIiNS6_15unbounded_arrayIiSaIiEEEEEEEE4castEPKSC_NS_19return_value_policyENS_6handleE
FN:824,_ZN8pybind116detail16type_caster_baseIN6Kratos8VariableINS2_5FlagsEEEE4castEPKS5_NS_19return_value_policyENS_6handleE
FN:824,_ZN8pybind116detail16type_caster_baseIN6Kratos8VariableINS2_8array_1dIdLm3EEEEEE4castEPKS6_NS_19return_value_policyENS_6handleE
FN:824,_ZN8pybind116detail16type_caster_baseIN6Kratos8VariableINS2_8array_1dIdLm4EEEEEE4castEPKS6_NS_19return_value_policyENS_6handleE
FN:824,_ZN8pybind116detail16type_caster_baseIN6Kratos8VariableINS2_8array_1dIdLm6EEEEEE4castEPKS6_NS_19return_value_policyENS_6handleE
FN:824,_ZN8pybind116detail16type_caster_baseIN6Kratos8VariableINS2_8array_1dIdLm9EEEEEE4castEPKS6_NS_19return_value_policyENS_6handleE
FN:824,_ZN8pybind116detail16type_caster_baseIN6Kratos8VariableINSt7__cxx1112basic_stringIcSt11char_traitsIcESaIcEEEEEE4castEPKSA_NS_19return_value_policyENS_6handleE
FN:824,_ZN8pybind116detail16type_caster_baseIN6Kratos8VariableISt10shared_ptrINS2_15ConstitutiveLawEEEEE4castEPKS7_NS_19return_value_policyENS_6handleE
FN:824,_ZN8pybind116detail16type_caster_baseIN6Kratos8VariableISt10shared_ptrINS2_17RadiationSettingsEEEEE4castEPKS7_NS_19return_value_policyENS_6handleE
